
./test_compiled/rv32um-p-mulhu：     文件格式 elf32-littleriscv


Disassembly of section .text.init:

00000000 <_start>:
   0:	0540006f          	j	54 <reset_vector>

00000004 <trap_vector>:
   4:	34202f73          	csrr	t5,mcause
   8:	00800f93          	li	t6,8
   c:	03ff0a63          	beq	t5,t6,40 <write_tohost>
  10:	00900f93          	li	t6,9
  14:	03ff0663          	beq	t5,t6,40 <write_tohost>
  18:	00b00f93          	li	t6,11
  1c:	03ff0263          	beq	t5,t6,40 <write_tohost>
  20:	00000f17          	auipc	t5,0x0
  24:	fe0f0f13          	addi	t5,t5,-32 # 0 <_start>
  28:	000f0463          	beqz	t5,30 <trap_vector+0x2c>
  2c:	000f0067          	jr	t5
  30:	34202f73          	csrr	t5,mcause
  34:	000f5463          	bgez	t5,3c <handle_exception>
  38:	0040006f          	j	3c <handle_exception>

0000003c <handle_exception>:
  3c:	5391e193          	ori	gp,gp,1337

00000040 <write_tohost>:
  40:	00003f17          	auipc	t5,0x3
  44:	fc3f2023          	sw	gp,-64(t5) # 3000 <tohost>
  48:	00003f17          	auipc	t5,0x3
  4c:	fa0f2e23          	sw	zero,-68(t5) # 3004 <tohost+0x4>
  50:	ff1ff06f          	j	40 <write_tohost>

00000054 <reset_vector>:
  54:	00000093          	li	ra,0
  58:	00000113          	li	sp,0
  5c:	00000193          	li	gp,0
  60:	00000213          	li	tp,0
  64:	00000293          	li	t0,0
  68:	00000313          	li	t1,0
  6c:	00000393          	li	t2,0
  70:	00000413          	li	s0,0
  74:	00000493          	li	s1,0
  78:	00000513          	li	a0,0
  7c:	00000593          	li	a1,0
  80:	00000613          	li	a2,0
  84:	00000693          	li	a3,0
  88:	00000713          	li	a4,0
  8c:	00000793          	li	a5,0
  90:	00000813          	li	a6,0
  94:	00000893          	li	a7,0
  98:	00000913          	li	s2,0
  9c:	00000993          	li	s3,0
  a0:	00000a13          	li	s4,0
  a4:	00000a93          	li	s5,0
  a8:	00000b13          	li	s6,0
  ac:	00000b93          	li	s7,0
  b0:	00000c13          	li	s8,0
  b4:	00000c93          	li	s9,0
  b8:	00000d13          	li	s10,0
  bc:	00000d93          	li	s11,0
  c0:	00000e13          	li	t3,0
  c4:	00000e93          	li	t4,0
  c8:	00000f13          	li	t5,0
  cc:	00000f93          	li	t6,0
  d0:	f1402573          	csrr	a0,mhartid
  d4:	00051063          	bnez	a0,d4 <reset_vector+0x80>
  d8:	00000297          	auipc	t0,0x0
  dc:	01028293          	addi	t0,t0,16 # e8 <reset_vector+0x94>
  e0:	30529073          	csrw	mtvec,t0
  e4:	74445073          	csrwi	0x744,8
  e8:	00000297          	auipc	t0,0x0
  ec:	01028293          	addi	t0,t0,16 # f8 <reset_vector+0xa4>
  f0:	30529073          	csrw	mtvec,t0
  f4:	18005073          	csrwi	satp,0
  f8:	00000297          	auipc	t0,0x0
  fc:	02028293          	addi	t0,t0,32 # 118 <reset_vector+0xc4>
 100:	30529073          	csrw	mtvec,t0
 104:	800002b7          	lui	t0,0x80000
 108:	fff28293          	addi	t0,t0,-1 # 7fffffff <_end+0x7fffcfb7>
 10c:	3b029073          	csrw	pmpaddr0,t0
 110:	01f00293          	li	t0,31
 114:	3a029073          	csrw	pmpcfg0,t0
 118:	30405073          	csrwi	mie,0
 11c:	00000297          	auipc	t0,0x0
 120:	01428293          	addi	t0,t0,20 # 130 <reset_vector+0xdc>
 124:	30529073          	csrw	mtvec,t0
 128:	30205073          	csrwi	medeleg,0
 12c:	30305073          	csrwi	mideleg,0
 130:	00000193          	li	gp,0
 134:	00000297          	auipc	t0,0x0
 138:	ed028293          	addi	t0,t0,-304 # 4 <trap_vector>
 13c:	30529073          	csrw	mtvec,t0
 140:	00100513          	li	a0,1
 144:	01f51513          	slli	a0,a0,0x1f
 148:	00054c63          	bltz	a0,160 <reset_vector+0x10c>
 14c:	0ff0000f          	fence
 150:	00100193          	li	gp,1
 154:	05d00893          	li	a7,93
 158:	00000513          	li	a0,0
 15c:	00000073          	ecall
 160:	00000297          	auipc	t0,0x0
 164:	ea028293          	addi	t0,t0,-352 # 0 <_start>
 168:	00028a63          	beqz	t0,17c <reset_vector+0x128>
 16c:	10529073          	csrw	stvec,t0
 170:	0000b2b7          	lui	t0,0xb
 174:	10928293          	addi	t0,t0,265 # b109 <_end+0x80c1>
 178:	30229073          	csrw	medeleg,t0
 17c:	30005073          	csrwi	mstatus,0
 180:	00000297          	auipc	t0,0x0
 184:	01428293          	addi	t0,t0,20 # 194 <test_2>
 188:	34129073          	csrw	mepc,t0
 18c:	f1402573          	csrr	a0,mhartid
 190:	30200073          	mret

00000194 <test_2>:
 194:	00200193          	li	gp,2
 198:	00000593          	li	a1,0
 19c:	00000613          	li	a2,0
 1a0:	02c5b733          	mulhu	a4,a1,a2
 1a4:	00000393          	li	t2,0
 1a8:	4a771a63          	bne	a4,t2,65c <fail>

000001ac <test_3>:
 1ac:	00300193          	li	gp,3
 1b0:	00100593          	li	a1,1
 1b4:	00100613          	li	a2,1
 1b8:	02c5b733          	mulhu	a4,a1,a2
 1bc:	00000393          	li	t2,0
 1c0:	48771e63          	bne	a4,t2,65c <fail>

000001c4 <test_4>:
 1c4:	00400193          	li	gp,4
 1c8:	00300593          	li	a1,3
 1cc:	00700613          	li	a2,7
 1d0:	02c5b733          	mulhu	a4,a1,a2
 1d4:	00000393          	li	t2,0
 1d8:	48771263          	bne	a4,t2,65c <fail>

000001dc <test_5>:
 1dc:	00500193          	li	gp,5
 1e0:	00000593          	li	a1,0
 1e4:	ffff8637          	lui	a2,0xffff8
 1e8:	02c5b733          	mulhu	a4,a1,a2
 1ec:	00000393          	li	t2,0
 1f0:	46771663          	bne	a4,t2,65c <fail>

000001f4 <test_6>:
 1f4:	00600193          	li	gp,6
 1f8:	800005b7          	lui	a1,0x80000
 1fc:	00000613          	li	a2,0
 200:	02c5b733          	mulhu	a4,a1,a2
 204:	00000393          	li	t2,0
 208:	44771a63          	bne	a4,t2,65c <fail>

0000020c <test_7>:
 20c:	00700193          	li	gp,7
 210:	800005b7          	lui	a1,0x80000
 214:	ffff8637          	lui	a2,0xffff8
 218:	02c5b733          	mulhu	a4,a1,a2
 21c:	7fffc3b7          	lui	t2,0x7fffc
 220:	42771e63          	bne	a4,t2,65c <fail>

00000224 <test_30>:
 224:	01e00193          	li	gp,30
 228:	aaaab5b7          	lui	a1,0xaaaab
 22c:	aab58593          	addi	a1,a1,-1365 # aaaaaaab <_end+0xaaaa7a63>
 230:	00030637          	lui	a2,0x30
 234:	e7d60613          	addi	a2,a2,-387 # 2fe7d <_end+0x2ce35>
 238:	02c5b733          	mulhu	a4,a1,a2
 23c:	000203b7          	lui	t2,0x20
 240:	efe38393          	addi	t2,t2,-258 # 1fefe <_end+0x1ceb6>
 244:	40771c63          	bne	a4,t2,65c <fail>

00000248 <test_31>:
 248:	01f00193          	li	gp,31
 24c:	000305b7          	lui	a1,0x30
 250:	e7d58593          	addi	a1,a1,-387 # 2fe7d <_end+0x2ce35>
 254:	aaaab637          	lui	a2,0xaaaab
 258:	aab60613          	addi	a2,a2,-1365 # aaaaaaab <_end+0xaaaa7a63>
 25c:	02c5b733          	mulhu	a4,a1,a2
 260:	000203b7          	lui	t2,0x20
 264:	efe38393          	addi	t2,t2,-258 # 1fefe <_end+0x1ceb6>
 268:	3e771a63          	bne	a4,t2,65c <fail>

0000026c <test_32>:
 26c:	02000193          	li	gp,32
 270:	ff0005b7          	lui	a1,0xff000
 274:	ff000637          	lui	a2,0xff000
 278:	02c5b733          	mulhu	a4,a1,a2
 27c:	fe0103b7          	lui	t2,0xfe010
 280:	3c771e63          	bne	a4,t2,65c <fail>

00000284 <test_33>:
 284:	02100193          	li	gp,33
 288:	fff00593          	li	a1,-1
 28c:	fff00613          	li	a2,-1
 290:	02c5b733          	mulhu	a4,a1,a2
 294:	ffe00393          	li	t2,-2
 298:	3c771263          	bne	a4,t2,65c <fail>

0000029c <test_34>:
 29c:	02200193          	li	gp,34
 2a0:	fff00593          	li	a1,-1
 2a4:	00100613          	li	a2,1
 2a8:	02c5b733          	mulhu	a4,a1,a2
 2ac:	00000393          	li	t2,0
 2b0:	3a771663          	bne	a4,t2,65c <fail>

000002b4 <test_35>:
 2b4:	02300193          	li	gp,35
 2b8:	00100593          	li	a1,1
 2bc:	fff00613          	li	a2,-1
 2c0:	02c5b733          	mulhu	a4,a1,a2
 2c4:	00000393          	li	t2,0
 2c8:	38771a63          	bne	a4,t2,65c <fail>

000002cc <test_8>:
 2cc:	00800193          	li	gp,8
 2d0:	00d005b7          	lui	a1,0xd00
 2d4:	00b00637          	lui	a2,0xb00
 2d8:	02c5b5b3          	mulhu	a1,a1,a2
 2dc:	000093b7          	lui	t2,0x9
 2e0:	f0038393          	addi	t2,t2,-256 # 8f00 <_end+0x5eb8>
 2e4:	36759c63          	bne	a1,t2,65c <fail>

000002e8 <test_9>:
 2e8:	00900193          	li	gp,9
 2ec:	00e005b7          	lui	a1,0xe00
 2f0:	00b00637          	lui	a2,0xb00
 2f4:	02c5b633          	mulhu	a2,a1,a2
 2f8:	0000a3b7          	lui	t2,0xa
 2fc:	a0038393          	addi	t2,t2,-1536 # 9a00 <_end+0x69b8>
 300:	34761e63          	bne	a2,t2,65c <fail>

00000304 <test_10>:
 304:	00a00193          	li	gp,10
 308:	00d005b7          	lui	a1,0xd00
 30c:	02b5b5b3          	mulhu	a1,a1,a1
 310:	0000b3b7          	lui	t2,0xb
 314:	90038393          	addi	t2,t2,-1792 # a900 <_end+0x78b8>
 318:	34759263          	bne	a1,t2,65c <fail>

0000031c <test_11>:
 31c:	00b00193          	li	gp,11
 320:	00000213          	li	tp,0
 324:	00d000b7          	lui	ra,0xd00
 328:	00b00137          	lui	sp,0xb00
 32c:	0220b733          	mulhu	a4,ra,sp
 330:	00070313          	mv	t1,a4
 334:	00120213          	addi	tp,tp,1 # 1 <_start+0x1>
 338:	00200293          	li	t0,2
 33c:	fe5214e3          	bne	tp,t0,324 <test_11+0x8>
 340:	000093b7          	lui	t2,0x9
 344:	f0038393          	addi	t2,t2,-256 # 8f00 <_end+0x5eb8>
 348:	30731a63          	bne	t1,t2,65c <fail>

0000034c <test_12>:
 34c:	00c00193          	li	gp,12
 350:	00000213          	li	tp,0
 354:	00e000b7          	lui	ra,0xe00
 358:	00b00137          	lui	sp,0xb00
 35c:	0220b733          	mulhu	a4,ra,sp
 360:	00000013          	nop
 364:	00070313          	mv	t1,a4
 368:	00120213          	addi	tp,tp,1 # 1 <_start+0x1>
 36c:	00200293          	li	t0,2
 370:	fe5212e3          	bne	tp,t0,354 <test_12+0x8>
 374:	0000a3b7          	lui	t2,0xa
 378:	a0038393          	addi	t2,t2,-1536 # 9a00 <_end+0x69b8>
 37c:	2e731063          	bne	t1,t2,65c <fail>

00000380 <test_13>:
 380:	00d00193          	li	gp,13
 384:	00000213          	li	tp,0
 388:	00f000b7          	lui	ra,0xf00
 38c:	00b00137          	lui	sp,0xb00
 390:	0220b733          	mulhu	a4,ra,sp
 394:	00000013          	nop
 398:	00000013          	nop
 39c:	00070313          	mv	t1,a4
 3a0:	00120213          	addi	tp,tp,1 # 1 <_start+0x1>
 3a4:	00200293          	li	t0,2
 3a8:	fe5210e3          	bne	tp,t0,388 <test_13+0x8>
 3ac:	0000a3b7          	lui	t2,0xa
 3b0:	50038393          	addi	t2,t2,1280 # a500 <_end+0x74b8>
 3b4:	2a731463          	bne	t1,t2,65c <fail>

000003b8 <test_14>:
 3b8:	00e00193          	li	gp,14
 3bc:	00000213          	li	tp,0
 3c0:	00d000b7          	lui	ra,0xd00
 3c4:	00b00137          	lui	sp,0xb00
 3c8:	0220b733          	mulhu	a4,ra,sp
 3cc:	00120213          	addi	tp,tp,1 # 1 <_start+0x1>
 3d0:	00200293          	li	t0,2
 3d4:	fe5216e3          	bne	tp,t0,3c0 <test_14+0x8>
 3d8:	000093b7          	lui	t2,0x9
 3dc:	f0038393          	addi	t2,t2,-256 # 8f00 <_end+0x5eb8>
 3e0:	26771e63          	bne	a4,t2,65c <fail>

000003e4 <test_15>:
 3e4:	00f00193          	li	gp,15
 3e8:	00000213          	li	tp,0
 3ec:	00e000b7          	lui	ra,0xe00
 3f0:	00b00137          	lui	sp,0xb00
 3f4:	00000013          	nop
 3f8:	0220b733          	mulhu	a4,ra,sp
 3fc:	00120213          	addi	tp,tp,1 # 1 <_start+0x1>
 400:	00200293          	li	t0,2
 404:	fe5214e3          	bne	tp,t0,3ec <test_15+0x8>
 408:	0000a3b7          	lui	t2,0xa
 40c:	a0038393          	addi	t2,t2,-1536 # 9a00 <_end+0x69b8>
 410:	24771663          	bne	a4,t2,65c <fail>

00000414 <test_16>:
 414:	01000193          	li	gp,16
 418:	00000213          	li	tp,0
 41c:	00f000b7          	lui	ra,0xf00
 420:	00b00137          	lui	sp,0xb00
 424:	00000013          	nop
 428:	00000013          	nop
 42c:	0220b733          	mulhu	a4,ra,sp
 430:	00120213          	addi	tp,tp,1 # 1 <_start+0x1>
 434:	00200293          	li	t0,2
 438:	fe5212e3          	bne	tp,t0,41c <test_16+0x8>
 43c:	0000a3b7          	lui	t2,0xa
 440:	50038393          	addi	t2,t2,1280 # a500 <_end+0x74b8>
 444:	20771c63          	bne	a4,t2,65c <fail>

00000448 <test_17>:
 448:	01100193          	li	gp,17
 44c:	00000213          	li	tp,0
 450:	00d000b7          	lui	ra,0xd00
 454:	00000013          	nop
 458:	00b00137          	lui	sp,0xb00
 45c:	0220b733          	mulhu	a4,ra,sp
 460:	00120213          	addi	tp,tp,1 # 1 <_start+0x1>
 464:	00200293          	li	t0,2
 468:	fe5214e3          	bne	tp,t0,450 <test_17+0x8>
 46c:	000093b7          	lui	t2,0x9
 470:	f0038393          	addi	t2,t2,-256 # 8f00 <_end+0x5eb8>
 474:	1e771463          	bne	a4,t2,65c <fail>

00000478 <test_18>:
 478:	01200193          	li	gp,18
 47c:	00000213          	li	tp,0
 480:	00e000b7          	lui	ra,0xe00
 484:	00000013          	nop
 488:	00b00137          	lui	sp,0xb00
 48c:	00000013          	nop
 490:	0220b733          	mulhu	a4,ra,sp
 494:	00120213          	addi	tp,tp,1 # 1 <_start+0x1>
 498:	00200293          	li	t0,2
 49c:	fe5212e3          	bne	tp,t0,480 <test_18+0x8>
 4a0:	0000a3b7          	lui	t2,0xa
 4a4:	a0038393          	addi	t2,t2,-1536 # 9a00 <_end+0x69b8>
 4a8:	1a771a63          	bne	a4,t2,65c <fail>

000004ac <test_19>:
 4ac:	01300193          	li	gp,19
 4b0:	00000213          	li	tp,0
 4b4:	00f000b7          	lui	ra,0xf00
 4b8:	00000013          	nop
 4bc:	00000013          	nop
 4c0:	00b00137          	lui	sp,0xb00
 4c4:	0220b733          	mulhu	a4,ra,sp
 4c8:	00120213          	addi	tp,tp,1 # 1 <_start+0x1>
 4cc:	00200293          	li	t0,2
 4d0:	fe5212e3          	bne	tp,t0,4b4 <test_19+0x8>
 4d4:	0000a3b7          	lui	t2,0xa
 4d8:	50038393          	addi	t2,t2,1280 # a500 <_end+0x74b8>
 4dc:	18771063          	bne	a4,t2,65c <fail>

000004e0 <test_20>:
 4e0:	01400193          	li	gp,20
 4e4:	00000213          	li	tp,0
 4e8:	00b00137          	lui	sp,0xb00
 4ec:	00d000b7          	lui	ra,0xd00
 4f0:	0220b733          	mulhu	a4,ra,sp
 4f4:	00120213          	addi	tp,tp,1 # 1 <_start+0x1>
 4f8:	00200293          	li	t0,2
 4fc:	fe5216e3          	bne	tp,t0,4e8 <test_20+0x8>
 500:	000093b7          	lui	t2,0x9
 504:	f0038393          	addi	t2,t2,-256 # 8f00 <_end+0x5eb8>
 508:	14771a63          	bne	a4,t2,65c <fail>

0000050c <test_21>:
 50c:	01500193          	li	gp,21
 510:	00000213          	li	tp,0
 514:	00b00137          	lui	sp,0xb00
 518:	00e000b7          	lui	ra,0xe00
 51c:	00000013          	nop
 520:	0220b733          	mulhu	a4,ra,sp
 524:	00120213          	addi	tp,tp,1 # 1 <_start+0x1>
 528:	00200293          	li	t0,2
 52c:	fe5214e3          	bne	tp,t0,514 <test_21+0x8>
 530:	0000a3b7          	lui	t2,0xa
 534:	a0038393          	addi	t2,t2,-1536 # 9a00 <_end+0x69b8>
 538:	12771263          	bne	a4,t2,65c <fail>

0000053c <test_22>:
 53c:	01600193          	li	gp,22
 540:	00000213          	li	tp,0
 544:	00b00137          	lui	sp,0xb00
 548:	00f000b7          	lui	ra,0xf00
 54c:	00000013          	nop
 550:	00000013          	nop
 554:	0220b733          	mulhu	a4,ra,sp
 558:	00120213          	addi	tp,tp,1 # 1 <_start+0x1>
 55c:	00200293          	li	t0,2
 560:	fe5212e3          	bne	tp,t0,544 <test_22+0x8>
 564:	0000a3b7          	lui	t2,0xa
 568:	50038393          	addi	t2,t2,1280 # a500 <_end+0x74b8>
 56c:	0e771863          	bne	a4,t2,65c <fail>

00000570 <test_23>:
 570:	01700193          	li	gp,23
 574:	00000213          	li	tp,0
 578:	00b00137          	lui	sp,0xb00
 57c:	00000013          	nop
 580:	00d000b7          	lui	ra,0xd00
 584:	0220b733          	mulhu	a4,ra,sp
 588:	00120213          	addi	tp,tp,1 # 1 <_start+0x1>
 58c:	00200293          	li	t0,2
 590:	fe5214e3          	bne	tp,t0,578 <test_23+0x8>
 594:	000093b7          	lui	t2,0x9
 598:	f0038393          	addi	t2,t2,-256 # 8f00 <_end+0x5eb8>
 59c:	0c771063          	bne	a4,t2,65c <fail>

000005a0 <test_24>:
 5a0:	01800193          	li	gp,24
 5a4:	00000213          	li	tp,0
 5a8:	00b00137          	lui	sp,0xb00
 5ac:	00000013          	nop
 5b0:	00e000b7          	lui	ra,0xe00
 5b4:	00000013          	nop
 5b8:	0220b733          	mulhu	a4,ra,sp
 5bc:	00120213          	addi	tp,tp,1 # 1 <_start+0x1>
 5c0:	00200293          	li	t0,2
 5c4:	fe5212e3          	bne	tp,t0,5a8 <test_24+0x8>
 5c8:	0000a3b7          	lui	t2,0xa
 5cc:	a0038393          	addi	t2,t2,-1536 # 9a00 <_end+0x69b8>
 5d0:	08771663          	bne	a4,t2,65c <fail>

000005d4 <test_25>:
 5d4:	01900193          	li	gp,25
 5d8:	00000213          	li	tp,0
 5dc:	00b00137          	lui	sp,0xb00
 5e0:	00000013          	nop
 5e4:	00000013          	nop
 5e8:	00f000b7          	lui	ra,0xf00
 5ec:	0220b733          	mulhu	a4,ra,sp
 5f0:	00120213          	addi	tp,tp,1 # 1 <_start+0x1>
 5f4:	00200293          	li	t0,2
 5f8:	fe5212e3          	bne	tp,t0,5dc <test_25+0x8>
 5fc:	0000a3b7          	lui	t2,0xa
 600:	50038393          	addi	t2,t2,1280 # a500 <_end+0x74b8>
 604:	04771c63          	bne	a4,t2,65c <fail>

00000608 <test_26>:
 608:	01a00193          	li	gp,26
 60c:	7c0000b7          	lui	ra,0x7c000
 610:	02103133          	mulhu	sp,zero,ra
 614:	00000393          	li	t2,0
 618:	04711263          	bne	sp,t2,65c <fail>

0000061c <test_27>:
 61c:	01b00193          	li	gp,27
 620:	800000b7          	lui	ra,0x80000
 624:	0200b133          	mulhu	sp,ra,zero
 628:	00000393          	li	t2,0
 62c:	02711863          	bne	sp,t2,65c <fail>

00000630 <test_28>:
 630:	01c00193          	li	gp,28
 634:	020030b3          	mulhu	ra,zero,zero
 638:	00000393          	li	t2,0
 63c:	02709063          	bne	ra,t2,65c <fail>

00000640 <test_29>:
 640:	01d00193          	li	gp,29
 644:	021000b7          	lui	ra,0x2100
 648:	02200137          	lui	sp,0x2200
 64c:	0220b033          	mulhu	zero,ra,sp
 650:	00000393          	li	t2,0
 654:	00701463          	bne	zero,t2,65c <fail>
 658:	02301063          	bne	zero,gp,678 <pass>

0000065c <fail>:
 65c:	0ff0000f          	fence
 660:	00018063          	beqz	gp,660 <fail+0x4>
 664:	00119193          	slli	gp,gp,0x1
 668:	0011e193          	ori	gp,gp,1
 66c:	05d00893          	li	a7,93
 670:	00018513          	mv	a0,gp
 674:	00000073          	ecall

00000678 <pass>:
 678:	0ff0000f          	fence
 67c:	00100193          	li	gp,1
 680:	05d00893          	li	a7,93
 684:	00000513          	li	a0,0
 688:	00000073          	ecall
 68c:	c0001073          	unimp
	...

Disassembly of section .tohost:

00003000 <tohost>:
	...

00003040 <fromhost>:
	...
