
coremark.elf:     file format elf32-littleriscv


Disassembly of section .init:

00000800 <_start>:
 800:	10000197          	auipc	gp,0x10000
 804:	78018193          	addi	gp,gp,1920 # 10000f80 <__global_pointer$>
 808:	10007117          	auipc	sp,0x10007
 80c:	7f810113          	addi	sp,sp,2040 # 10008000 <__freertos_irq_stack_top>
 810:	00006517          	auipc	a0,0x6
 814:	75050513          	addi	a0,a0,1872 # 6f60 <_data_lma>
 818:	0ffff597          	auipc	a1,0xffff
 81c:	7e858593          	addi	a1,a1,2024 # 10000000 <_data>
 820:	80818613          	addi	a2,gp,-2040 # 10000788 <__bss_start>
 824:	00c5fc63          	bgeu	a1,a2,83c <_start+0x3c>
 828:	00052283          	lw	t0,0(a0)
 82c:	0055a023          	sw	t0,0(a1)
 830:	00450513          	addi	a0,a0,4
 834:	00458593          	addi	a1,a1,4
 838:	fec5e8e3          	bltu	a1,a2,828 <_start+0x28>
 83c:	80818513          	addi	a0,gp,-2040 # 10000788 <__bss_start>
 840:	00818593          	addi	a1,gp,8 # 10000f88 <_end>
 844:	00b57863          	bgeu	a0,a1,854 <_start+0x54>
 848:	00052023          	sw	zero,0(a0)
 84c:	00450513          	addi	a0,a0,4
 850:	feb56ce3          	bltu	a0,a1,848 <_start+0x48>
 854:	628000ef          	jal	ra,e7c <pre_init>
 858:	008000ef          	jal	ra,860 <main>

0000085c <loop>:
 85c:	0000006f          	j	85c <loop>

Disassembly of section .text:

00000860 <main>:
     860:	f9010113          	addi	sp,sp,-112
     864:	00410613          	addi	a2,sp,4
     868:	00010593          	mv	a1,sp
     86c:	04c10513          	addi	a0,sp,76
     870:	06112623          	sw	ra,108(sp)
     874:	06812423          	sw	s0,104(sp)
     878:	06912223          	sw	s1,100(sp)
     87c:	07212023          	sw	s2,96(sp)
     880:	05312e23          	sw	s3,92(sp)
     884:	05412c23          	sw	s4,88(sp)
     888:	00012023          	sw	zero,0(sp)
     88c:	399040ef          	jal	ra,5424 <portable_init>
     890:	00100513          	li	a0,1
     894:	2fc050ef          	jal	ra,5b90 <get_seed_32>
     898:	00a11423          	sh	a0,8(sp)
     89c:	00200513          	li	a0,2
     8a0:	2f0050ef          	jal	ra,5b90 <get_seed_32>
     8a4:	00a11523          	sh	a0,10(sp)
     8a8:	00300513          	li	a0,3
     8ac:	2e4050ef          	jal	ra,5b90 <get_seed_32>
     8b0:	00a11623          	sh	a0,12(sp)
     8b4:	00400513          	li	a0,4
     8b8:	2d8050ef          	jal	ra,5b90 <get_seed_32>
     8bc:	02a12223          	sw	a0,36(sp)
     8c0:	00500513          	li	a0,5
     8c4:	2cc050ef          	jal	ra,5b90 <get_seed_32>
     8c8:	3e050263          	beqz	a0,cac <main+0x44c>
     8cc:	02a12423          	sw	a0,40(sp)
     8d0:	00812083          	lw	ra,8(sp)
     8d4:	44009c63          	bnez	ra,d2c <main+0x4cc>
     8d8:	00c11403          	lh	s0,12(sp)
     8dc:	46040663          	beqz	s0,d48 <main+0x4e8>
     8e0:	02812783          	lw	a5,40(sp)
     8e4:	83818913          	addi	s2,gp,-1992 # 100007b8 <static_memblk>
     8e8:	0027f713          	andi	a4,a5,2
     8ec:	0017f693          	andi	a3,a5,1
     8f0:	00e03533          	snez	a0,a4
     8f4:	01212823          	sw	s2,16(sp)
     8f8:	04011423          	sh	zero,72(sp)
     8fc:	0047f813          	andi	a6,a5,4
     900:	00a68a33          	add	s4,a3,a0
     904:	00080863          	beqz	a6,914 <main+0xb4>
     908:	001a0893          	addi	a7,s4,1
     90c:	01089993          	slli	s3,a7,0x10
     910:	0109da13          	srli	s4,s3,0x10
     914:	7d000e13          	li	t3,2000
     918:	034e5533          	divu	a0,t3,s4
     91c:	00000093          	li	ra,0
     920:	02a12023          	sw	a0,32(sp)
     924:	3a069a63          	bnez	a3,cd8 <main+0x478>
     928:	38071863          	bnez	a4,cb8 <main+0x458>
     92c:	3a081e63          	bnez	a6,ce8 <main+0x488>
     930:	30069063          	bnez	a3,c30 <main+0x3d0>
     934:	30071c63          	bnez	a4,c4c <main+0x3ec>
     938:	0047f593          	andi	a1,a5,4
     93c:	00058a63          	beqz	a1,950 <main+0xf0>
     940:	01c12603          	lw	a2,28(sp)
     944:	00811583          	lh	a1,8(sp)
     948:	02012503          	lw	a0,32(sp)
     94c:	305040ef          	jal	ra,5450 <core_init_state>
     950:	02412903          	lw	s2,36(sp)
     954:	04091a63          	bnez	s2,9a8 <main+0x148>
     958:	00100693          	li	a3,1
     95c:	02d12223          	sw	a3,36(sp)
     960:	02412603          	lw	a2,36(sp)
     964:	00261513          	slli	a0,a2,0x2
     968:	00c50833          	add	a6,a0,a2
     96c:	00181893          	slli	a7,a6,0x1
     970:	03112223          	sw	a7,36(sp)
     974:	20d040ef          	jal	ra,5380 <start_time>
     978:	00810513          	addi	a0,sp,8
     97c:	43d020ef          	jal	ra,35b8 <iterate>
     980:	221040ef          	jal	ra,53a0 <stop_time>
     984:	23d040ef          	jal	ra,53c0 <get_time>
     988:	265040ef          	jal	ra,53ec <time_in_secs>
     98c:	fc050ae3          	beqz	a0,960 <main+0x100>
     990:	00a00993          	li	s3,10
     994:	02a9da33          	divu	s4,s3,a0
     998:	02412e83          	lw	t4,36(sp)
     99c:	001a0e13          	addi	t3,s4,1
     9a0:	03ce8f33          	mul	t5,t4,t3
     9a4:	03e12223          	sw	t5,36(sp)
     9a8:	10000fb7          	lui	t6,0x10000
     9ac:	068f8513          	addi	a0,t6,104 # 10000068 <list_known_crc+0xc>
     9b0:	668000ef          	jal	ra,1018 <xprintf>
     9b4:	1cd040ef          	jal	ra,5380 <start_time>
     9b8:	00810513          	addi	a0,sp,8
     9bc:	3fd020ef          	jal	ra,35b8 <iterate>
     9c0:	1e1040ef          	jal	ra,53a0 <stop_time>
     9c4:	1fd040ef          	jal	ra,53c0 <get_time>
     9c8:	00050993          	mv	s3,a0
     9cc:	00811503          	lh	a0,8(sp)
     9d0:	00058a13          	mv	s4,a1
     9d4:	00000593          	li	a1,0
     9d8:	1a1050ef          	jal	ra,6378 <crc16>
     9dc:	00050593          	mv	a1,a0
     9e0:	00a11503          	lh	a0,10(sp)
     9e4:	195050ef          	jal	ra,6378 <crc16>
     9e8:	00050593          	mv	a1,a0
     9ec:	00c11503          	lh	a0,12(sp)
     9f0:	189050ef          	jal	ra,6378 <crc16>
     9f4:	00050593          	mv	a1,a0
     9f8:	02011503          	lh	a0,32(sp)
     9fc:	17d050ef          	jal	ra,6378 <crc16>
     a00:	000082b7          	lui	t0,0x8
     a04:	b0528313          	addi	t1,t0,-1275 # 7b05 <_data_lma+0xba5>
     a08:	00050913          	mv	s2,a0
     a0c:	3e650463          	beq	a0,t1,df4 <main+0x594>
     a10:	26a37263          	bgeu	t1,a0,c74 <main+0x414>
     a14:	000093b7          	lui	t2,0x9
     a18:	a0238713          	addi	a4,t2,-1534 # 8a02 <_data_lma+0x1aa2>
     a1c:	3ee50663          	beq	a0,a4,e08 <main+0x5a8>
     a20:	0000f4b7          	lui	s1,0xf
     a24:	9f548793          	addi	a5,s1,-1547 # e9f5 <_data_lma+0x7a95>
     a28:	26f51c63          	bne	a0,a5,ca0 <main+0x440>
     a2c:	100005b7          	lui	a1,0x10000
     a30:	10858513          	addi	a0,a1,264 # 10000108 <list_known_crc+0xac>
     a34:	5e4000ef          	jal	ra,1018 <xprintf>
     a38:	00300413          	li	s0,3
     a3c:	02812e83          	lw	t4,40(sp)
     a40:	04011423          	sh	zero,72(sp)
     a44:	001eff13          	andi	t5,t4,1
     a48:	040f0063          	beqz	t5,a88 <main+0x228>
     a4c:	100002b7          	lui	t0,0x10000
     a50:	00141f93          	slli	t6,s0,0x1
     a54:	05c28313          	addi	t1,t0,92 # 1000005c <list_known_crc>
     a58:	01f300b3          	add	ra,t1,t6
     a5c:	04215603          	lhu	a2,66(sp)
     a60:	0000d683          	lhu	a3,0(ra)
     a64:	02d60263          	beq	a2,a3,a88 <main+0x228>
     a68:	100003b7          	lui	t2,0x10000
     a6c:	00000593          	li	a1,0
     a70:	16838513          	addi	a0,t2,360 # 10000168 <list_known_crc+0x10c>
     a74:	5a4000ef          	jal	ra,1018 <xprintf>
     a78:	04815703          	lhu	a4,72(sp)
     a7c:	02812e83          	lw	t4,40(sp)
     a80:	00170493          	addi	s1,a4,1
     a84:	04911423          	sh	s1,72(sp)
     a88:	002ef793          	andi	a5,t4,2
     a8c:	04078063          	beqz	a5,acc <main+0x26c>
     a90:	100006b7          	lui	a3,0x10000
     a94:	4fc68613          	addi	a2,a3,1276 # 100004fc <matrix_known_crc>
     a98:	00141593          	slli	a1,s0,0x1
     a9c:	00b60533          	add	a0,a2,a1
     aa0:	00055683          	lhu	a3,0(a0)
     aa4:	04415603          	lhu	a2,68(sp)
     aa8:	02d60263          	beq	a2,a3,acc <main+0x26c>
     aac:	10000837          	lui	a6,0x10000
     ab0:	00000593          	li	a1,0
     ab4:	19880513          	addi	a0,a6,408 # 10000198 <list_known_crc+0x13c>
     ab8:	560000ef          	jal	ra,1018 <xprintf>
     abc:	04815883          	lhu	a7,72(sp)
     ac0:	02812e83          	lw	t4,40(sp)
     ac4:	00188e13          	addi	t3,a7,1
     ac8:	05c11423          	sh	t3,72(sp)
     acc:	004efe93          	andi	t4,t4,4
     ad0:	020e8063          	beqz	t4,af0 <main+0x290>
     ad4:	10000f37          	lui	t5,0x10000
     ad8:	00141413          	slli	s0,s0,0x1
     adc:	508f0f93          	addi	t6,t5,1288 # 10000508 <state_known_crc>
     ae0:	008f82b3          	add	t0,t6,s0
     ae4:	04615603          	lhu	a2,70(sp)
     ae8:	0002d683          	lhu	a3,0(t0)
     aec:	20d61863          	bne	a2,a3,cfc <main+0x49c>
     af0:	04815483          	lhu	s1,72(sp)
     af4:	30d050ef          	jal	ra,6600 <check_data_types>
     af8:	02012583          	lw	a1,32(sp)
     afc:	00a487b3          	add	a5,s1,a0
     b00:	100006b7          	lui	a3,0x10000
     b04:	20068513          	addi	a0,a3,512 # 10000200 <list_known_crc+0x1a4>
     b08:	01079613          	slli	a2,a5,0x10
     b0c:	01065493          	srli	s1,a2,0x10
     b10:	508000ef          	jal	ra,1018 <xprintf>
     b14:	10000537          	lui	a0,0x10000
     b18:	00098593          	mv	a1,s3
     b1c:	21850513          	addi	a0,a0,536 # 10000218 <list_known_crc+0x1bc>
     b20:	4f8000ef          	jal	ra,1018 <xprintf>
     b24:	000a0593          	mv	a1,s4
     b28:	00098513          	mv	a0,s3
     b2c:	0c1040ef          	jal	ra,53ec <time_in_secs>
     b30:	10000837          	lui	a6,0x10000
     b34:	00050593          	mv	a1,a0
     b38:	23080513          	addi	a0,a6,560 # 10000230 <list_known_crc+0x1d4>
     b3c:	4dc000ef          	jal	ra,1018 <xprintf>
     b40:	00098513          	mv	a0,s3
     b44:	000a0593          	mv	a1,s4
     b48:	0a5040ef          	jal	ra,53ec <time_in_secs>
     b4c:	22051263          	bnez	a0,d70 <main+0x510>
     b50:	00098513          	mv	a0,s3
     b54:	000a0593          	mv	a1,s4
     b58:	095040ef          	jal	ra,53ec <time_in_secs>
     b5c:	01049a13          	slli	s4,s1,0x10
     b60:	00900993          	li	s3,9
     b64:	410a5413          	srai	s0,s4,0x10
     b68:	1ea9f663          	bgeu	s3,a0,d54 <main+0x4f4>
     b6c:	02412583          	lw	a1,36(sp)
     b70:	10000f37          	lui	t5,0x10000
     b74:	3e4f0513          	addi	a0,t5,996 # 100003e4 <list_known_crc+0x388>
     b78:	4a0000ef          	jal	ra,1018 <xprintf>
     b7c:	10000fb7          	lui	t6,0x10000
     b80:	100002b7          	lui	t0,0x10000
     b84:	3fcf8593          	addi	a1,t6,1020 # 100003fc <list_known_crc+0x3a0>
     b88:	40828513          	addi	a0,t0,1032 # 10000408 <list_known_crc+0x3ac>
     b8c:	48c000ef          	jal	ra,1018 <xprintf>
     b90:	10000337          	lui	t1,0x10000
     b94:	100003b7          	lui	t2,0x10000
     b98:	42030593          	addi	a1,t1,1056 # 10000420 <list_known_crc+0x3c4>
     b9c:	4a838513          	addi	a0,t2,1192 # 100004a8 <list_known_crc+0x44c>
     ba0:	478000ef          	jal	ra,1018 <xprintf>
     ba4:	10000737          	lui	a4,0x10000
     ba8:	100007b7          	lui	a5,0x10000
     bac:	4c870513          	addi	a0,a4,1224 # 100004c8 <list_known_crc+0x46c>
     bb0:	4c078593          	addi	a1,a5,1216 # 100004c0 <list_known_crc+0x464>
     bb4:	464000ef          	jal	ra,1018 <xprintf>
     bb8:	00090593          	mv	a1,s2
     bbc:	10000937          	lui	s2,0x10000
     bc0:	4e090513          	addi	a0,s2,1248 # 100004e0 <list_known_crc+0x484>
     bc4:	454000ef          	jal	ra,1018 <xprintf>
     bc8:	02812683          	lw	a3,40(sp)
     bcc:	0016f613          	andi	a2,a3,1
     bd0:	20061463          	bnez	a2,dd8 <main+0x578>
     bd4:	0026f493          	andi	s1,a3,2
     bd8:	1e049263          	bnez	s1,dbc <main+0x55c>
     bdc:	0046f813          	andi	a6,a3,4
     be0:	1c081263          	bnez	a6,da4 <main+0x544>
     be4:	04015603          	lhu	a2,64(sp)
     be8:	100009b7          	lui	s3,0x10000
     bec:	00000593          	li	a1,0
     bf0:	36498513          	addi	a0,s3,868 # 10000364 <list_known_crc+0x308>
     bf4:	424000ef          	jal	ra,1018 <xprintf>
     bf8:	18040e63          	beqz	s0,d94 <main+0x534>
     bfc:	12805063          	blez	s0,d1c <main+0x4bc>
     c00:	100005b7          	lui	a1,0x10000
     c04:	2ec58513          	addi	a0,a1,748 # 100002ec <list_known_crc+0x290>
     c08:	410000ef          	jal	ra,1018 <xprintf>
     c0c:	06c12083          	lw	ra,108(sp)
     c10:	06812403          	lw	s0,104(sp)
     c14:	06412483          	lw	s1,100(sp)
     c18:	06012903          	lw	s2,96(sp)
     c1c:	05c12983          	lw	s3,92(sp)
     c20:	05812a03          	lw	s4,88(sp)
     c24:	00000513          	li	a0,0
     c28:	07010113          	addi	sp,sp,112
     c2c:	00008067          	ret
     c30:	00811603          	lh	a2,8(sp)
     c34:	01412583          	lw	a1,20(sp)
     c38:	40c020ef          	jal	ra,3044 <core_list_init>
     c3c:	02812783          	lw	a5,40(sp)
     c40:	02a12623          	sw	a0,44(sp)
     c44:	0027f713          	andi	a4,a5,2
     c48:	ce0708e3          	beqz	a4,938 <main+0xd8>
     c4c:	00a11783          	lh	a5,10(sp)
     c50:	00811403          	lh	s0,8(sp)
     c54:	01812583          	lw	a1,24(sp)
     c58:	02012503          	lw	a0,32(sp)
     c5c:	01079493          	slli	s1,a5,0x10
     c60:	03010693          	addi	a3,sp,48
     c64:	0084e633          	or	a2,s1,s0
     c68:	391020ef          	jal	ra,37f8 <core_init_matrix>
     c6c:	02812783          	lw	a5,40(sp)
     c70:	cc9ff06f          	j	938 <main+0xd8>
     c74:	000026b7          	lui	a3,0x2
     c78:	8f268613          	addi	a2,a3,-1806 # 18f2 <xprintf+0x8da>
     c7c:	1ac50063          	beq	a0,a2,e1c <main+0x5bc>
     c80:	00005837          	lui	a6,0x5
     c84:	eaf80893          	addi	a7,a6,-337 # 4eaf <matrix_test+0xee7>
     c88:	01151c63          	bne	a0,a7,ca0 <main+0x440>
     c8c:	10000e37          	lui	t3,0x10000
     c90:	0d4e0513          	addi	a0,t3,212 # 100000d4 <list_known_crc+0x78>
     c94:	384000ef          	jal	ra,1018 <xprintf>
     c98:	00200413          	li	s0,2
     c9c:	da1ff06f          	j	a3c <main+0x1dc>
     ca0:	000100b7          	lui	ra,0x10
     ca4:	fff08493          	addi	s1,ra,-1 # ffff <_data_lma+0x909f>
     ca8:	e4dff06f          	j	af4 <main+0x294>
     cac:	00700793          	li	a5,7
     cb0:	02f12423          	sw	a5,40(sp)
     cb4:	c1dff06f          	j	8d0 <main+0x70>
     cb8:	02a08eb3          	mul	t4,ra,a0
     cbc:	00108f13          	addi	t5,ra,1
     cc0:	010f1f93          	slli	t6,t5,0x10
     cc4:	010fd093          	srli	ra,t6,0x10
     cc8:	01d902b3          	add	t0,s2,t4
     ccc:	00512c23          	sw	t0,24(sp)
     cd0:	c60800e3          	beqz	a6,930 <main+0xd0>
     cd4:	0140006f          	j	ce8 <main+0x488>
     cd8:	01212a23          	sw	s2,20(sp)
     cdc:	00100093          	li	ra,1
     ce0:	c40706e3          	beqz	a4,92c <main+0xcc>
     ce4:	fd5ff06f          	j	cb8 <main+0x458>
     ce8:	02a08333          	mul	t1,ra,a0
     cec:	006903b3          	add	t2,s2,t1
     cf0:	00712e23          	sw	t2,28(sp)
     cf4:	c40680e3          	beqz	a3,934 <main+0xd4>
     cf8:	f39ff06f          	j	c30 <main+0x3d0>
     cfc:	10000337          	lui	t1,0x10000
     d00:	00000593          	li	a1,0
     d04:	1cc30513          	addi	a0,t1,460 # 100001cc <list_known_crc+0x170>
     d08:	310000ef          	jal	ra,1018 <xprintf>
     d0c:	04815383          	lhu	t2,72(sp)
     d10:	00138713          	addi	a4,t2,1
     d14:	04e11423          	sh	a4,72(sp)
     d18:	dd9ff06f          	j	af0 <main+0x290>
     d1c:	10000a37          	lui	s4,0x10000
     d20:	300a0513          	addi	a0,s4,768 # 10000300 <list_known_crc+0x2a4>
     d24:	2f4000ef          	jal	ra,1018 <xprintf>
     d28:	ee5ff06f          	j	c0c <main+0x3ac>
     d2c:	00100713          	li	a4,1
     d30:	bae098e3          	bne	ra,a4,8e0 <main+0x80>
     d34:	00c11283          	lh	t0,12(sp)
     d38:	ba0294e3          	bnez	t0,8e0 <main+0x80>
     d3c:	34153337          	lui	t1,0x34153
     d40:	41530393          	addi	t2,t1,1045 # 34153415 <__freertos_irq_stack_top+0x2414b415>
     d44:	00712423          	sw	t2,8(sp)
     d48:	06600493          	li	s1,102
     d4c:	00911623          	sh	s1,12(sp)
     d50:	b91ff06f          	j	8e0 <main+0x80>
     d54:	100005b7          	lui	a1,0x10000
     d58:	26058513          	addi	a0,a1,608 # 10000260 <list_known_crc+0x204>
     d5c:	2bc000ef          	jal	ra,1018 <xprintf>
     d60:	00148e13          	addi	t3,s1,1
     d64:	010e1e93          	slli	t4,t3,0x10
     d68:	410ed413          	srai	s0,t4,0x10
     d6c:	e01ff06f          	j	b6c <main+0x30c>
     d70:	02412403          	lw	s0,36(sp)
     d74:	000a0593          	mv	a1,s4
     d78:	00098513          	mv	a0,s3
     d7c:	670040ef          	jal	ra,53ec <time_in_secs>
     d80:	02a455b3          	divu	a1,s0,a0
     d84:	100008b7          	lui	a7,0x10000
     d88:	24888513          	addi	a0,a7,584 # 10000248 <list_known_crc+0x1ec>
     d8c:	28c000ef          	jal	ra,1018 <xprintf>
     d90:	dc1ff06f          	j	b50 <main+0x2f0>
     d94:	10000e37          	lui	t3,0x10000
     d98:	2a0e0513          	addi	a0,t3,672 # 100002a0 <list_known_crc+0x244>
     d9c:	27c000ef          	jal	ra,1018 <xprintf>
     da0:	e6dff06f          	j	c0c <main+0x3ac>
     da4:	04615603          	lhu	a2,70(sp)
     da8:	100008b7          	lui	a7,0x10000
     dac:	00000593          	li	a1,0
     db0:	38488513          	addi	a0,a7,900 # 10000384 <list_known_crc+0x328>
     db4:	264000ef          	jal	ra,1018 <xprintf>
     db8:	e2dff06f          	j	be4 <main+0x384>
     dbc:	04415603          	lhu	a2,68(sp)
     dc0:	10000537          	lui	a0,0x10000
     dc4:	00000593          	li	a1,0
     dc8:	3a450513          	addi	a0,a0,932 # 100003a4 <list_known_crc+0x348>
     dcc:	24c000ef          	jal	ra,1018 <xprintf>
     dd0:	02812683          	lw	a3,40(sp)
     dd4:	e09ff06f          	j	bdc <main+0x37c>
     dd8:	04215603          	lhu	a2,66(sp)
     ddc:	100000b7          	lui	ra,0x10000
     de0:	00000593          	li	a1,0
     de4:	3c408513          	addi	a0,ra,964 # 100003c4 <list_known_crc+0x368>
     de8:	230000ef          	jal	ra,1018 <xprintf>
     dec:	02812683          	lw	a3,40(sp)
     df0:	de5ff06f          	j	bd4 <main+0x374>
     df4:	100000b7          	lui	ra,0x10000
     df8:	0a408513          	addi	a0,ra,164 # 100000a4 <list_known_crc+0x48>
     dfc:	21c000ef          	jal	ra,1018 <xprintf>
     e00:	00100413          	li	s0,1
     e04:	c39ff06f          	j	a3c <main+0x1dc>
     e08:	10000437          	lui	s0,0x10000
     e0c:	07440513          	addi	a0,s0,116 # 10000074 <list_known_crc+0x18>
     e10:	208000ef          	jal	ra,1018 <xprintf>
     e14:	00000413          	li	s0,0
     e18:	c25ff06f          	j	a3c <main+0x1dc>
     e1c:	10000537          	lui	a0,0x10000
     e20:	13850513          	addi	a0,a0,312 # 10000138 <list_known_crc+0xdc>
     e24:	1f4000ef          	jal	ra,1018 <xprintf>
     e28:	00400413          	li	s0,4
     e2c:	c11ff06f          	j	a3c <main+0x1dc>

00000e30 <apb_uart_init>:
     e30:	00b52023          	sw	a1,0(a0)
     e34:	00050223          	sb	zero,4(a0)
     e38:	00008067          	ret

00000e3c <apb_uart_send_byte>:
     e3c:	00052783          	lw	a5,0(a0)
     e40:	0007a703          	lw	a4,0(a5)
     e44:	00177693          	andi	a3,a4,1
     e48:	02069663          	bnez	a3,e74 <apb_uart_send_byte+0x38>
     e4c:	c0377293          	andi	t0,a4,-1021
     e50:	00259593          	slli	a1,a1,0x2
     e54:	0055e333          	or	t1,a1,t0
     e58:	0067a023          	sw	t1,0(a5)
     e5c:	00236393          	ori	t2,t1,2
     e60:	ffd37513          	andi	a0,t1,-3
     e64:	0077a023          	sw	t2,0(a5)
     e68:	00a7a023          	sw	a0,0(a5)
     e6c:	00000513          	li	a0,0
     e70:	00008067          	ret
     e74:	fff00513          	li	a0,-1
     e78:	00008067          	ret

00000e7c <pre_init>:
     e7c:	000017b7          	lui	a5,0x1
     e80:	ea878293          	addi	t0,a5,-344 # ea8 <trap_entry>
     e84:	30529073          	csrw	mtvec,t0
     e88:	00002337          	lui	t1,0x2
     e8c:	88830393          	addi	t2,t1,-1912 # 1888 <xprintf+0x870>
     e90:	30039073          	csrw	mstatus,t2
     e94:	b0005073          	csrwi	mcycle,0
     e98:	b8005073          	csrwi	mcycleh,0
     e9c:	b0205073          	csrwi	minstret,0
     ea0:	b8205073          	csrwi	minstreth,0
     ea4:	00008067          	ret

00000ea8 <trap_entry>:
     ea8:	f8010113          	addi	sp,sp,-128
     eac:	00112223          	sw	ra,4(sp)
     eb0:	00212423          	sw	sp,8(sp)
     eb4:	00312623          	sw	gp,12(sp)
     eb8:	00412823          	sw	tp,16(sp)
     ebc:	00512a23          	sw	t0,20(sp)
     ec0:	00612c23          	sw	t1,24(sp)
     ec4:	00712e23          	sw	t2,28(sp)
     ec8:	02812023          	sw	s0,32(sp)
     ecc:	02912223          	sw	s1,36(sp)
     ed0:	02a12423          	sw	a0,40(sp)
     ed4:	02b12623          	sw	a1,44(sp)
     ed8:	02c12823          	sw	a2,48(sp)
     edc:	02d12a23          	sw	a3,52(sp)
     ee0:	02e12c23          	sw	a4,56(sp)
     ee4:	02f12e23          	sw	a5,60(sp)
     ee8:	05012023          	sw	a6,64(sp)
     eec:	05112223          	sw	a7,68(sp)
     ef0:	05212423          	sw	s2,72(sp)
     ef4:	05312623          	sw	s3,76(sp)
     ef8:	05412823          	sw	s4,80(sp)
     efc:	05512a23          	sw	s5,84(sp)
     f00:	05612c23          	sw	s6,88(sp)
     f04:	05712e23          	sw	s7,92(sp)
     f08:	07812023          	sw	s8,96(sp)
     f0c:	07912223          	sw	s9,100(sp)
     f10:	07a12423          	sw	s10,104(sp)
     f14:	07b12623          	sw	s11,108(sp)
     f18:	07c12823          	sw	t3,112(sp)
     f1c:	07d12a23          	sw	t4,116(sp)
     f20:	07e12c23          	sw	t5,120(sp)
     f24:	07f12e23          	sw	t6,124(sp)
     f28:	34202573          	csrr	a0,mcause
     f2c:	341025f3          	csrr	a1,mepc

00000f30 <test_if_asynchronous>:
     f30:	01f55613          	srli	a2,a0,0x1f
     f34:	00060663          	beqz	a2,f40 <handle_synchronous>
     f38:	098000ef          	jal	ra,fd0 <trap_handler>
     f3c:	0080006f          	j	f44 <asynchronous_return>

00000f40 <handle_synchronous>:
     f40:	0c8000ef          	jal	ra,1008 <serr_handler>

00000f44 <asynchronous_return>:
     f44:	00412083          	lw	ra,4(sp)
     f48:	00812103          	lw	sp,8(sp)
     f4c:	00c12183          	lw	gp,12(sp)
     f50:	01012203          	lw	tp,16(sp)
     f54:	01412283          	lw	t0,20(sp)
     f58:	01812303          	lw	t1,24(sp)
     f5c:	01c12383          	lw	t2,28(sp)
     f60:	02012403          	lw	s0,32(sp)
     f64:	02412483          	lw	s1,36(sp)
     f68:	02812503          	lw	a0,40(sp)
     f6c:	02c12583          	lw	a1,44(sp)
     f70:	03012603          	lw	a2,48(sp)
     f74:	03412683          	lw	a3,52(sp)
     f78:	03812703          	lw	a4,56(sp)
     f7c:	03c12783          	lw	a5,60(sp)
     f80:	04012803          	lw	a6,64(sp)
     f84:	04412883          	lw	a7,68(sp)
     f88:	04812903          	lw	s2,72(sp)
     f8c:	04c12983          	lw	s3,76(sp)
     f90:	05012a03          	lw	s4,80(sp)
     f94:	05412a83          	lw	s5,84(sp)
     f98:	05812b03          	lw	s6,88(sp)
     f9c:	05c12b83          	lw	s7,92(sp)
     fa0:	06012c03          	lw	s8,96(sp)
     fa4:	06412c83          	lw	s9,100(sp)
     fa8:	06812d03          	lw	s10,104(sp)
     fac:	06c12d83          	lw	s11,108(sp)
     fb0:	07012e03          	lw	t3,112(sp)
     fb4:	07412e83          	lw	t4,116(sp)
     fb8:	07812f03          	lw	t5,120(sp)
     fbc:	07c12f83          	lw	t6,124(sp)
     fc0:	08010113          	addi	sp,sp,128
     fc4:	30200073          	mret
     fc8:	0000006f          	j	fc8 <asynchronous_return+0x84>
     fcc:	0000006f          	j	fcc <asynchronous_return+0x88>

00000fd0 <trap_handler>:
     fd0:	800007b7          	lui	a5,0x80000
     fd4:	00778713          	addi	a4,a5,7 # 80000007 <__freertos_irq_stack_top+0x6fff8007>
     fd8:	00e50c63          	beq	a0,a4,ff0 <trap_handler+0x20>
     fdc:	00b78293          	addi	t0,a5,11
     fe0:	02550063          	beq	a0,t0,1000 <trap_handler+0x30>
     fe4:	00378313          	addi	t1,a5,3
     fe8:	00650863          	beq	a0,t1,ff8 <trap_handler+0x28>
     fec:	00008067          	ret
     ff0:	00000317          	auipc	t1,0x0
     ff4:	00000067          	jr	zero # 0 <_start-0x800>
     ff8:	00000317          	auipc	t1,0x0
     ffc:	00000067          	jr	zero # 0 <_start-0x800>
    1000:	00000317          	auipc	t1,0x0
    1004:	00000067          	jr	zero # 0 <_start-0x800>

00001008 <serr_handler>:
    1008:	0000006f          	j	1008 <serr_handler>

0000100c <get_cycle_value>:
    100c:	b0002573          	csrr	a0,mcycle
    1010:	b80025f3          	csrr	a1,mcycleh
    1014:	00008067          	ret

00001018 <xprintf>:
    1018:	f7010113          	addi	sp,sp,-144
    101c:	07212023          	sw	s2,96(sp)
    1020:	05312e23          	sw	s3,92(sp)
    1024:	05412c23          	sw	s4,88(sp)
    1028:	05612823          	sw	s6,80(sp)
    102c:	05812423          	sw	s8,72(sp)
    1030:	03b12e23          	sw	s11,60(sp)
    1034:	08f12223          	sw	a5,132(sp)
    1038:	06112623          	sw	ra,108(sp)
    103c:	06812423          	sw	s0,104(sp)
    1040:	06912223          	sw	s1,100(sp)
    1044:	05512a23          	sw	s5,84(sp)
    1048:	05712623          	sw	s7,76(sp)
    104c:	05912223          	sw	s9,68(sp)
    1050:	05a12023          	sw	s10,64(sp)
    1054:	06b12a23          	sw	a1,116(sp)
    1058:	06c12c23          	sw	a2,120(sp)
    105c:	06d12e23          	sw	a3,124(sp)
    1060:	08e12023          	sw	a4,128(sp)
    1064:	09012423          	sw	a6,136(sp)
    1068:	09112623          	sw	a7,140(sp)
    106c:	10000db7          	lui	s11,0x10000
    1070:	00050083          	lb	ra,0(a0)
    1074:	07410b13          	addi	s6,sp,116
    1078:	000d8793          	mv	a5,s11
    107c:	01612e23          	sw	s6,28(sp)
    1080:	00f12423          	sw	a5,8(sp)
    1084:	02000993          	li	s3,32
    1088:	00150c13          	addi	s8,a0,1
    108c:	02008a63          	beqz	ra,10c0 <xprintf+0xa8>
    1090:	02500713          	li	a4,37
    1094:	08e08063          	beq	ra,a4,1114 <xprintf+0xfc>
    1098:	80818493          	addi	s1,gp,-2040 # 10000788 <__bss_start>
    109c:	0004ac83          	lw	s9,0(s1)
    10a0:	040c8e63          	beqz	s9,10fc <xprintf+0xe4>
    10a4:	001c8513          	addi	a0,s9,1
    10a8:	00a4a023          	sw	a0,0(s1)
    10ac:	001c8023          	sb	ra,0(s9)
    10b0:	000c0513          	mv	a0,s8
    10b4:	00050083          	lb	ra,0(a0)
    10b8:	00150c13          	addi	s8,a0,1
    10bc:	fc009ae3          	bnez	ra,1090 <xprintf+0x78>
    10c0:	06c12083          	lw	ra,108(sp)
    10c4:	06812403          	lw	s0,104(sp)
    10c8:	06412483          	lw	s1,100(sp)
    10cc:	06012903          	lw	s2,96(sp)
    10d0:	05c12983          	lw	s3,92(sp)
    10d4:	05812a03          	lw	s4,88(sp)
    10d8:	05412a83          	lw	s5,84(sp)
    10dc:	05012b03          	lw	s6,80(sp)
    10e0:	04c12b83          	lw	s7,76(sp)
    10e4:	04812c03          	lw	s8,72(sp)
    10e8:	04412c83          	lw	s9,68(sp)
    10ec:	04012d03          	lw	s10,64(sp)
    10f0:	03c12d83          	lw	s11,60(sp)
    10f4:	09010113          	addi	sp,sp,144
    10f8:	00008067          	ret
    10fc:	80c1a583          	lw	a1,-2036(gp) # 1000078c <xfunc_out>
    1100:	fa0588e3          	beqz	a1,10b0 <xprintf+0x98>
    1104:	0ff0f513          	andi	a0,ra,255
    1108:	000580e7          	jalr	a1
    110c:	000c0513          	mv	a0,s8
    1110:	fa5ff06f          	j	10b4 <xprintf+0x9c>
    1114:	00150683          	lb	a3,1(a0)
    1118:	03000293          	li	t0,48
    111c:	58568ee3          	beq	a3,t0,1eb8 <xprintf+0xea0>
    1120:	02d00313          	li	t1,45
    1124:	5a6682e3          	beq	a3,t1,1ec8 <xprintf+0xeb0>
    1128:	00250c13          	addi	s8,a0,2
    112c:	00000a93          	li	s5,0
    1130:	fd068393          	addi	t2,a3,-48
    1134:	0ff3f413          	andi	s0,t2,255
    1138:	00900493          	li	s1,9
    113c:	00000b93          	li	s7,0
    1140:	0284e663          	bltu	s1,s0,116c <xprintf+0x154>
    1144:	002b9513          	slli	a0,s7,0x2
    1148:	01750bb3          	add	s7,a0,s7
    114c:	001b9593          	slli	a1,s7,0x1
    1150:	001c0c13          	addi	s8,s8,1
    1154:	00d58633          	add	a2,a1,a3
    1158:	fffc0683          	lb	a3,-1(s8)
    115c:	fd060b93          	addi	s7,a2,-48
    1160:	fd068813          	addi	a6,a3,-48
    1164:	0ff87893          	andi	a7,a6,255
    1168:	fd14fee3          	bgeu	s1,a7,1144 <xprintf+0x12c>
    116c:	fdf6fc93          	andi	s9,a3,-33
    1170:	04c00d13          	li	s10,76
    1174:	05ac8263          	beq	s9,s10,11b8 <xprintf+0x1a0>
    1178:	f40684e3          	beqz	a3,10c0 <xprintf+0xa8>
    117c:	06000e13          	li	t3,96
    1180:	00068f93          	mv	t6,a3
    1184:	00de5863          	bge	t3,a3,1194 <xprintf+0x17c>
    1188:	fe068e93          	addi	t4,a3,-32
    118c:	018e9f13          	slli	t5,t4,0x18
    1190:	418f5f93          	srai	t6,t5,0x18
    1194:	fbef8d93          	addi	s11,t6,-66
    1198:	0ffdf793          	andi	a5,s11,255
    119c:	01600093          	li	ra,22
    11a0:	4ef0ece3          	bltu	ra,a5,1e98 <xprintf+0xe80>
    11a4:	00812283          	lw	t0,8(sp)
    11a8:	00279713          	slli	a4,a5,0x2
    11ac:	00570333          	add	t1,a4,t0
    11b0:	00032383          	lw	t2,0(t1) # 1000 <trap_handler+0x30>
    11b4:	00038067          	jr	t2
    11b8:	000c0683          	lb	a3,0(s8)
    11bc:	004aea93          	ori	s5,s5,4
    11c0:	001c0c13          	addi	s8,s8,1
    11c4:	fb5ff06f          	j	1178 <xprintf+0x160>
    11c8:	004af893          	andi	a7,s5,4
    11cc:	004b0493          	addi	s1,s6,4
    11d0:	000b2f03          	lw	t5,0(s6)
    11d4:	64088ee3          	beqz	a7,2030 <__stack_size+0x30>
    11d8:	04400b13          	li	s6,68
    11dc:	000f0e13          	mv	t3,t5
    11e0:	016f8463          	beq	t6,s6,11e8 <xprintf+0x1d0>
    11e4:	60c0106f          	j	27f0 <__stack_size+0x7f0>
    11e8:	00000593          	li	a1,0
    11ec:	00a00e93          	li	t4,10
    11f0:	000f5863          	bgez	t5,1200 <xprintf+0x1e8>
    11f4:	41e00e33          	neg	t3,t5
    11f8:	008aea93          	ori	s5,s5,8
    11fc:	00800593          	li	a1,8
    1200:	07800513          	li	a0,120
    1204:	00700d13          	li	s10,7
    1208:	00a69463          	bne	a3,a0,1210 <xprintf+0x1f8>
    120c:	02700d13          	li	s10,39
    1210:	03de7633          	remu	a2,t3,t4
    1214:	00900813          	li	a6,9
    1218:	03de5433          	divu	s0,t3,t4
    121c:	24c876e3          	bgeu	a6,a2,1c68 <xprintf+0xc50>
    1220:	00cd0cb3          	add	s9,s10,a2
    1224:	0ffcf693          	andi	a3,s9,255
    1228:	00048b13          	mv	s6,s1
    122c:	03068493          	addi	s1,a3,48
    1230:	02910023          	sb	s1,32(sp)
    1234:	25de64e3          	bltu	t3,t4,1c7c <xprintf+0xc64>
    1238:	00900f13          	li	t5,9
    123c:	03d47e33          	remu	t3,s0,t4
    1240:	03d458b3          	divu	a7,s0,t4
    1244:	0ffe7f93          	andi	t6,t3,255
    1248:	01cf7663          	bgeu	t5,t3,1254 <xprintf+0x23c>
    124c:	01cd0db3          	add	s11,s10,t3
    1250:	0ffdff93          	andi	t6,s11,255
    1254:	030f8093          	addi	ra,t6,48
    1258:	021100a3          	sb	ra,33(sp)
    125c:	01d47463          	bgeu	s0,t4,1264 <xprintf+0x24c>
    1260:	4000106f          	j	2660 <__stack_size+0x660>
    1264:	00900713          	li	a4,9
    1268:	03d8f2b3          	remu	t0,a7,t4
    126c:	03d8d7b3          	divu	a5,a7,t4
    1270:	0ff2f393          	andi	t2,t0,255
    1274:	00577663          	bgeu	a4,t0,1280 <xprintf+0x268>
    1278:	005d0333          	add	t1,s10,t0
    127c:	0ff37393          	andi	t2,t1,255
    1280:	03038513          	addi	a0,t2,48
    1284:	02a10123          	sb	a0,34(sp)
    1288:	01d8f463          	bgeu	a7,t4,1290 <xprintf+0x278>
    128c:	3e00106f          	j	266c <__stack_size+0x66c>
    1290:	00900813          	li	a6,9
    1294:	03d7f433          	remu	s0,a5,t4
    1298:	03d7dcb3          	divu	s9,a5,t4
    129c:	0ff47693          	andi	a3,s0,255
    12a0:	00887663          	bgeu	a6,s0,12ac <xprintf+0x294>
    12a4:	008d0633          	add	a2,s10,s0
    12a8:	0ff67693          	andi	a3,a2,255
    12ac:	03068493          	addi	s1,a3,48
    12b0:	029101a3          	sb	s1,35(sp)
    12b4:	01d7f463          	bgeu	a5,t4,12bc <xprintf+0x2a4>
    12b8:	3d80106f          	j	2690 <__stack_size+0x690>
    12bc:	00900e13          	li	t3,9
    12c0:	03dcff33          	remu	t5,s9,t4
    12c4:	03dcddb3          	divu	s11,s9,t4
    12c8:	0fff7f93          	andi	t6,t5,255
    12cc:	01ee7663          	bgeu	t3,t5,12d8 <xprintf+0x2c0>
    12d0:	01ed08b3          	add	a7,s10,t5
    12d4:	0ff8ff93          	andi	t6,a7,255
    12d8:	030f8093          	addi	ra,t6,48
    12dc:	02110223          	sb	ra,36(sp)
    12e0:	01dcf463          	bgeu	s9,t4,12e8 <xprintf+0x2d0>
    12e4:	3b80106f          	j	269c <__stack_size+0x69c>
    12e8:	00900713          	li	a4,9
    12ec:	03ddf2b3          	remu	t0,s11,t4
    12f0:	03ddd7b3          	divu	a5,s11,t4
    12f4:	0ff2f393          	andi	t2,t0,255
    12f8:	00577663          	bgeu	a4,t0,1304 <xprintf+0x2ec>
    12fc:	005d0333          	add	t1,s10,t0
    1300:	0ff37393          	andi	t2,t1,255
    1304:	03038513          	addi	a0,t2,48
    1308:	02a102a3          	sb	a0,37(sp)
    130c:	01ddf463          	bgeu	s11,t4,1314 <xprintf+0x2fc>
    1310:	3b00106f          	j	26c0 <__stack_size+0x6c0>
    1314:	00900413          	li	s0,9
    1318:	03d7fcb3          	remu	s9,a5,t4
    131c:	03d7d833          	divu	a6,a5,t4
    1320:	0ffcf693          	andi	a3,s9,255
    1324:	01947663          	bgeu	s0,s9,1330 <xprintf+0x318>
    1328:	019d0633          	add	a2,s10,s9
    132c:	0ff67693          	andi	a3,a2,255
    1330:	03068493          	addi	s1,a3,48
    1334:	02910323          	sb	s1,38(sp)
    1338:	01d7f463          	bgeu	a5,t4,1340 <xprintf+0x328>
    133c:	3900106f          	j	26cc <__stack_size+0x6cc>
    1340:	00900e13          	li	t3,9
    1344:	03d87f33          	remu	t5,a6,t4
    1348:	03d85db3          	divu	s11,a6,t4
    134c:	0fff7f93          	andi	t6,t5,255
    1350:	01ee7663          	bgeu	t3,t5,135c <xprintf+0x344>
    1354:	01ed08b3          	add	a7,s10,t5
    1358:	0ff8ff93          	andi	t6,a7,255
    135c:	030f8093          	addi	ra,t6,48
    1360:	021103a3          	sb	ra,39(sp)
    1364:	01d87463          	bgeu	a6,t4,136c <xprintf+0x354>
    1368:	3a00106f          	j	2708 <__stack_size+0x708>
    136c:	00900713          	li	a4,9
    1370:	03ddf2b3          	remu	t0,s11,t4
    1374:	03ddd7b3          	divu	a5,s11,t4
    1378:	0ff2f393          	andi	t2,t0,255
    137c:	00577663          	bgeu	a4,t0,1388 <xprintf+0x370>
    1380:	005d0333          	add	t1,s10,t0
    1384:	0ff37393          	andi	t2,t1,255
    1388:	03038513          	addi	a0,t2,48
    138c:	02a10423          	sb	a0,40(sp)
    1390:	01ddf463          	bgeu	s11,t4,1398 <xprintf+0x380>
    1394:	3800106f          	j	2714 <__stack_size+0x714>
    1398:	00900413          	li	s0,9
    139c:	03d7fcb3          	remu	s9,a5,t4
    13a0:	03d7d4b3          	divu	s1,a5,t4
    13a4:	0ffcf613          	andi	a2,s9,255
    13a8:	01947663          	bgeu	s0,s9,13b4 <xprintf+0x39c>
    13ac:	019d0833          	add	a6,s10,s9
    13b0:	0ff87613          	andi	a2,a6,255
    13b4:	03060693          	addi	a3,a2,48
    13b8:	02d104a3          	sb	a3,41(sp)
    13bc:	01d7f463          	bgeu	a5,t4,13c4 <xprintf+0x3ac>
    13c0:	3780106f          	j	2738 <__stack_size+0x738>
    13c4:	00900e13          	li	t3,9
    13c8:	03d4ff33          	remu	t5,s1,t4
    13cc:	03d4ddb3          	divu	s11,s1,t4
    13d0:	0fff7f93          	andi	t6,t5,255
    13d4:	01ee7663          	bgeu	t3,t5,13e0 <xprintf+0x3c8>
    13d8:	01ed08b3          	add	a7,s10,t5
    13dc:	0ff8ff93          	andi	t6,a7,255
    13e0:	030f8093          	addi	ra,t6,48
    13e4:	02110523          	sb	ra,42(sp)
    13e8:	01d4f463          	bgeu	s1,t4,13f0 <xprintf+0x3d8>
    13ec:	3580106f          	j	2744 <__stack_size+0x744>
    13f0:	00900713          	li	a4,9
    13f4:	03ddf2b3          	remu	t0,s11,t4
    13f8:	03ddd7b3          	divu	a5,s11,t4
    13fc:	0ff2f393          	andi	t2,t0,255
    1400:	00577663          	bgeu	a4,t0,140c <xprintf+0x3f4>
    1404:	005d0333          	add	t1,s10,t0
    1408:	0ff37393          	andi	t2,t1,255
    140c:	03038513          	addi	a0,t2,48
    1410:	02a105a3          	sb	a0,43(sp)
    1414:	01ddf463          	bgeu	s11,t4,141c <xprintf+0x404>
    1418:	3500106f          	j	2768 <__stack_size+0x768>
    141c:	00900413          	li	s0,9
    1420:	03d7fcb3          	remu	s9,a5,t4
    1424:	03d7d4b3          	divu	s1,a5,t4
    1428:	0ffcf613          	andi	a2,s9,255
    142c:	01947663          	bgeu	s0,s9,1438 <xprintf+0x420>
    1430:	019d0833          	add	a6,s10,s9
    1434:	0ff87613          	andi	a2,a6,255
    1438:	03060693          	addi	a3,a2,48
    143c:	02d10623          	sb	a3,44(sp)
    1440:	01d7f463          	bgeu	a5,t4,1448 <xprintf+0x430>
    1444:	3300106f          	j	2774 <__stack_size+0x774>
    1448:	00900e13          	li	t3,9
    144c:	03d4ff33          	remu	t5,s1,t4
    1450:	03d4ddb3          	divu	s11,s1,t4
    1454:	0fff7f93          	andi	t6,t5,255
    1458:	01ee7663          	bgeu	t3,t5,1464 <xprintf+0x44c>
    145c:	01ed08b3          	add	a7,s10,t5
    1460:	0ff8ff93          	andi	t6,a7,255
    1464:	030f8093          	addi	ra,t6,48
    1468:	021106a3          	sb	ra,45(sp)
    146c:	01d4f463          	bgeu	s1,t4,1474 <xprintf+0x45c>
    1470:	31c0106f          	j	278c <__stack_size+0x78c>
    1474:	00900713          	li	a4,9
    1478:	03ddf2b3          	remu	t0,s11,t4
    147c:	03ddd7b3          	divu	a5,s11,t4
    1480:	0ff2f393          	andi	t2,t0,255
    1484:	00577663          	bgeu	a4,t0,1490 <xprintf+0x478>
    1488:	005d0333          	add	t1,s10,t0
    148c:	0ff37393          	andi	t2,t1,255
    1490:	03038513          	addi	a0,t2,48
    1494:	02a10723          	sb	a0,46(sp)
    1498:	01ddf463          	bgeu	s11,t4,14a0 <xprintf+0x488>
    149c:	3140106f          	j	27b0 <__stack_size+0x7b0>
    14a0:	00900413          	li	s0,9
    14a4:	03d7fcb3          	remu	s9,a5,t4
    14a8:	01947463          	bgeu	s0,s9,14b0 <xprintf+0x498>
    14ac:	019d0cb3          	add	s9,s10,s9
    14b0:	0ffcfd13          	andi	s10,s9,255
    14b4:	030d0493          	addi	s1,s10,48
    14b8:	029107a3          	sb	s1,47(sp)
    14bc:	00f00e93          	li	t4,15
    14c0:	01000493          	li	s1,16
    14c4:	00058c63          	beqz	a1,14dc <xprintf+0x4c4>
    14c8:	03010593          	addi	a1,sp,48
    14cc:	00958833          	add	a6,a1,s1
    14d0:	02d00613          	li	a2,45
    14d4:	fec80823          	sb	a2,-16(a6)
    14d8:	002e8493          	addi	s1,t4,2
    14dc:	001af693          	andi	a3,s5,1
    14e0:	40d00e33          	neg	t3,a3
    14e4:	010e7f13          	andi	t5,t3,16
    14e8:	020f0c93          	addi	s9,t5,32
    14ec:	409b8db3          	sub	s11,s7,s1
    14f0:	0ffcf893          	andi	a7,s9,255
    14f4:	80818413          	addi	s0,gp,-2040 # 10000788 <__bss_start>
    14f8:	007df293          	andi	t0,s11,7
    14fc:	01112223          	sw	a7,4(sp)
    1500:	002afa93          	andi	s5,s5,2
    1504:	00042783          	lw	a5,0(s0)
    1508:	00048d93          	mv	s11,s1
    150c:	0e028863          	beqz	t0,15fc <xprintf+0x5e4>
    1510:	00148d13          	addi	s10,s1,1
    1514:	1a0a9063          	bnez	s5,16b4 <xprintf+0x69c>
    1518:	3374f4e3          	bgeu	s1,s7,2040 <__stack_size+0x40>
    151c:	40078ae3          	beqz	a5,2130 <__stack_size+0x130>
    1520:	00178093          	addi	ra,a5,1
    1524:	01978023          	sb	s9,0(a5)
    1528:	00142023          	sw	ra,0(s0)
    152c:	00008793          	mv	a5,ra
    1530:	00100713          	li	a4,1
    1534:	000d0d93          	mv	s11,s10
    1538:	0ce28263          	beq	t0,a4,15fc <xprintf+0x5e4>
    153c:	00200313          	li	t1,2
    1540:	0a628263          	beq	t0,t1,15e4 <xprintf+0x5cc>
    1544:	00300393          	li	t2,3
    1548:	08728263          	beq	t0,t2,15cc <xprintf+0x5b4>
    154c:	00400513          	li	a0,4
    1550:	06a28263          	beq	t0,a0,15b4 <xprintf+0x59c>
    1554:	00500e93          	li	t4,5
    1558:	05d28263          	beq	t0,t4,159c <xprintf+0x584>
    155c:	00600593          	li	a1,6
    1560:	02b28063          	beq	t0,a1,1580 <xprintf+0x568>
    1564:	001d0d93          	addi	s11,s10,1
    1568:	00079463          	bnez	a5,1570 <xprintf+0x558>
    156c:	0180106f          	j	2584 <__stack_size+0x584>
    1570:	00178613          	addi	a2,a5,1
    1574:	01978023          	sb	s9,0(a5)
    1578:	00c42023          	sw	a2,0(s0)
    157c:	00060793          	mv	a5,a2
    1580:	001d8d93          	addi	s11,s11,1 # 10000001 <_data+0x1>
    1584:	00079463          	bnez	a5,158c <xprintf+0x574>
    1588:	05c0106f          	j	25e4 <__stack_size+0x5e4>
    158c:	00178e13          	addi	t3,a5,1
    1590:	01978023          	sb	s9,0(a5)
    1594:	01c42023          	sw	t3,0(s0)
    1598:	000e0793          	mv	a5,t3
    159c:	001d8d93          	addi	s11,s11,1
    15a0:	600788e3          	beqz	a5,23b0 <__stack_size+0x3b0>
    15a4:	00178893          	addi	a7,a5,1
    15a8:	01978023          	sb	s9,0(a5)
    15ac:	01142023          	sw	a7,0(s0)
    15b0:	00088793          	mv	a5,a7
    15b4:	001d8d93          	addi	s11,s11,1
    15b8:	58078ce3          	beqz	a5,2350 <__stack_size+0x350>
    15bc:	00178f93          	addi	t6,a5,1
    15c0:	01978023          	sb	s9,0(a5)
    15c4:	01f42023          	sw	t6,0(s0)
    15c8:	000f8793          	mv	a5,t6
    15cc:	001d8d93          	addi	s11,s11,1
    15d0:	4e0782e3          	beqz	a5,22b4 <__stack_size+0x2b4>
    15d4:	00178293          	addi	t0,a5,1
    15d8:	01978023          	sb	s9,0(a5)
    15dc:	00542023          	sw	t0,0(s0)
    15e0:	00028793          	mv	a5,t0
    15e4:	001d8d93          	addi	s11,s11,1
    15e8:	48078ee3          	beqz	a5,2284 <__stack_size+0x284>
    15ec:	00178093          	addi	ra,a5,1
    15f0:	01978023          	sb	s9,0(a5)
    15f4:	00142023          	sw	ra,0(s0)
    15f8:	00008793          	mv	a5,ra
    15fc:	001d8d13          	addi	s10,s11,1
    1600:	0a0a9a63          	bnez	s5,16b4 <xprintf+0x69c>
    1604:	237dfee3          	bgeu	s11,s7,2040 <__stack_size+0x40>
    1608:	36078ae3          	beqz	a5,217c <__stack_size+0x17c>
    160c:	00178513          	addi	a0,a5,1
    1610:	01978023          	sb	s9,0(a5)
    1614:	00a42023          	sw	a0,0(s0)
    1618:	00050793          	mv	a5,a0
    161c:	36078ce3          	beqz	a5,2194 <__stack_size+0x194>
    1620:	00178813          	addi	a6,a5,1
    1624:	01978023          	sb	s9,0(a5)
    1628:	01042023          	sw	a6,0(s0)
    162c:	00080793          	mv	a5,a6
    1630:	36078ee3          	beqz	a5,21ac <__stack_size+0x1ac>
    1634:	00178e13          	addi	t3,a5,1
    1638:	01978023          	sb	s9,0(a5)
    163c:	01c42023          	sw	t3,0(s0)
    1640:	000e0793          	mv	a5,t3
    1644:	380780e3          	beqz	a5,21c4 <__stack_size+0x1c4>
    1648:	00178693          	addi	a3,a5,1
    164c:	01978023          	sb	s9,0(a5)
    1650:	00d42023          	sw	a3,0(s0)
    1654:	00068793          	mv	a5,a3
    1658:	380782e3          	beqz	a5,21dc <__stack_size+0x1dc>
    165c:	00178713          	addi	a4,a5,1
    1660:	01978023          	sb	s9,0(a5)
    1664:	00e42023          	sw	a4,0(s0)
    1668:	00070793          	mv	a5,a4
    166c:	380784e3          	beqz	a5,21f4 <__stack_size+0x1f4>
    1670:	00178293          	addi	t0,a5,1
    1674:	01978023          	sb	s9,0(a5)
    1678:	00542023          	sw	t0,0(s0)
    167c:	00028793          	mv	a5,t0
    1680:	380786e3          	beqz	a5,220c <__stack_size+0x20c>
    1684:	00178093          	addi	ra,a5,1
    1688:	01978023          	sb	s9,0(a5)
    168c:	00142023          	sw	ra,0(s0)
    1690:	00008793          	mv	a5,ra
    1694:	380788e3          	beqz	a5,2224 <__stack_size+0x224>
    1698:	00178e93          	addi	t4,a5,1
    169c:	01978023          	sb	s9,0(a5)
    16a0:	01d42023          	sw	t4,0(s0)
    16a4:	000e8793          	mv	a5,t4
    16a8:	007d0d93          	addi	s11,s10,7
    16ac:	001d8d13          	addi	s10,s11,1
    16b0:	f40a8ae3          	beqz	s5,1604 <xprintf+0x5ec>
    16b4:	fff48c93          	addi	s9,s1,-1
    16b8:	03010a93          	addi	s5,sp,48
    16bc:	019a83b3          	add	t2,s5,s9
    16c0:	ff038503          	lb	a0,-16(t2)
    16c4:	18078ae3          	beqz	a5,2058 <__stack_size+0x58>
    16c8:	00178e93          	addi	t4,a5,1
    16cc:	01d42023          	sw	t4,0(s0)
    16d0:	00a78023          	sb	a0,0(a5)
    16d4:	240c8663          	beqz	s9,1920 <xprintf+0x908>
    16d8:	00042583          	lw	a1,0(s0)
    16dc:	ffe48d13          	addi	s10,s1,-2
    16e0:	03010813          	addi	a6,sp,48
    16e4:	01a80633          	add	a2,a6,s10
    16e8:	ff060e03          	lb	t3,-16(a2)
    16ec:	26058ce3          	beqz	a1,2164 <__stack_size+0x164>
    16f0:	00158293          	addi	t0,a1,1
    16f4:	00542023          	sw	t0,0(s0)
    16f8:	01c58023          	sb	t3,0(a1)
    16fc:	220d0263          	beqz	s10,1920 <xprintf+0x908>
    1700:	00042303          	lw	t1,0(s0)
    1704:	ffd48493          	addi	s1,s1,-3
    1708:	03010093          	addi	ra,sp,48
    170c:	00908cb3          	add	s9,ra,s1
    1710:	ff0c8703          	lb	a4,-16(s9)
    1714:	34030ce3          	beqz	t1,226c <__stack_size+0x26c>
    1718:	00130793          	addi	a5,t1,1
    171c:	00f42023          	sw	a5,0(s0)
    1720:	00e30023          	sb	a4,0(t1)
    1724:	1e048e63          	beqz	s1,1920 <xprintf+0x908>
    1728:	00042583          	lw	a1,0(s0)
    172c:	fff48d13          	addi	s10,s1,-1
    1730:	03010813          	addi	a6,sp,48
    1734:	01a80633          	add	a2,a6,s10
    1738:	ff060e83          	lb	t4,-16(a2)
    173c:	360580e3          	beqz	a1,229c <__stack_size+0x29c>
    1740:	00158f13          	addi	t5,a1,1
    1744:	01e42023          	sw	t5,0(s0)
    1748:	01d58023          	sb	t4,0(a1)
    174c:	1c0d0a63          	beqz	s10,1920 <xprintf+0x908>
    1750:	00042283          	lw	t0,0(s0)
    1754:	fffd0493          	addi	s1,s10,-1
    1758:	03010713          	addi	a4,sp,48
    175c:	00970333          	add	t1,a4,s1
    1760:	ff030f83          	lb	t6,-16(t1)
    1764:	3a028ee3          	beqz	t0,2320 <__stack_size+0x320>
    1768:	00128513          	addi	a0,t0,1
    176c:	00a42023          	sw	a0,0(s0)
    1770:	01f28023          	sb	t6,0(t0)
    1774:	1a048663          	beqz	s1,1920 <xprintf+0x908>
    1778:	00042e83          	lw	t4,0(s0)
    177c:	fff48a93          	addi	s5,s1,-1
    1780:	03010793          	addi	a5,sp,48
    1784:	015785b3          	add	a1,a5,s5
    1788:	ff058383          	lb	t2,-16(a1)
    178c:	3a0e86e3          	beqz	t4,2338 <__stack_size+0x338>
    1790:	001e8693          	addi	a3,t4,1
    1794:	00d42023          	sw	a3,0(s0)
    1798:	007e8023          	sb	t2,0(t4)
    179c:	180a8263          	beqz	s5,1920 <xprintf+0x908>
    17a0:	00042f83          	lw	t6,0(s0)
    17a4:	fffa8493          	addi	s1,s5,-1
    17a8:	03010f13          	addi	t5,sp,48
    17ac:	009f02b3          	add	t0,t5,s1
    17b0:	ff028883          	lb	a7,-16(t0)
    17b4:	3a0f8ae3          	beqz	t6,2368 <__stack_size+0x368>
    17b8:	001f8d13          	addi	s10,t6,1
    17bc:	01a42023          	sw	s10,0(s0)
    17c0:	011f8023          	sb	a7,0(t6)
    17c4:	14048e63          	beqz	s1,1920 <xprintf+0x908>
    17c8:	00042383          	lw	t2,0(s0)
    17cc:	fff48c93          	addi	s9,s1,-1
    17d0:	03010513          	addi	a0,sp,48
    17d4:	01950eb3          	add	t4,a0,s9
    17d8:	ff0e8083          	lb	ra,-16(t4)
    17dc:	3a038ee3          	beqz	t2,2398 <__stack_size+0x398>
    17e0:	00138e13          	addi	t3,t2,1
    17e4:	01c42023          	sw	t3,0(s0)
    17e8:	00138023          	sb	ra,0(t2)
    17ec:	120c8a63          	beqz	s9,1920 <xprintf+0x908>
    17f0:	00042883          	lw	a7,0(s0)
    17f4:	fffc8493          	addi	s1,s9,-1
    17f8:	03010693          	addi	a3,sp,48
    17fc:	00968fb3          	add	t6,a3,s1
    1800:	ff0f8603          	lb	a2,-16(t6)
    1804:	3c0882e3          	beqz	a7,23c8 <__stack_size+0x3c8>
    1808:	00188f13          	addi	t5,a7,1
    180c:	01e42023          	sw	t5,0(s0)
    1810:	00c88023          	sb	a2,0(a7)
    1814:	10048663          	beqz	s1,1920 <xprintf+0x908>
    1818:	00042083          	lw	ra,0(s0)
    181c:	fff48c93          	addi	s9,s1,-1
    1820:	03010d13          	addi	s10,sp,48
    1824:	019d03b3          	add	t2,s10,s9
    1828:	ff038a83          	lb	s5,-16(t2)
    182c:	48008ce3          	beqz	ra,24c4 <__stack_size+0x4c4>
    1830:	00108813          	addi	a6,ra,1
    1834:	01042023          	sw	a6,0(s0)
    1838:	01508023          	sb	s5,0(ra)
    183c:	0e0c8263          	beqz	s9,1920 <xprintf+0x908>
    1840:	00042603          	lw	a2,0(s0)
    1844:	fffc8493          	addi	s1,s9,-1
    1848:	03010e13          	addi	t3,sp,48
    184c:	009e08b3          	add	a7,t3,s1
    1850:	ff088583          	lb	a1,-16(a7)
    1854:	4c0604e3          	beqz	a2,251c <__stack_size+0x51c>
    1858:	00160313          	addi	t1,a2,1
    185c:	00642023          	sw	t1,0(s0)
    1860:	00b60023          	sb	a1,0(a2)
    1864:	0a048e63          	beqz	s1,1920 <xprintf+0x908>
    1868:	00042a83          	lw	s5,0(s0)
    186c:	fff48c93          	addi	s9,s1,-1
    1870:	03010f13          	addi	t5,sp,48
    1874:	019f00b3          	add	ra,t5,s9
    1878:	ff008283          	lb	t0,-16(ra)
    187c:	580a82e3          	beqz	s5,2600 <__stack_size+0x600>
    1880:	001a8793          	addi	a5,s5,1
    1884:	00f42023          	sw	a5,0(s0)
    1888:	005a8023          	sb	t0,0(s5)
    188c:	080c8a63          	beqz	s9,1920 <xprintf+0x908>
    1890:	00042583          	lw	a1,0(s0)
    1894:	fffc8493          	addi	s1,s9,-1
    1898:	03010813          	addi	a6,sp,48
    189c:	00980633          	add	a2,a6,s1
    18a0:	ff060503          	lb	a0,-16(a2)
    18a4:	56058ae3          	beqz	a1,2618 <__stack_size+0x618>
    18a8:	00158713          	addi	a4,a1,1
    18ac:	00e42023          	sw	a4,0(s0)
    18b0:	00a58023          	sb	a0,0(a1)
    18b4:	06048663          	beqz	s1,1920 <xprintf+0x908>
    18b8:	00042283          	lw	t0,0(s0)
    18bc:	fff48c93          	addi	s9,s1,-1
    18c0:	03010313          	addi	t1,sp,48
    18c4:	01930ab3          	add	s5,t1,s9
    18c8:	ff0a8f83          	lb	t6,-16(s5)
    18cc:	560282e3          	beqz	t0,2630 <__stack_size+0x630>
    18d0:	00128f13          	addi	t5,t0,1
    18d4:	01e42023          	sw	t5,0(s0)
    18d8:	01f28023          	sb	t6,0(t0)
    18dc:	040c8263          	beqz	s9,1920 <xprintf+0x908>
    18e0:	00042e83          	lw	t4,0(s0)
    18e4:	fffc8493          	addi	s1,s9,-1
    18e8:	03010513          	addi	a0,sp,48
    18ec:	00950cb3          	add	s9,a0,s1
    18f0:	ff0c8383          	lb	t2,-16(s9)
    18f4:	540e8ae3          	beqz	t4,2648 <__stack_size+0x648>
    18f8:	001e8813          	addi	a6,t4,1
    18fc:	01042023          	sw	a6,0(s0)
    1900:	007e8023          	sb	t2,0(t4)
    1904:	00048e63          	beqz	s1,1920 <xprintf+0x908>
    1908:	00042603          	lw	a2,0(s0)
    190c:	fefc8583          	lb	a1,-17(s9)
    1910:	44060ee3          	beqz	a2,256c <__stack_size+0x56c>
    1914:	00160893          	addi	a7,a2,1
    1918:	01142023          	sw	a7,0(s0)
    191c:	00b60023          	sb	a1,0(a2)
    1920:	41bb86b3          	sub	a3,s7,s11
    1924:	0076fa93          	andi	s5,a3,7
    1928:	0e0a8063          	beqz	s5,1a08 <xprintf+0x9f0>
    192c:	f97df263          	bgeu	s11,s7,10b0 <xprintf+0x98>
    1930:	00042f83          	lw	t6,0(s0)
    1934:	000f8ee3          	beqz	t6,2150 <__stack_size+0x150>
    1938:	001f8293          	addi	t0,t6,1
    193c:	00542023          	sw	t0,0(s0)
    1940:	013f8023          	sb	s3,0(t6)
    1944:	00100313          	li	t1,1
    1948:	001d8d93          	addi	s11,s11,1
    194c:	0a6a8e63          	beq	s5,t1,1a08 <xprintf+0x9f0>
    1950:	00200d13          	li	s10,2
    1954:	09aa8e63          	beq	s5,s10,19f0 <xprintf+0x9d8>
    1958:	00300493          	li	s1,3
    195c:	069a8e63          	beq	s5,s1,19d8 <xprintf+0x9c0>
    1960:	00400093          	li	ra,4
    1964:	041a8e63          	beq	s5,ra,19c0 <xprintf+0x9a8>
    1968:	00500c93          	li	s9,5
    196c:	039a8e63          	beq	s5,s9,19a8 <xprintf+0x990>
    1970:	00600393          	li	t2,6
    1974:	007a8e63          	beq	s5,t2,1990 <xprintf+0x978>
    1978:	00042f03          	lw	t5,0(s0)
    197c:	420f02e3          	beqz	t5,25a0 <__stack_size+0x5a0>
    1980:	001f0513          	addi	a0,t5,1
    1984:	00a42023          	sw	a0,0(s0)
    1988:	013f0023          	sb	s3,0(t5)
    198c:	001d8d93          	addi	s11,s11,1
    1990:	00042783          	lw	a5,0(s0)
    1994:	34078ee3          	beqz	a5,24f0 <__stack_size+0x4f0>
    1998:	00178813          	addi	a6,a5,1
    199c:	01042023          	sw	a6,0(s0)
    19a0:	01378023          	sb	s3,0(a5)
    19a4:	001d8d93          	addi	s11,s11,1
    19a8:	00042603          	lw	a2,0(s0)
    19ac:	1c060ae3          	beqz	a2,2380 <__stack_size+0x380>
    19b0:	00160893          	addi	a7,a2,1
    19b4:	01142023          	sw	a7,0(s0)
    19b8:	01360023          	sb	s3,0(a2)
    19bc:	001d8d93          	addi	s11,s11,1
    19c0:	00042a83          	lw	s5,0(s0)
    19c4:	140a82e3          	beqz	s5,2308 <__stack_size+0x308>
    19c8:	001a8f93          	addi	t6,s5,1
    19cc:	01f42023          	sw	t6,0(s0)
    19d0:	013a8023          	sb	s3,0(s5)
    19d4:	001d8d93          	addi	s11,s11,1
    19d8:	00042703          	lw	a4,0(s0)
    19dc:	06070ee3          	beqz	a4,2258 <__stack_size+0x258>
    19e0:	00170293          	addi	t0,a4,1
    19e4:	00542023          	sw	t0,0(s0)
    19e8:	01370023          	sb	s3,0(a4)
    19ec:	001d8d93          	addi	s11,s11,1
    19f0:	00042d03          	lw	s10,0(s0)
    19f4:	040d06e3          	beqz	s10,2240 <__stack_size+0x240>
    19f8:	001d0093          	addi	ra,s10,1
    19fc:	00142023          	sw	ra,0(s0)
    1a00:	013d0023          	sb	s3,0(s10)
    1a04:	001d8d93          	addi	s11,s11,1
    1a08:	eb7df463          	bgeu	s11,s7,10b0 <xprintf+0x98>
    1a0c:	00042c83          	lw	s9,0(s0)
    1a10:	640c8e63          	beqz	s9,206c <__stack_size+0x6c>
    1a14:	001c8f13          	addi	t5,s9,1
    1a18:	01e42023          	sw	t5,0(s0)
    1a1c:	013c8023          	sb	s3,0(s9)
    1a20:	00042e83          	lw	t4,0(s0)
    1a24:	001d8d93          	addi	s11,s11,1
    1a28:	660e8063          	beqz	t4,2088 <__stack_size+0x88>
    1a2c:	001e8513          	addi	a0,t4,1
    1a30:	00a42023          	sw	a0,0(s0)
    1a34:	013e8023          	sb	s3,0(t4)
    1a38:	00042583          	lw	a1,0(s0)
    1a3c:	66058263          	beqz	a1,20a0 <__stack_size+0xa0>
    1a40:	00158613          	addi	a2,a1,1
    1a44:	00c42023          	sw	a2,0(s0)
    1a48:	01358023          	sb	s3,0(a1)
    1a4c:	00042e03          	lw	t3,0(s0)
    1a50:	660e0463          	beqz	t3,20b8 <__stack_size+0xb8>
    1a54:	001e0a93          	addi	s5,t3,1
    1a58:	01542023          	sw	s5,0(s0)
    1a5c:	013e0023          	sb	s3,0(t3)
    1a60:	00042683          	lw	a3,0(s0)
    1a64:	66068663          	beqz	a3,20d0 <__stack_size+0xd0>
    1a68:	00168713          	addi	a4,a3,1
    1a6c:	00e42023          	sw	a4,0(s0)
    1a70:	01368023          	sb	s3,0(a3)
    1a74:	00042303          	lw	t1,0(s0)
    1a78:	66030863          	beqz	t1,20e8 <__stack_size+0xe8>
    1a7c:	00130293          	addi	t0,t1,1
    1a80:	00542023          	sw	t0,0(s0)
    1a84:	01330023          	sb	s3,0(t1)
    1a88:	00042483          	lw	s1,0(s0)
    1a8c:	66048a63          	beqz	s1,2100 <__stack_size+0x100>
    1a90:	00148093          	addi	ra,s1,1
    1a94:	00142023          	sw	ra,0(s0)
    1a98:	01348023          	sb	s3,0(s1)
    1a9c:	00042383          	lw	t2,0(s0)
    1aa0:	66038c63          	beqz	t2,2118 <__stack_size+0x118>
    1aa4:	00138e93          	addi	t4,t2,1
    1aa8:	01d42023          	sw	t4,0(s0)
    1aac:	01338023          	sb	s3,0(t2)
    1ab0:	007d8d93          	addi	s11,s11,7
    1ab4:	f55ff06f          	j	1a08 <xprintf+0x9f0>
    1ab8:	80818f93          	addi	t6,gp,-2040 # 10000788 <__bss_start>
    1abc:	000fa083          	lw	ra,0(t6)
    1ac0:	004b0713          	addi	a4,s6,4
    1ac4:	000b2283          	lw	t0,0(s6)
    1ac8:	44008a63          	beqz	ra,1f1c <xprintf+0xf04>
    1acc:	00108313          	addi	t1,ra,1
    1ad0:	006fa023          	sw	t1,0(t6)
    1ad4:	00508023          	sb	t0,0(ra)
    1ad8:	00070b13          	mv	s6,a4
    1adc:	000c0513          	mv	a0,s8
    1ae0:	dd4ff06f          	j	10b4 <xprintf+0x9c>
    1ae4:	004af413          	andi	s0,s5,4
    1ae8:	004b0493          	addi	s1,s6,4
    1aec:	000b2e03          	lw	t3,0(s6)
    1af0:	40040e63          	beqz	s0,1f0c <xprintf+0xef4>
    1af4:	00000593          	li	a1,0
    1af8:	01000e93          	li	t4,16
    1afc:	f04ff06f          	j	1200 <xprintf+0x1e8>
    1b00:	000b2483          	lw	s1,0(s6)
    1b04:	00000413          	li	s0,0
    1b08:	004b0b13          	addi	s6,s6,4
    1b0c:	00048683          	lb	a3,0(s1)
    1b10:	00068a63          	beqz	a3,1b24 <xprintf+0xb0c>
    1b14:	00140413          	addi	s0,s0,1
    1b18:	00848533          	add	a0,s1,s0
    1b1c:	00050603          	lb	a2,0(a0)
    1b20:	fe061ae3          	bnez	a2,1b14 <xprintf+0xafc>
    1b24:	408b8833          	sub	a6,s7,s0
    1b28:	00387d13          	andi	s10,a6,3
    1b2c:	002afa93          	andi	s5,s5,2
    1b30:	060d0a63          	beqz	s10,1ba4 <xprintf+0xb8c>
    1b34:	00140c93          	addi	s9,s0,1
    1b38:	160a9063          	bnez	s5,1c98 <xprintf+0xc80>
    1b3c:	0b7472e3          	bgeu	s0,s7,23e0 <__stack_size+0x3e0>
    1b40:	80818893          	addi	a7,gp,-2040 # 10000788 <__bss_start>
    1b44:	0008ae03          	lw	t3,0(a7)
    1b48:	180e0ae3          	beqz	t3,24dc <__stack_size+0x4dc>
    1b4c:	001e0f13          	addi	t5,t3,1
    1b50:	01e8a023          	sw	t5,0(a7)
    1b54:	013e0023          	sb	s3,0(t3)
    1b58:	00100f93          	li	t6,1
    1b5c:	000c8413          	mv	s0,s9
    1b60:	05fd0263          	beq	s10,t6,1ba4 <xprintf+0xb8c>
    1b64:	00200d93          	li	s11,2
    1b68:	03bd0063          	beq	s10,s11,1b88 <xprintf+0xb70>
    1b6c:	80818093          	addi	ra,gp,-2040 # 10000788 <__bss_start>
    1b70:	0000a783          	lw	a5,0(ra)
    1b74:	001c8413          	addi	s0,s9,1
    1b78:	44078ee3          	beqz	a5,27d4 <__stack_size+0x7d4>
    1b7c:	00178293          	addi	t0,a5,1
    1b80:	0050a023          	sw	t0,0(ra)
    1b84:	01378023          	sb	s3,0(a5)
    1b88:	80818313          	addi	t1,gp,-2040 # 10000788 <__bss_start>
    1b8c:	00032383          	lw	t2,0(t1)
    1b90:	00140413          	addi	s0,s0,1
    1b94:	22038ee3          	beqz	t2,25d0 <__stack_size+0x5d0>
    1b98:	00138693          	addi	a3,t2,1
    1b9c:	00d32023          	sw	a3,0(t1)
    1ba0:	01338023          	sb	s3,0(t2)
    1ba4:	00140c93          	addi	s9,s0,1
    1ba8:	0e0a9863          	bnez	s5,1c98 <xprintf+0xc80>
    1bac:	03747ae3          	bgeu	s0,s7,23e0 <__stack_size+0x3e0>
    1bb0:	80818413          	addi	s0,gp,-2040 # 10000788 <__bss_start>
    1bb4:	00042f03          	lw	t5,0(s0)
    1bb8:	700f0a63          	beqz	t5,22cc <__stack_size+0x2cc>
    1bbc:	001f0d93          	addi	s11,t5,1
    1bc0:	01b42023          	sw	s11,0(s0)
    1bc4:	013f0023          	sb	s3,0(t5)
    1bc8:	80818093          	addi	ra,gp,-2040 # 10000788 <__bss_start>
    1bcc:	0000a783          	lw	a5,0(ra)
    1bd0:	70078c63          	beqz	a5,22e8 <__stack_size+0x2e8>
    1bd4:	00178293          	addi	t0,a5,1
    1bd8:	0050a023          	sw	t0,0(ra)
    1bdc:	01378023          	sb	s3,0(a5)
    1be0:	80818313          	addi	t1,gp,-2040 # 10000788 <__bss_start>
    1be4:	00032383          	lw	t2,0(t1)
    1be8:	2e038863          	beqz	t2,1ed8 <xprintf+0xec0>
    1bec:	00138513          	addi	a0,t2,1
    1bf0:	00a32023          	sw	a0,0(t1)
    1bf4:	01338023          	sb	s3,0(t2)
    1bf8:	80818d13          	addi	s10,gp,-2040 # 10000788 <__bss_start>
    1bfc:	000d2603          	lw	a2,0(s10)
    1c00:	2e060a63          	beqz	a2,1ef4 <xprintf+0xedc>
    1c04:	00160813          	addi	a6,a2,1
    1c08:	010d2023          	sw	a6,0(s10)
    1c0c:	01360023          	sb	s3,0(a2)
    1c10:	003c8413          	addi	s0,s9,3
    1c14:	f91ff06f          	j	1ba4 <xprintf+0xb8c>
    1c18:	004afc93          	andi	s9,s5,4
    1c1c:	004b0493          	addi	s1,s6,4
    1c20:	000b2e03          	lw	t3,0(s6)
    1c24:	100c98e3          	bnez	s9,2534 <__stack_size+0x534>
    1c28:	00800e93          	li	t4,8
    1c2c:	000b2e03          	lw	t3,0(s6)
    1c30:	00000593          	li	a1,0
    1c34:	dccff06f          	j	1200 <xprintf+0x1e8>
    1c38:	004af393          	andi	t2,s5,4
    1c3c:	004b0493          	addi	s1,s6,4
    1c40:	000b2e03          	lw	t3,0(s6)
    1c44:	2c038863          	beqz	t2,1f14 <xprintf+0xefc>
    1c48:	00200e93          	li	t4,2
    1c4c:	07800593          	li	a1,120
    1c50:	00700d13          	li	s10,7
    1c54:	00b69463          	bne	a3,a1,1c5c <xprintf+0xc44>
    1c58:	02700d13          	li	s10,39
    1c5c:	03de7633          	remu	a2,t3,t4
    1c60:	00000593          	li	a1,0
    1c64:	03de5433          	divu	s0,t3,t4
    1c68:	0ff67693          	andi	a3,a2,255
    1c6c:	00048b13          	mv	s6,s1
    1c70:	03068493          	addi	s1,a3,48
    1c74:	02910023          	sb	s1,32(sp)
    1c78:	ddde7063          	bgeu	t3,t4,1238 <xprintf+0x220>
    1c7c:	00100493          	li	s1,1
    1c80:	00000e93          	li	t4,0
    1c84:	841ff06f          	j	14c4 <xprintf+0x4ac>
    1c88:	80c1ae03          	lw	t3,-2036(gp) # 1000078c <xfunc_out>
    1c8c:	000e0663          	beqz	t3,1c98 <xprintf+0xc80>
    1c90:	0ff57513          	andi	a0,a0,255
    1c94:	000e00e7          	jalr	t3
    1c98:	00048503          	lb	a0,0(s1)
    1c9c:	02050463          	beqz	a0,1cc4 <xprintf+0xcac>
    1ca0:	80818c93          	addi	s9,gp,-2040 # 10000788 <__bss_start>
    1ca4:	000ca883          	lw	a7,0(s9)
    1ca8:	00148493          	addi	s1,s1,1
    1cac:	fc088ee3          	beqz	a7,1c88 <xprintf+0xc70>
    1cb0:	00a88023          	sb	a0,0(a7)
    1cb4:	00048503          	lb	a0,0(s1)
    1cb8:	00188e93          	addi	t4,a7,1
    1cbc:	01dca023          	sw	t4,0(s9)
    1cc0:	fe0510e3          	bnez	a0,1ca0 <xprintf+0xc88>
    1cc4:	408b84b3          	sub	s1,s7,s0
    1cc8:	0074fd13          	andi	s10,s1,7
    1ccc:	0e0d0e63          	beqz	s10,1dc8 <xprintf+0xdb0>
    1cd0:	bf747063          	bgeu	s0,s7,10b0 <xprintf+0x98>
    1cd4:	80818613          	addi	a2,gp,-2040 # 10000788 <__bss_start>
    1cd8:	00062803          	lw	a6,0(a2)
    1cdc:	020806e3          	beqz	a6,2508 <__stack_size+0x508>
    1ce0:	00180c93          	addi	s9,a6,1
    1ce4:	01962023          	sw	s9,0(a2)
    1ce8:	01380023          	sb	s3,0(a6)
    1cec:	00100893          	li	a7,1
    1cf0:	00140413          	addi	s0,s0,1
    1cf4:	0d1d0a63          	beq	s10,a7,1dc8 <xprintf+0xdb0>
    1cf8:	00200e13          	li	t3,2
    1cfc:	0bcd0863          	beq	s10,t3,1dac <xprintf+0xd94>
    1d00:	00300e93          	li	t4,3
    1d04:	09dd0663          	beq	s10,t4,1d90 <xprintf+0xd78>
    1d08:	00400f13          	li	t5,4
    1d0c:	07ed0463          	beq	s10,t5,1d74 <xprintf+0xd5c>
    1d10:	00500f93          	li	t6,5
    1d14:	05fd0263          	beq	s10,t6,1d58 <xprintf+0xd40>
    1d18:	00600d93          	li	s11,6
    1d1c:	03bd0063          	beq	s10,s11,1d3c <xprintf+0xd24>
    1d20:	80818093          	addi	ra,gp,-2040 # 10000788 <__bss_start>
    1d24:	0000a783          	lw	a5,0(ra)
    1d28:	28078ae3          	beqz	a5,27bc <__stack_size+0x7bc>
    1d2c:	00178293          	addi	t0,a5,1
    1d30:	0050a023          	sw	t0,0(ra)
    1d34:	01378023          	sb	s3,0(a5)
    1d38:	00140413          	addi	s0,s0,1
    1d3c:	80818313          	addi	t1,gp,-2040 # 10000788 <__bss_start>
    1d40:	00032383          	lw	t2,0(t1)
    1d44:	24038ae3          	beqz	t2,2798 <__stack_size+0x798>
    1d48:	00138693          	addi	a3,t2,1
    1d4c:	00d32023          	sw	a3,0(t1)
    1d50:	01338023          	sb	s3,0(t2)
    1d54:	00140413          	addi	s0,s0,1
    1d58:	80818513          	addi	a0,gp,-2040 # 10000788 <__bss_start>
    1d5c:	00052483          	lw	s1,0(a0)
    1d60:	16048ce3          	beqz	s1,26d8 <__stack_size+0x6d8>
    1d64:	00148613          	addi	a2,s1,1
    1d68:	00c52023          	sw	a2,0(a0)
    1d6c:	01348023          	sb	s3,0(s1)
    1d70:	00140413          	addi	s0,s0,1
    1d74:	80818813          	addi	a6,gp,-2040 # 10000788 <__bss_start>
    1d78:	00082a83          	lw	s5,0(a6)
    1d7c:	020a8ee3          	beqz	s5,25b8 <__stack_size+0x5b8>
    1d80:	001a8893          	addi	a7,s5,1
    1d84:	01182023          	sw	a7,0(a6)
    1d88:	013a8023          	sb	s3,0(s5)
    1d8c:	00140413          	addi	s0,s0,1
    1d90:	80818e13          	addi	t3,gp,-2040 # 10000788 <__bss_start>
    1d94:	000e2e83          	lw	t4,0(t3)
    1d98:	7a0e8e63          	beqz	t4,2554 <__stack_size+0x554>
    1d9c:	001e8f93          	addi	t6,t4,1
    1da0:	01fe2023          	sw	t6,0(t3)
    1da4:	013e8023          	sb	s3,0(t4)
    1da8:	00140413          	addi	s0,s0,1
    1dac:	80818d93          	addi	s11,gp,-2040 # 10000788 <__bss_start>
    1db0:	000da083          	lw	ra,0(s11)
    1db4:	78008463          	beqz	ra,253c <__stack_size+0x53c>
    1db8:	00108713          	addi	a4,ra,1
    1dbc:	00eda023          	sw	a4,0(s11)
    1dc0:	01308023          	sb	s3,0(ra)
    1dc4:	00140413          	addi	s0,s0,1
    1dc8:	af747463          	bgeu	s0,s7,10b0 <xprintf+0x98>
    1dcc:	80818293          	addi	t0,gp,-2040 # 10000788 <__bss_start>
    1dd0:	0002a303          	lw	t1,0(t0)
    1dd4:	16030e63          	beqz	t1,1f50 <xprintf+0xf38>
    1dd8:	00130593          	addi	a1,t1,1
    1ddc:	00b2a023          	sw	a1,0(t0)
    1de0:	01330023          	sb	s3,0(t1)
    1de4:	80818513          	addi	a0,gp,-2040 # 10000788 <__bss_start>
    1de8:	00052483          	lw	s1,0(a0)
    1dec:	00140413          	addi	s0,s0,1
    1df0:	18048063          	beqz	s1,1f70 <xprintf+0xf58>
    1df4:	00148d13          	addi	s10,s1,1
    1df8:	01a52023          	sw	s10,0(a0)
    1dfc:	01348023          	sb	s3,0(s1)
    1e00:	80818613          	addi	a2,gp,-2040 # 10000788 <__bss_start>
    1e04:	00062803          	lw	a6,0(a2)
    1e08:	18080263          	beqz	a6,1f8c <xprintf+0xf74>
    1e0c:	00180c93          	addi	s9,a6,1
    1e10:	01962023          	sw	s9,0(a2)
    1e14:	01380023          	sb	s3,0(a6)
    1e18:	80818893          	addi	a7,gp,-2040 # 10000788 <__bss_start>
    1e1c:	0008ae03          	lw	t3,0(a7)
    1e20:	180e0463          	beqz	t3,1fa8 <xprintf+0xf90>
    1e24:	001e0f13          	addi	t5,t3,1
    1e28:	01e8a023          	sw	t5,0(a7)
    1e2c:	013e0023          	sb	s3,0(t3)
    1e30:	80818f93          	addi	t6,gp,-2040 # 10000788 <__bss_start>
    1e34:	000fad83          	lw	s11,0(t6)
    1e38:	180d8663          	beqz	s11,1fc4 <xprintf+0xfac>
    1e3c:	001d8093          	addi	ra,s11,1
    1e40:	001fa023          	sw	ra,0(t6)
    1e44:	013d8023          	sb	s3,0(s11)
    1e48:	80818713          	addi	a4,gp,-2040 # 10000788 <__bss_start>
    1e4c:	00072283          	lw	t0,0(a4)
    1e50:	18028863          	beqz	t0,1fe0 <xprintf+0xfc8>
    1e54:	00128393          	addi	t2,t0,1
    1e58:	00772023          	sw	t2,0(a4)
    1e5c:	01328023          	sb	s3,0(t0)
    1e60:	80818593          	addi	a1,gp,-2040 # 10000788 <__bss_start>
    1e64:	0005a503          	lw	a0,0(a1)
    1e68:	18050a63          	beqz	a0,1ffc <xprintf+0xfe4>
    1e6c:	00150693          	addi	a3,a0,1
    1e70:	00d5a023          	sw	a3,0(a1)
    1e74:	01350023          	sb	s3,0(a0)
    1e78:	80818d13          	addi	s10,gp,-2040 # 10000788 <__bss_start>
    1e7c:	000d2603          	lw	a2,0(s10)
    1e80:	18060c63          	beqz	a2,2018 <__stack_size+0x18>
    1e84:	00160a93          	addi	s5,a2,1
    1e88:	015d2023          	sw	s5,0(s10)
    1e8c:	01360023          	sb	s3,0(a2)
    1e90:	00740413          	addi	s0,s0,7
    1e94:	f35ff06f          	j	1dc8 <xprintf+0xdb0>
    1e98:	80818b93          	addi	s7,gp,-2040 # 10000788 <__bss_start>
    1e9c:	000ba403          	lw	s0,0(s7)
    1ea0:	08040c63          	beqz	s0,1f38 <xprintf+0xf20>
    1ea4:	00140d13          	addi	s10,s0,1
    1ea8:	01aba023          	sw	s10,0(s7)
    1eac:	00d40023          	sb	a3,0(s0)
    1eb0:	000c0513          	mv	a0,s8
    1eb4:	a00ff06f          	j	10b4 <xprintf+0x9c>
    1eb8:	00350c13          	addi	s8,a0,3
    1ebc:	00250683          	lb	a3,2(a0)
    1ec0:	00100a93          	li	s5,1
    1ec4:	a6cff06f          	j	1130 <xprintf+0x118>
    1ec8:	00250683          	lb	a3,2(a0)
    1ecc:	00350c13          	addi	s8,a0,3
    1ed0:	00200a93          	li	s5,2
    1ed4:	a5cff06f          	j	1130 <xprintf+0x118>
    1ed8:	80c1a583          	lw	a1,-2036(gp) # 1000078c <xfunc_out>
    1edc:	d0058ee3          	beqz	a1,1bf8 <xprintf+0xbe0>
    1ee0:	02000513          	li	a0,32
    1ee4:	000580e7          	jalr	a1
    1ee8:	80818d13          	addi	s10,gp,-2040 # 10000788 <__bss_start>
    1eec:	000d2603          	lw	a2,0(s10)
    1ef0:	d0061ae3          	bnez	a2,1c04 <xprintf+0xbec>
    1ef4:	80c1a683          	lw	a3,-2036(gp) # 1000078c <xfunc_out>
    1ef8:	d0068ce3          	beqz	a3,1c10 <xprintf+0xbf8>
    1efc:	02000513          	li	a0,32
    1f00:	000680e7          	jalr	a3
    1f04:	003c8413          	addi	s0,s9,3
    1f08:	c9dff06f          	j	1ba4 <xprintf+0xb8c>
    1f0c:	01000e93          	li	t4,16
    1f10:	d1dff06f          	j	1c2c <xprintf+0xc14>
    1f14:	00200e93          	li	t4,2
    1f18:	d15ff06f          	j	1c2c <xprintf+0xc14>
    1f1c:	80c1a783          	lw	a5,-2036(gp) # 1000078c <xfunc_out>
    1f20:	00070b13          	mv	s6,a4
    1f24:	98078663          	beqz	a5,10b0 <xprintf+0x98>
    1f28:	0ff2f513          	andi	a0,t0,255
    1f2c:	000780e7          	jalr	a5
    1f30:	000c0513          	mv	a0,s8
    1f34:	980ff06f          	j	10b4 <xprintf+0x9c>
    1f38:	80c1aa83          	lw	s5,-2036(gp) # 1000078c <xfunc_out>
    1f3c:	960a8a63          	beqz	s5,10b0 <xprintf+0x98>
    1f40:	0ff6f513          	andi	a0,a3,255
    1f44:	000a80e7          	jalr	s5
    1f48:	000c0513          	mv	a0,s8
    1f4c:	968ff06f          	j	10b4 <xprintf+0x9c>
    1f50:	80c1a383          	lw	t2,-2036(gp) # 1000078c <xfunc_out>
    1f54:	e80388e3          	beqz	t2,1de4 <xprintf+0xdcc>
    1f58:	02000513          	li	a0,32
    1f5c:	000380e7          	jalr	t2
    1f60:	80818513          	addi	a0,gp,-2040 # 10000788 <__bss_start>
    1f64:	00052483          	lw	s1,0(a0)
    1f68:	00140413          	addi	s0,s0,1
    1f6c:	e80494e3          	bnez	s1,1df4 <xprintf+0xddc>
    1f70:	80c1a683          	lw	a3,-2036(gp) # 1000078c <xfunc_out>
    1f74:	e80686e3          	beqz	a3,1e00 <xprintf+0xde8>
    1f78:	02000513          	li	a0,32
    1f7c:	000680e7          	jalr	a3
    1f80:	80818613          	addi	a2,gp,-2040 # 10000788 <__bss_start>
    1f84:	00062803          	lw	a6,0(a2)
    1f88:	e80812e3          	bnez	a6,1e0c <xprintf+0xdf4>
    1f8c:	80c1aa83          	lw	s5,-2036(gp) # 1000078c <xfunc_out>
    1f90:	e80a84e3          	beqz	s5,1e18 <xprintf+0xe00>
    1f94:	02000513          	li	a0,32
    1f98:	000a80e7          	jalr	s5
    1f9c:	80818893          	addi	a7,gp,-2040 # 10000788 <__bss_start>
    1fa0:	0008ae03          	lw	t3,0(a7)
    1fa4:	e80e10e3          	bnez	t3,1e24 <xprintf+0xe0c>
    1fa8:	80c1ae83          	lw	t4,-2036(gp) # 1000078c <xfunc_out>
    1fac:	e80e82e3          	beqz	t4,1e30 <xprintf+0xe18>
    1fb0:	02000513          	li	a0,32
    1fb4:	000e80e7          	jalr	t4
    1fb8:	80818f93          	addi	t6,gp,-2040 # 10000788 <__bss_start>
    1fbc:	000fad83          	lw	s11,0(t6)
    1fc0:	e60d9ee3          	bnez	s11,1e3c <xprintf+0xe24>
    1fc4:	80c1a783          	lw	a5,-2036(gp) # 1000078c <xfunc_out>
    1fc8:	e80780e3          	beqz	a5,1e48 <xprintf+0xe30>
    1fcc:	02000513          	li	a0,32
    1fd0:	000780e7          	jalr	a5
    1fd4:	80818713          	addi	a4,gp,-2040 # 10000788 <__bss_start>
    1fd8:	00072283          	lw	t0,0(a4)
    1fdc:	e6029ce3          	bnez	t0,1e54 <xprintf+0xe3c>
    1fe0:	80c1a303          	lw	t1,-2036(gp) # 1000078c <xfunc_out>
    1fe4:	e6030ee3          	beqz	t1,1e60 <xprintf+0xe48>
    1fe8:	02000513          	li	a0,32
    1fec:	000300e7          	jalr	t1
    1ff0:	80818593          	addi	a1,gp,-2040 # 10000788 <__bss_start>
    1ff4:	0005a503          	lw	a0,0(a1)
    1ff8:	e6051ae3          	bnez	a0,1e6c <xprintf+0xe54>
    1ffc:	80c1a483          	lw	s1,-2036(gp) # 1000078c <xfunc_out>
    2000:	e6048ce3          	beqz	s1,1e78 <xprintf+0xe60>
    2004:	02000513          	li	a0,32
    2008:	000480e7          	jalr	s1
    200c:	80818d13          	addi	s10,gp,-2040 # 10000788 <__bss_start>
    2010:	000d2603          	lw	a2,0(s10)
    2014:	e60618e3          	bnez	a2,1e84 <xprintf+0xe6c>
    2018:	80c1a803          	lw	a6,-2036(gp) # 1000078c <xfunc_out>
    201c:	e6080ae3          	beqz	a6,1e90 <xprintf+0xe78>
    2020:	02000513          	li	a0,32
    2024:	000800e7          	jalr	a6
    2028:	00740413          	addi	s0,s0,7
    202c:	d9dff06f          	j	1dc8 <xprintf+0xdb0>
    2030:	04400d93          	li	s11,68
    2034:	7bbf9a63          	bne	t6,s11,27e8 <__stack_size+0x7e8>
    2038:	000f0e13          	mv	t3,t5
    203c:	9acff06f          	j	11e8 <xprintf+0x1d0>
    2040:	fff48c93          	addi	s9,s1,-1
    2044:	03010a93          	addi	s5,sp,48
    2048:	019a83b3          	add	t2,s5,s9
    204c:	000d0d93          	mv	s11,s10
    2050:	ff038503          	lb	a0,-16(t2)
    2054:	e6079a63          	bnez	a5,16c8 <xprintf+0x6b0>
    2058:	80c1a783          	lw	a5,-2036(gp) # 1000078c <xfunc_out>
    205c:	e6078c63          	beqz	a5,16d4 <xprintf+0x6bc>
    2060:	0ff57513          	andi	a0,a0,255
    2064:	000780e7          	jalr	a5
    2068:	e6cff06f          	j	16d4 <xprintf+0x6bc>
    206c:	80c1a383          	lw	t2,-2036(gp) # 1000078c <xfunc_out>
    2070:	9a0388e3          	beqz	t2,1a20 <xprintf+0xa08>
    2074:	02000513          	li	a0,32
    2078:	000380e7          	jalr	t2
    207c:	00042e83          	lw	t4,0(s0)
    2080:	001d8d93          	addi	s11,s11,1
    2084:	9a0e94e3          	bnez	t4,1a2c <xprintf+0xa14>
    2088:	80c1a783          	lw	a5,-2036(gp) # 1000078c <xfunc_out>
    208c:	9a0786e3          	beqz	a5,1a38 <xprintf+0xa20>
    2090:	02000513          	li	a0,32
    2094:	000780e7          	jalr	a5
    2098:	00042583          	lw	a1,0(s0)
    209c:	9a0592e3          	bnez	a1,1a40 <xprintf+0xa28>
    20a0:	80c1a803          	lw	a6,-2036(gp) # 1000078c <xfunc_out>
    20a4:	9a0804e3          	beqz	a6,1a4c <xprintf+0xa34>
    20a8:	02000513          	li	a0,32
    20ac:	000800e7          	jalr	a6
    20b0:	00042e03          	lw	t3,0(s0)
    20b4:	9a0e10e3          	bnez	t3,1a54 <xprintf+0xa3c>
    20b8:	80c1a883          	lw	a7,-2036(gp) # 1000078c <xfunc_out>
    20bc:	9a0882e3          	beqz	a7,1a60 <xprintf+0xa48>
    20c0:	02000513          	li	a0,32
    20c4:	000880e7          	jalr	a7
    20c8:	00042683          	lw	a3,0(s0)
    20cc:	98069ee3          	bnez	a3,1a68 <xprintf+0xa50>
    20d0:	80c1af83          	lw	t6,-2036(gp) # 1000078c <xfunc_out>
    20d4:	9a0f80e3          	beqz	t6,1a74 <xprintf+0xa5c>
    20d8:	02000513          	li	a0,32
    20dc:	000f80e7          	jalr	t6
    20e0:	00042303          	lw	t1,0(s0)
    20e4:	98031ce3          	bnez	t1,1a7c <xprintf+0xa64>
    20e8:	80c1ad03          	lw	s10,-2036(gp) # 1000078c <xfunc_out>
    20ec:	980d0ee3          	beqz	s10,1a88 <xprintf+0xa70>
    20f0:	02000513          	li	a0,32
    20f4:	000d00e7          	jalr	s10
    20f8:	00042483          	lw	s1,0(s0)
    20fc:	98049ae3          	bnez	s1,1a90 <xprintf+0xa78>
    2100:	80c1ac83          	lw	s9,-2036(gp) # 1000078c <xfunc_out>
    2104:	980c8ce3          	beqz	s9,1a9c <xprintf+0xa84>
    2108:	02000513          	li	a0,32
    210c:	000c80e7          	jalr	s9
    2110:	00042383          	lw	t2,0(s0)
    2114:	980398e3          	bnez	t2,1aa4 <xprintf+0xa8c>
    2118:	80c1af03          	lw	t5,-2036(gp) # 1000078c <xfunc_out>
    211c:	980f0ae3          	beqz	t5,1ab0 <xprintf+0xa98>
    2120:	02000513          	li	a0,32
    2124:	000f00e7          	jalr	t5
    2128:	007d8d93          	addi	s11,s11,7
    212c:	8ddff06f          	j	1a08 <xprintf+0x9f0>
    2130:	80c1af83          	lw	t6,-2036(gp) # 1000078c <xfunc_out>
    2134:	be0f8e63          	beqz	t6,1530 <xprintf+0x518>
    2138:	0ffcf513          	andi	a0,s9,255
    213c:	00512623          	sw	t0,12(sp)
    2140:	000f80e7          	jalr	t6
    2144:	00042783          	lw	a5,0(s0)
    2148:	00c12283          	lw	t0,12(sp)
    214c:	be4ff06f          	j	1530 <xprintf+0x518>
    2150:	80c1a703          	lw	a4,-2036(gp) # 1000078c <xfunc_out>
    2154:	fe070863          	beqz	a4,1944 <xprintf+0x92c>
    2158:	02000513          	li	a0,32
    215c:	000700e7          	jalr	a4
    2160:	fe4ff06f          	j	1944 <xprintf+0x92c>
    2164:	80c18f13          	addi	t5,gp,-2036 # 1000078c <xfunc_out>
    2168:	000f2683          	lw	a3,0(t5)
    216c:	26068e63          	beqz	a3,23e8 <__stack_size+0x3e8>
    2170:	0ffe7513          	andi	a0,t3,255
    2174:	000680e7          	jalr	a3
    2178:	d84ff06f          	j	16fc <xprintf+0x6e4>
    217c:	80c1ad83          	lw	s11,-2036(gp) # 1000078c <xfunc_out>
    2180:	c80d8e63          	beqz	s11,161c <xprintf+0x604>
    2184:	00412503          	lw	a0,4(sp)
    2188:	000d80e7          	jalr	s11
    218c:	00042783          	lw	a5,0(s0)
    2190:	c8079863          	bnez	a5,1620 <xprintf+0x608>
    2194:	80c1a583          	lw	a1,-2036(gp) # 1000078c <xfunc_out>
    2198:	c8058c63          	beqz	a1,1630 <xprintf+0x618>
    219c:	00412503          	lw	a0,4(sp)
    21a0:	000580e7          	jalr	a1
    21a4:	00042783          	lw	a5,0(s0)
    21a8:	c8079663          	bnez	a5,1634 <xprintf+0x61c>
    21ac:	80c1a603          	lw	a2,-2036(gp) # 1000078c <xfunc_out>
    21b0:	c8060a63          	beqz	a2,1644 <xprintf+0x62c>
    21b4:	00412503          	lw	a0,4(sp)
    21b8:	000600e7          	jalr	a2
    21bc:	00042783          	lw	a5,0(s0)
    21c0:	c8079463          	bnez	a5,1648 <xprintf+0x630>
    21c4:	80c1a883          	lw	a7,-2036(gp) # 1000078c <xfunc_out>
    21c8:	c8088863          	beqz	a7,1658 <xprintf+0x640>
    21cc:	00412503          	lw	a0,4(sp)
    21d0:	000880e7          	jalr	a7
    21d4:	00042783          	lw	a5,0(s0)
    21d8:	c8079263          	bnez	a5,165c <xprintf+0x644>
    21dc:	80c1af83          	lw	t6,-2036(gp) # 1000078c <xfunc_out>
    21e0:	c80f8663          	beqz	t6,166c <xprintf+0x654>
    21e4:	00412503          	lw	a0,4(sp)
    21e8:	000f80e7          	jalr	t6
    21ec:	00042783          	lw	a5,0(s0)
    21f0:	c8079063          	bnez	a5,1670 <xprintf+0x658>
    21f4:	80c1a303          	lw	t1,-2036(gp) # 1000078c <xfunc_out>
    21f8:	c8030463          	beqz	t1,1680 <xprintf+0x668>
    21fc:	00412503          	lw	a0,4(sp)
    2200:	000300e7          	jalr	t1
    2204:	00042783          	lw	a5,0(s0)
    2208:	c6079e63          	bnez	a5,1684 <xprintf+0x66c>
    220c:	80c1a383          	lw	t2,-2036(gp) # 1000078c <xfunc_out>
    2210:	c8038263          	beqz	t2,1694 <xprintf+0x67c>
    2214:	00412503          	lw	a0,4(sp)
    2218:	000380e7          	jalr	t2
    221c:	00042783          	lw	a5,0(s0)
    2220:	c6079c63          	bnez	a5,1698 <xprintf+0x680>
    2224:	80c1af03          	lw	t5,-2036(gp) # 1000078c <xfunc_out>
    2228:	c80f0063          	beqz	t5,16a8 <xprintf+0x690>
    222c:	00412503          	lw	a0,4(sp)
    2230:	007d0d93          	addi	s11,s10,7
    2234:	000f00e7          	jalr	t5
    2238:	00042783          	lw	a5,0(s0)
    223c:	c70ff06f          	j	16ac <xprintf+0x694>
    2240:	80c1a483          	lw	s1,-2036(gp) # 1000078c <xfunc_out>
    2244:	fc048063          	beqz	s1,1a04 <xprintf+0x9ec>
    2248:	02000513          	li	a0,32
    224c:	000480e7          	jalr	s1
    2250:	001d8d93          	addi	s11,s11,1
    2254:	fb4ff06f          	j	1a08 <xprintf+0x9f0>
    2258:	80c1a303          	lw	t1,-2036(gp) # 1000078c <xfunc_out>
    225c:	f8030863          	beqz	t1,19ec <xprintf+0x9d4>
    2260:	02000513          	li	a0,32
    2264:	000300e7          	jalr	t1
    2268:	f84ff06f          	j	19ec <xprintf+0x9d4>
    226c:	80c18f13          	addi	t5,gp,-2036 # 1000078c <xfunc_out>
    2270:	000f2a83          	lw	s5,0(t5)
    2274:	180a8863          	beqz	s5,2404 <__stack_size+0x404>
    2278:	0ff77513          	andi	a0,a4,255
    227c:	000a80e7          	jalr	s5
    2280:	ca4ff06f          	j	1724 <xprintf+0x70c>
    2284:	80c1a303          	lw	t1,-2036(gp) # 1000078c <xfunc_out>
    2288:	b6030a63          	beqz	t1,15fc <xprintf+0x5e4>
    228c:	0ffcf513          	andi	a0,s9,255
    2290:	000300e7          	jalr	t1
    2294:	00042783          	lw	a5,0(s0)
    2298:	b64ff06f          	j	15fc <xprintf+0x5e4>
    229c:	80c18f13          	addi	t5,gp,-2036 # 1000078c <xfunc_out>
    22a0:	000f2e03          	lw	t3,0(t5)
    22a4:	160e0e63          	beqz	t3,2420 <__stack_size+0x420>
    22a8:	0ffef513          	andi	a0,t4,255
    22ac:	000e00e7          	jalr	t3
    22b0:	c9cff06f          	j	174c <xprintf+0x734>
    22b4:	80c1a703          	lw	a4,-2036(gp) # 1000078c <xfunc_out>
    22b8:	b2070663          	beqz	a4,15e4 <xprintf+0x5cc>
    22bc:	0ffcf513          	andi	a0,s9,255
    22c0:	000700e7          	jalr	a4
    22c4:	00042783          	lw	a5,0(s0)
    22c8:	b1cff06f          	j	15e4 <xprintf+0x5cc>
    22cc:	80c1af83          	lw	t6,-2036(gp) # 1000078c <xfunc_out>
    22d0:	8e0f8ce3          	beqz	t6,1bc8 <xprintf+0xbb0>
    22d4:	02000513          	li	a0,32
    22d8:	000f80e7          	jalr	t6
    22dc:	80818093          	addi	ra,gp,-2040 # 10000788 <__bss_start>
    22e0:	0000a783          	lw	a5,0(ra)
    22e4:	8e0798e3          	bnez	a5,1bd4 <xprintf+0xbbc>
    22e8:	80c1a703          	lw	a4,-2036(gp) # 1000078c <xfunc_out>
    22ec:	8e070ae3          	beqz	a4,1be0 <xprintf+0xbc8>
    22f0:	02000513          	li	a0,32
    22f4:	000700e7          	jalr	a4
    22f8:	80818313          	addi	t1,gp,-2040 # 10000788 <__bss_start>
    22fc:	00032383          	lw	t2,0(t1)
    2300:	8e0396e3          	bnez	t2,1bec <xprintf+0xbd4>
    2304:	bd5ff06f          	j	1ed8 <xprintf+0xec0>
    2308:	80c1a683          	lw	a3,-2036(gp) # 1000078c <xfunc_out>
    230c:	ec068463          	beqz	a3,19d4 <xprintf+0x9bc>
    2310:	02000513          	li	a0,32
    2314:	000680e7          	jalr	a3
    2318:	001d8d93          	addi	s11,s11,1
    231c:	ebcff06f          	j	19d8 <xprintf+0x9c0>
    2320:	80c18f13          	addi	t5,gp,-2036 # 1000078c <xfunc_out>
    2324:	000f2c83          	lw	s9,0(t5)
    2328:	100c8a63          	beqz	s9,243c <__stack_size+0x43c>
    232c:	0ffff513          	andi	a0,t6,255
    2330:	000c80e7          	jalr	s9
    2334:	c40ff06f          	j	1774 <xprintf+0x75c>
    2338:	80c18f13          	addi	t5,gp,-2036 # 1000078c <xfunc_out>
    233c:	000f2803          	lw	a6,0(t5)
    2340:	10080c63          	beqz	a6,2458 <__stack_size+0x458>
    2344:	0ff3f513          	andi	a0,t2,255
    2348:	000800e7          	jalr	a6
    234c:	c50ff06f          	j	179c <xprintf+0x784>
    2350:	80c1ad03          	lw	s10,-2036(gp) # 1000078c <xfunc_out>
    2354:	a60d0c63          	beqz	s10,15cc <xprintf+0x5b4>
    2358:	0ffcf513          	andi	a0,s9,255
    235c:	000d00e7          	jalr	s10
    2360:	00042783          	lw	a5,0(s0)
    2364:	a68ff06f          	j	15cc <xprintf+0x5b4>
    2368:	80c18f13          	addi	t5,gp,-2036 # 1000078c <xfunc_out>
    236c:	000f2703          	lw	a4,0(t5)
    2370:	10070263          	beqz	a4,2474 <__stack_size+0x474>
    2374:	0ff8f513          	andi	a0,a7,255
    2378:	000700e7          	jalr	a4
    237c:	c48ff06f          	j	17c4 <xprintf+0x7ac>
    2380:	80c1ae03          	lw	t3,-2036(gp) # 1000078c <xfunc_out>
    2384:	e20e0c63          	beqz	t3,19bc <xprintf+0x9a4>
    2388:	02000513          	li	a0,32
    238c:	000e00e7          	jalr	t3
    2390:	001d8d93          	addi	s11,s11,1
    2394:	e2cff06f          	j	19c0 <xprintf+0x9a8>
    2398:	80c18f13          	addi	t5,gp,-2036 # 1000078c <xfunc_out>
    239c:	000f2783          	lw	a5,0(t5)
    23a0:	0e078863          	beqz	a5,2490 <__stack_size+0x490>
    23a4:	0ff0f513          	andi	a0,ra,255
    23a8:	000780e7          	jalr	a5
    23ac:	c40ff06f          	j	17ec <xprintf+0x7d4>
    23b0:	80c1af03          	lw	t5,-2036(gp) # 1000078c <xfunc_out>
    23b4:	a00f0063          	beqz	t5,15b4 <xprintf+0x59c>
    23b8:	0ffcf513          	andi	a0,s9,255
    23bc:	000f00e7          	jalr	t5
    23c0:	00042783          	lw	a5,0(s0)
    23c4:	9f0ff06f          	j	15b4 <xprintf+0x59c>
    23c8:	80c18f13          	addi	t5,gp,-2036 # 1000078c <xfunc_out>
    23cc:	000f2703          	lw	a4,0(t5)
    23d0:	0c070e63          	beqz	a4,24ac <__stack_size+0x4ac>
    23d4:	0ff67513          	andi	a0,a2,255
    23d8:	000700e7          	jalr	a4
    23dc:	c38ff06f          	j	1814 <xprintf+0x7fc>
    23e0:	000c8413          	mv	s0,s9
    23e4:	8b5ff06f          	j	1c98 <xprintf+0xc80>
    23e8:	d20d0c63          	beqz	s10,1920 <xprintf+0x908>
    23ec:	000f2a83          	lw	s5,0(t5)
    23f0:	ffd48493          	addi	s1,s1,-3
    23f4:	03010893          	addi	a7,sp,48
    23f8:	00988fb3          	add	t6,a7,s1
    23fc:	ff0f8703          	lb	a4,-16(t6)
    2400:	e60a9ce3          	bnez	s5,2278 <__stack_size+0x278>
    2404:	d0048e63          	beqz	s1,1920 <xprintf+0x908>
    2408:	000f2e03          	lw	t3,0(t5)
    240c:	fff48d13          	addi	s10,s1,-1
    2410:	03010393          	addi	t2,sp,48
    2414:	01a38533          	add	a0,t2,s10
    2418:	ff050e83          	lb	t4,-16(a0)
    241c:	e80e16e3          	bnez	t3,22a8 <__stack_size+0x2a8>
    2420:	d00d0063          	beqz	s10,1920 <xprintf+0x908>
    2424:	000f2c83          	lw	s9,0(t5)
    2428:	fffd0493          	addi	s1,s10,-1
    242c:	03010693          	addi	a3,sp,48
    2430:	009688b3          	add	a7,a3,s1
    2434:	ff088f83          	lb	t6,-16(a7)
    2438:	ee0c9ae3          	bnez	s9,232c <__stack_size+0x32c>
    243c:	ce048263          	beqz	s1,1920 <xprintf+0x908>
    2440:	000f2803          	lw	a6,0(t5)
    2444:	fff48a93          	addi	s5,s1,-1
    2448:	03010093          	addi	ra,sp,48
    244c:	01508d33          	add	s10,ra,s5
    2450:	ff0d0383          	lb	t2,-16(s10)
    2454:	ee0818e3          	bnez	a6,2344 <__stack_size+0x344>
    2458:	cc0a8463          	beqz	s5,1920 <xprintf+0x908>
    245c:	000f2703          	lw	a4,0(t5)
    2460:	fffa8493          	addi	s1,s5,-1
    2464:	03010613          	addi	a2,sp,48
    2468:	00960e33          	add	t3,a2,s1
    246c:	ff0e0883          	lb	a7,-16(t3)
    2470:	f00712e3          	bnez	a4,2374 <__stack_size+0x374>
    2474:	ca048663          	beqz	s1,1920 <xprintf+0x908>
    2478:	000f2783          	lw	a5,0(t5)
    247c:	fff48c93          	addi	s9,s1,-1
    2480:	03010313          	addi	t1,sp,48
    2484:	01930ab3          	add	s5,t1,s9
    2488:	ff0a8083          	lb	ra,-16(s5)
    248c:	f0079ce3          	bnez	a5,23a4 <__stack_size+0x3a4>
    2490:	c80c8863          	beqz	s9,1920 <xprintf+0x908>
    2494:	000f2703          	lw	a4,0(t5)
    2498:	fffc8493          	addi	s1,s9,-1
    249c:	03010593          	addi	a1,sp,48
    24a0:	00958833          	add	a6,a1,s1
    24a4:	ff080603          	lb	a2,-16(a6)
    24a8:	f20716e3          	bnez	a4,23d4 <__stack_size+0x3d4>
    24ac:	c6048a63          	beqz	s1,1920 <xprintf+0x908>
    24b0:	fff48c93          	addi	s9,s1,-1
    24b4:	03010293          	addi	t0,sp,48
    24b8:	01928333          	add	t1,t0,s9
    24bc:	ff030a83          	lb	s5,-16(t1)
    24c0:	0080006f          	j	24c8 <__stack_size+0x4c8>
    24c4:	80c18f13          	addi	t5,gp,-2036 # 1000078c <xfunc_out>
    24c8:	000f2e83          	lw	t4,0(t5)
    24cc:	1a0e8663          	beqz	t4,2678 <__stack_size+0x678>
    24d0:	0ffaf513          	andi	a0,s5,255
    24d4:	000e80e7          	jalr	t4
    24d8:	b64ff06f          	j	183c <xprintf+0x824>
    24dc:	80c1ae83          	lw	t4,-2036(gp) # 1000078c <xfunc_out>
    24e0:	e60e8c63          	beqz	t4,1b58 <xprintf+0xb40>
    24e4:	02000513          	li	a0,32
    24e8:	000e80e7          	jalr	t4
    24ec:	e6cff06f          	j	1b58 <xprintf+0xb40>
    24f0:	80c1a583          	lw	a1,-2036(gp) # 1000078c <xfunc_out>
    24f4:	ca058863          	beqz	a1,19a4 <xprintf+0x98c>
    24f8:	02000513          	li	a0,32
    24fc:	000580e7          	jalr	a1
    2500:	001d8d93          	addi	s11,s11,1
    2504:	ca4ff06f          	j	19a8 <xprintf+0x990>
    2508:	80c1aa83          	lw	s5,-2036(gp) # 1000078c <xfunc_out>
    250c:	fe0a8063          	beqz	s5,1cec <xprintf+0xcd4>
    2510:	02000513          	li	a0,32
    2514:	000a80e7          	jalr	s5
    2518:	fd4ff06f          	j	1cec <xprintf+0xcd4>
    251c:	80c18f13          	addi	t5,gp,-2036 # 1000078c <xfunc_out>
    2520:	000f2683          	lw	a3,0(t5)
    2524:	18068263          	beqz	a3,26a8 <__stack_size+0x6a8>
    2528:	0ff5f513          	andi	a0,a1,255
    252c:	000680e7          	jalr	a3
    2530:	b34ff06f          	j	1864 <xprintf+0x84c>
    2534:	00800e93          	li	t4,8
    2538:	f14ff06f          	j	1c4c <xprintf+0xc34>
    253c:	80c1a783          	lw	a5,-2036(gp) # 1000078c <xfunc_out>
    2540:	880782e3          	beqz	a5,1dc4 <xprintf+0xdac>
    2544:	02000513          	li	a0,32
    2548:	000780e7          	jalr	a5
    254c:	00140413          	addi	s0,s0,1
    2550:	879ff06f          	j	1dc8 <xprintf+0xdb0>
    2554:	80c1af03          	lw	t5,-2036(gp) # 1000078c <xfunc_out>
    2558:	840f08e3          	beqz	t5,1da8 <xprintf+0xd90>
    255c:	02000513          	li	a0,32
    2560:	000f00e7          	jalr	t5
    2564:	00140413          	addi	s0,s0,1
    2568:	845ff06f          	j	1dac <xprintf+0xd94>
    256c:	80c18f13          	addi	t5,gp,-2036 # 1000078c <xfunc_out>
    2570:	000f2e03          	lw	t3,0(t5)
    2574:	ba0e0663          	beqz	t3,1920 <xprintf+0x908>
    2578:	0ff5f513          	andi	a0,a1,255
    257c:	000e00e7          	jalr	t3
    2580:	ba0ff06f          	j	1920 <xprintf+0x908>
    2584:	80c1a803          	lw	a6,-2036(gp) # 1000078c <xfunc_out>
    2588:	00081463          	bnez	a6,2590 <__stack_size+0x590>
    258c:	ff5fe06f          	j	1580 <xprintf+0x568>
    2590:	0ffcf513          	andi	a0,s9,255
    2594:	000800e7          	jalr	a6
    2598:	00042783          	lw	a5,0(s0)
    259c:	fe5fe06f          	j	1580 <xprintf+0x568>
    25a0:	80c1ae83          	lw	t4,-2036(gp) # 1000078c <xfunc_out>
    25a4:	be0e8463          	beqz	t4,198c <xprintf+0x974>
    25a8:	02000513          	li	a0,32
    25ac:	000e80e7          	jalr	t4
    25b0:	001d8d93          	addi	s11,s11,1
    25b4:	bdcff06f          	j	1990 <xprintf+0x978>
    25b8:	80c1ac83          	lw	s9,-2036(gp) # 1000078c <xfunc_out>
    25bc:	fc0c8863          	beqz	s9,1d8c <xprintf+0xd74>
    25c0:	02000513          	li	a0,32
    25c4:	000c80e7          	jalr	s9
    25c8:	00140413          	addi	s0,s0,1
    25cc:	fc4ff06f          	j	1d90 <xprintf+0xd78>
    25d0:	80c1a583          	lw	a1,-2036(gp) # 1000078c <xfunc_out>
    25d4:	dc058863          	beqz	a1,1ba4 <xprintf+0xb8c>
    25d8:	02000513          	li	a0,32
    25dc:	000580e7          	jalr	a1
    25e0:	dc4ff06f          	j	1ba4 <xprintf+0xb8c>
    25e4:	80c1a683          	lw	a3,-2036(gp) # 1000078c <xfunc_out>
    25e8:	00069463          	bnez	a3,25f0 <__stack_size+0x5f0>
    25ec:	fb1fe06f          	j	159c <xprintf+0x584>
    25f0:	0ffcf513          	andi	a0,s9,255
    25f4:	000680e7          	jalr	a3
    25f8:	00042783          	lw	a5,0(s0)
    25fc:	fa1fe06f          	j	159c <xprintf+0x584>
    2600:	80c18f13          	addi	t5,gp,-2036 # 1000078c <xfunc_out>
    2604:	000f2d03          	lw	s10,0(t5)
    2608:	0e0d0463          	beqz	s10,26f0 <__stack_size+0x6f0>
    260c:	0ff2f513          	andi	a0,t0,255
    2610:	000d00e7          	jalr	s10
    2614:	a78ff06f          	j	188c <xprintf+0x874>
    2618:	80c18f13          	addi	t5,gp,-2036 # 1000078c <xfunc_out>
    261c:	000f2e03          	lw	t3,0(t5)
    2620:	100e0063          	beqz	t3,2720 <__stack_size+0x720>
    2624:	0ff57513          	andi	a0,a0,255
    2628:	000e00e7          	jalr	t3
    262c:	a88ff06f          	j	18b4 <xprintf+0x89c>
    2630:	80c18f13          	addi	t5,gp,-2036 # 1000078c <xfunc_out>
    2634:	000f2d03          	lw	s10,0(t5)
    2638:	100d0c63          	beqz	s10,2750 <__stack_size+0x750>
    263c:	0ffff513          	andi	a0,t6,255
    2640:	000d00e7          	jalr	s10
    2644:	a98ff06f          	j	18dc <xprintf+0x8c4>
    2648:	80c18f13          	addi	t5,gp,-2036 # 1000078c <xfunc_out>
    264c:	000f2783          	lw	a5,0(t5)
    2650:	12078863          	beqz	a5,2780 <__stack_size+0x780>
    2654:	0ff3f513          	andi	a0,t2,255
    2658:	000780e7          	jalr	a5
    265c:	aa8ff06f          	j	1904 <xprintf+0x8ec>
    2660:	00200493          	li	s1,2
    2664:	00100e93          	li	t4,1
    2668:	e5dfe06f          	j	14c4 <xprintf+0x4ac>
    266c:	00300493          	li	s1,3
    2670:	00200e93          	li	t4,2
    2674:	e51fe06f          	j	14c4 <xprintf+0x4ac>
    2678:	aa0c8463          	beqz	s9,1920 <xprintf+0x908>
    267c:	fffc8493          	addi	s1,s9,-1
    2680:	03010513          	addi	a0,sp,48
    2684:	009507b3          	add	a5,a0,s1
    2688:	ff078583          	lb	a1,-16(a5)
    268c:	e95ff06f          	j	2520 <__stack_size+0x520>
    2690:	00400493          	li	s1,4
    2694:	00300e93          	li	t4,3
    2698:	e2dfe06f          	j	14c4 <xprintf+0x4ac>
    269c:	00500493          	li	s1,5
    26a0:	00400e93          	li	t4,4
    26a4:	e21fe06f          	j	14c4 <xprintf+0x4ac>
    26a8:	a6048c63          	beqz	s1,1920 <xprintf+0x908>
    26ac:	fff48c93          	addi	s9,s1,-1
    26b0:	03010f93          	addi	t6,sp,48
    26b4:	019f8733          	add	a4,t6,s9
    26b8:	ff070283          	lb	t0,-16(a4)
    26bc:	f49ff06f          	j	2604 <__stack_size+0x604>
    26c0:	00600493          	li	s1,6
    26c4:	00500e93          	li	t4,5
    26c8:	dfdfe06f          	j	14c4 <xprintf+0x4ac>
    26cc:	00700493          	li	s1,7
    26d0:	00600e93          	li	t4,6
    26d4:	df1fe06f          	j	14c4 <xprintf+0x4ac>
    26d8:	80c1ad03          	lw	s10,-2036(gp) # 1000078c <xfunc_out>
    26dc:	e80d0a63          	beqz	s10,1d70 <xprintf+0xd58>
    26e0:	02000513          	li	a0,32
    26e4:	000d00e7          	jalr	s10
    26e8:	00140413          	addi	s0,s0,1
    26ec:	e88ff06f          	j	1d74 <xprintf+0xd5c>
    26f0:	a20c8863          	beqz	s9,1920 <xprintf+0x908>
    26f4:	fffc8493          	addi	s1,s9,-1
    26f8:	03010393          	addi	t2,sp,48
    26fc:	00938eb3          	add	t4,t2,s1
    2700:	ff0e8503          	lb	a0,-16(t4)
    2704:	f19ff06f          	j	261c <__stack_size+0x61c>
    2708:	00800493          	li	s1,8
    270c:	00700e93          	li	t4,7
    2710:	db5fe06f          	j	14c4 <xprintf+0x4ac>
    2714:	00900493          	li	s1,9
    2718:	00800e93          	li	t4,8
    271c:	da9fe06f          	j	14c4 <xprintf+0x4ac>
    2720:	a0048063          	beqz	s1,1920 <xprintf+0x908>
    2724:	fff48c93          	addi	s9,s1,-1
    2728:	03010893          	addi	a7,sp,48
    272c:	019886b3          	add	a3,a7,s9
    2730:	ff068f83          	lb	t6,-16(a3)
    2734:	f01ff06f          	j	2634 <__stack_size+0x634>
    2738:	00a00493          	li	s1,10
    273c:	00900e93          	li	t4,9
    2740:	d85fe06f          	j	14c4 <xprintf+0x4ac>
    2744:	00b00493          	li	s1,11
    2748:	00a00e93          	li	t4,10
    274c:	d79fe06f          	j	14c4 <xprintf+0x4ac>
    2750:	9c0c8863          	beqz	s9,1920 <xprintf+0x908>
    2754:	fffc8493          	addi	s1,s9,-1
    2758:	03010093          	addi	ra,sp,48
    275c:	00908cb3          	add	s9,ra,s1
    2760:	ff0c8383          	lb	t2,-16(s9)
    2764:	ee9ff06f          	j	264c <__stack_size+0x64c>
    2768:	00c00493          	li	s1,12
    276c:	00b00e93          	li	t4,11
    2770:	d55fe06f          	j	14c4 <xprintf+0x4ac>
    2774:	00d00493          	li	s1,13
    2778:	00c00e93          	li	t4,12
    277c:	d49fe06f          	j	14c4 <xprintf+0x4ac>
    2780:	9a048063          	beqz	s1,1920 <xprintf+0x908>
    2784:	fefc8583          	lb	a1,-17(s9)
    2788:	de9ff06f          	j	2570 <__stack_size+0x570>
    278c:	00e00493          	li	s1,14
    2790:	00d00e93          	li	t4,13
    2794:	d31fe06f          	j	14c4 <xprintf+0x4ac>
    2798:	80c1a583          	lw	a1,-2036(gp) # 1000078c <xfunc_out>
    279c:	da058c63          	beqz	a1,1d54 <xprintf+0xd3c>
    27a0:	02000513          	li	a0,32
    27a4:	000580e7          	jalr	a1
    27a8:	00140413          	addi	s0,s0,1
    27ac:	dacff06f          	j	1d58 <xprintf+0xd40>
    27b0:	00f00493          	li	s1,15
    27b4:	00e00e93          	li	t4,14
    27b8:	d0dfe06f          	j	14c4 <xprintf+0x4ac>
    27bc:	80c1a703          	lw	a4,-2036(gp) # 1000078c <xfunc_out>
    27c0:	d6070c63          	beqz	a4,1d38 <xprintf+0xd20>
    27c4:	02000513          	li	a0,32
    27c8:	000700e7          	jalr	a4
    27cc:	00140413          	addi	s0,s0,1
    27d0:	d6cff06f          	j	1d3c <xprintf+0xd24>
    27d4:	80c1a703          	lw	a4,-2036(gp) # 1000078c <xfunc_out>
    27d8:	ba070863          	beqz	a4,1b88 <xprintf+0xb70>
    27dc:	02000513          	li	a0,32
    27e0:	000700e7          	jalr	a4
    27e4:	ba4ff06f          	j	1b88 <xprintf+0xb70>
    27e8:	00a00e93          	li	t4,10
    27ec:	c40ff06f          	j	1c2c <xprintf+0xc14>
    27f0:	00a00e93          	li	t4,10
    27f4:	c58ff06f          	j	1c4c <xprintf+0xc34>

000027f8 <core_bench_list>:
    27f8:	00451e03          	lh	t3,4(a0)
    27fc:	fa010113          	addi	sp,sp,-96
    2800:	03812c23          	sw	s8,56(sp)
    2804:	04112e23          	sw	ra,92(sp)
    2808:	04812c23          	sw	s0,88(sp)
    280c:	04912a23          	sw	s1,84(sp)
    2810:	05212823          	sw	s2,80(sp)
    2814:	05312623          	sw	s3,76(sp)
    2818:	05412423          	sw	s4,72(sp)
    281c:	05512223          	sw	s5,68(sp)
    2820:	05612023          	sw	s6,64(sp)
    2824:	03712e23          	sw	s7,60(sp)
    2828:	03912a23          	sw	s9,52(sp)
    282c:	03a12823          	sw	s10,48(sp)
    2830:	03b12623          	sw	s11,44(sp)
    2834:	00012a23          	sw	zero,20(sp)
    2838:	00b12623          	sw	a1,12(sp)
    283c:	02452c03          	lw	s8,36(a0)
    2840:	7fc05663          	blez	t3,302c <core_bench_list+0x834>
    2844:	00000613          	li	a2,0
    2848:	00000e93          	li	t4,0
    284c:	00000f13          	li	t5,0
    2850:	00000313          	li	t1,0
    2854:	00c12783          	lw	a5,12(sp)
    2858:	0ff67693          	andi	a3,a2,255
    285c:	00d12a23          	sw	a3,20(sp)
    2860:	3a07c263          	bltz	a5,2c04 <core_bench_list+0x40c>
    2864:	7c0c0c63          	beqz	s8,303c <core_bench_list+0x844>
    2868:	004c2483          	lw	s1,4(s8)
    286c:	00c12903          	lw	s2,12(sp)
    2870:	000c0993          	mv	s3,s8
    2874:	00249803          	lh	a6,2(s1)
    2878:	01281c63          	bne	a6,s2,2890 <core_bench_list+0x98>
    287c:	01c0006f          	j	2898 <core_bench_list+0xa0>
    2880:	0049aa03          	lw	s4,4(s3)
    2884:	00c12b03          	lw	s6,12(sp)
    2888:	002a1a83          	lh	s5,2(s4)
    288c:	016a8663          	beq	s5,s6,2898 <core_bench_list+0xa0>
    2890:	0009a983          	lw	s3,0(s3)
    2894:	fe0996e3          	bnez	s3,2880 <core_bench_list+0x88>
    2898:	00000b93          	li	s7,0
    289c:	00c0006f          	j	28a8 <core_bench_list+0xb0>
    28a0:	000c0b93          	mv	s7,s8
    28a4:	000c8c13          	mv	s8,s9
    28a8:	000c2c83          	lw	s9,0(s8)
    28ac:	017c2023          	sw	s7,0(s8)
    28b0:	fe0c98e3          	bnez	s9,28a0 <core_bench_list+0xa8>
    28b4:	38098263          	beqz	s3,2c38 <core_bench_list+0x440>
    28b8:	0049ad03          	lw	s10,4(s3)
    28bc:	001f0893          	addi	a7,t5,1
    28c0:	01089d93          	slli	s11,a7,0x10
    28c4:	000d1f83          	lh	t6,0(s10)
    28c8:	010ddf13          	srli	t5,s11,0x10
    28cc:	001ff693          	andi	a3,t6,1
    28d0:	00068c63          	beqz	a3,28e8 <core_bench_list+0xf0>
    28d4:	409fd793          	srai	a5,t6,0x9
    28d8:	0017f713          	andi	a4,a5,1
    28dc:	00e30333          	add	t1,t1,a4
    28e0:	01031093          	slli	ra,t1,0x10
    28e4:	0100d313          	srli	t1,ra,0x10
    28e8:	0009a283          	lw	t0,0(s3)
    28ec:	00028c63          	beqz	t0,2904 <core_bench_list+0x10c>
    28f0:	0002a383          	lw	t2,0(t0)
    28f4:	0079a023          	sw	t2,0(s3)
    28f8:	000c2403          	lw	s0,0(s8)
    28fc:	0082a023          	sw	s0,0(t0)
    2900:	005c2023          	sw	t0,0(s8)
    2904:	00c12b03          	lw	s6,12(sp)
    2908:	000b4a63          	bltz	s6,291c <core_bench_list+0x124>
    290c:	001b0b93          	addi	s7,s6,1
    2910:	010b9c93          	slli	s9,s7,0x10
    2914:	410cdd13          	srai	s10,s9,0x10
    2918:	01a12623          	sw	s10,12(sp)
    291c:	00160613          	addi	a2,a2,1
    2920:	01061893          	slli	a7,a2,0x10
    2924:	4108d613          	srai	a2,a7,0x10
    2928:	f2ce16e3          	bne	t3,a2,2854 <core_bench_list+0x5c>
    292c:	002f1e13          	slli	t3,t5,0x2
    2930:	41de0db3          	sub	s11,t3,t4
    2934:	01b30f33          	add	t5,t1,s11
    2938:	010f1f93          	slli	t6,t5,0x10
    293c:	010fd693          	srli	a3,t6,0x10
    2940:	00d12e23          	sw	a3,28(sp)
    2944:	00050d13          	mv	s10,a0
    2948:	36b04e63          	bgtz	a1,2cc4 <core_bench_list+0x4cc>
    294c:	000c2b83          	lw	s7,0(s8)
    2950:	00c12603          	lw	a2,12(sp)
    2954:	000c0413          	mv	s0,s8
    2958:	000ba903          	lw	s2,0(s7)
    295c:	004ba083          	lw	ra,4(s7)
    2960:	00492d03          	lw	s10,4(s2)
    2964:	00092883          	lw	a7,0(s2)
    2968:	01aba223          	sw	s10,4(s7)
    296c:	00192223          	sw	ra,4(s2)
    2970:	011ba023          	sw	a7,0(s7)
    2974:	00092023          	sw	zero,0(s2)
    2978:	20064e63          	bltz	a2,2b94 <core_bench_list+0x39c>
    297c:	00442683          	lw	a3,4(s0)
    2980:	00c12583          	lw	a1,12(sp)
    2984:	00269503          	lh	a0,2(a3)
    2988:	00b50a63          	beq	a0,a1,299c <core_bench_list+0x1a4>
    298c:	00042403          	lw	s0,0(s0)
    2990:	fe0416e3          	bnez	s0,297c <core_bench_list+0x184>
    2994:	000c2403          	lw	s0,0(s8)
    2998:	02040463          	beqz	s0,29c0 <core_bench_list+0x1c8>
    299c:	004c2783          	lw	a5,4(s8)
    29a0:	01c12583          	lw	a1,28(sp)
    29a4:	00079503          	lh	a0,0(a5)
    29a8:	1d1030ef          	jal	ra,6378 <crc16>
    29ac:	00042403          	lw	s0,0(s0)
    29b0:	00a12e23          	sw	a0,28(sp)
    29b4:	fe0414e3          	bnez	s0,299c <core_bench_list+0x1a4>
    29b8:	000c2403          	lw	s0,0(s8)
    29bc:	00492083          	lw	ra,4(s2)
    29c0:	00442703          	lw	a4,4(s0)
    29c4:	00042303          	lw	t1,0(s0)
    29c8:	00100b93          	li	s7,1
    29cc:	00e92223          	sw	a4,4(s2)
    29d0:	00142223          	sw	ra,4(s0)
    29d4:	00692023          	sw	t1,0(s2)
    29d8:	01242023          	sw	s2,0(s0)
    29dc:	00000e93          	li	t4,0
    29e0:	00000413          	li	s0,0
    29e4:	00000e13          	li	t3,0
    29e8:	00100f13          	li	t5,1
    29ec:	007bf293          	andi	t0,s7,7
    29f0:	001e0e13          	addi	t3,t3,1
    29f4:	000c0993          	mv	s3,s8
    29f8:	00000b13          	li	s6,0
    29fc:	08028663          	beqz	t0,2a88 <core_bench_list+0x290>
    2a00:	00100393          	li	t2,1
    2a04:	06728a63          	beq	t0,t2,2a78 <core_bench_list+0x280>
    2a08:	00200813          	li	a6,2
    2a0c:	07028063          	beq	t0,a6,2a6c <core_bench_list+0x274>
    2a10:	00300a13          	li	s4,3
    2a14:	05428663          	beq	t0,s4,2a60 <core_bench_list+0x268>
    2a18:	00400a93          	li	s5,4
    2a1c:	03528c63          	beq	t0,s5,2a54 <core_bench_list+0x25c>
    2a20:	00500d93          	li	s11,5
    2a24:	03b28263          	beq	t0,s11,2a48 <core_bench_list+0x250>
    2a28:	00600c93          	li	s9,6
    2a2c:	01928863          	beq	t0,s9,2a3c <core_bench_list+0x244>
    2a30:	000c2983          	lw	s3,0(s8)
    2a34:	00100b13          	li	s6,1
    2a38:	0a098a63          	beqz	s3,2aec <core_bench_list+0x2f4>
    2a3c:	0009a983          	lw	s3,0(s3)
    2a40:	001b0b13          	addi	s6,s6,1
    2a44:	0a098463          	beqz	s3,2aec <core_bench_list+0x2f4>
    2a48:	0009a983          	lw	s3,0(s3)
    2a4c:	001b0b13          	addi	s6,s6,1
    2a50:	08098e63          	beqz	s3,2aec <core_bench_list+0x2f4>
    2a54:	0009a983          	lw	s3,0(s3)
    2a58:	001b0b13          	addi	s6,s6,1
    2a5c:	08098863          	beqz	s3,2aec <core_bench_list+0x2f4>
    2a60:	0009a983          	lw	s3,0(s3)
    2a64:	001b0b13          	addi	s6,s6,1
    2a68:	08098263          	beqz	s3,2aec <core_bench_list+0x2f4>
    2a6c:	0009a983          	lw	s3,0(s3)
    2a70:	001b0b13          	addi	s6,s6,1
    2a74:	06098c63          	beqz	s3,2aec <core_bench_list+0x2f4>
    2a78:	0009a983          	lw	s3,0(s3)
    2a7c:	001b0b13          	addi	s6,s6,1
    2a80:	06098663          	beqz	s3,2aec <core_bench_list+0x2f4>
    2a84:	176b8663          	beq	s7,s6,2bf0 <core_bench_list+0x3f8>
    2a88:	0009a983          	lw	s3,0(s3)
    2a8c:	001b0b13          	addi	s6,s6,1
    2a90:	000b0493          	mv	s1,s6
    2a94:	04098c63          	beqz	s3,2aec <core_bench_list+0x2f4>
    2a98:	0009a983          	lw	s3,0(s3)
    2a9c:	001b0b13          	addi	s6,s6,1
    2aa0:	04098663          	beqz	s3,2aec <core_bench_list+0x2f4>
    2aa4:	0009a983          	lw	s3,0(s3)
    2aa8:	00248b13          	addi	s6,s1,2
    2aac:	04098063          	beqz	s3,2aec <core_bench_list+0x2f4>
    2ab0:	0009a983          	lw	s3,0(s3)
    2ab4:	00348b13          	addi	s6,s1,3
    2ab8:	02098a63          	beqz	s3,2aec <core_bench_list+0x2f4>
    2abc:	0009a983          	lw	s3,0(s3)
    2ac0:	00448b13          	addi	s6,s1,4
    2ac4:	02098463          	beqz	s3,2aec <core_bench_list+0x2f4>
    2ac8:	0009a983          	lw	s3,0(s3)
    2acc:	00548b13          	addi	s6,s1,5
    2ad0:	00098e63          	beqz	s3,2aec <core_bench_list+0x2f4>
    2ad4:	0009a983          	lw	s3,0(s3)
    2ad8:	00648b13          	addi	s6,s1,6
    2adc:	00098863          	beqz	s3,2aec <core_bench_list+0x2f4>
    2ae0:	0009a983          	lw	s3,0(s3)
    2ae4:	00748b13          	addi	s6,s1,7
    2ae8:	f8099ee3          	bnez	s3,2a84 <core_bench_list+0x28c>
    2aec:	000c0d13          	mv	s10,s8
    2af0:	000b8613          	mv	a2,s7
    2af4:	00098c13          	mv	s8,s3
    2af8:	060b0c63          	beqz	s6,2b70 <core_bench_list+0x378>
    2afc:	0a060e63          	beqz	a2,2bb8 <core_bench_list+0x3c0>
    2b00:	0a0c0c63          	beqz	s8,2bb8 <core_bench_list+0x3c0>
    2b04:	004d2883          	lw	a7,4(s10)
    2b08:	004c2f83          	lw	t6,4(s8)
    2b0c:	00089683          	lh	a3,0(a7)
    2b10:	002f9583          	lh	a1,2(t6)
    2b14:	00289503          	lh	a0,2(a7)
    2b18:	01069913          	slli	s2,a3,0x10
    2b1c:	01095093          	srli	ra,s2,0x10
    2b20:	f006f793          	andi	a5,a3,-256
    2b24:	0080d713          	srli	a4,ra,0x8
    2b28:	00e7e333          	or	t1,a5,a4
    2b2c:	00689023          	sh	t1,0(a7)
    2b30:	000f9283          	lh	t0,0(t6)
    2b34:	40b503b3          	sub	t2,a0,a1
    2b38:	01029813          	slli	a6,t0,0x10
    2b3c:	01085a13          	srli	s4,a6,0x10
    2b40:	f002fa93          	andi	s5,t0,-256
    2b44:	008a5d93          	srli	s11,s4,0x8
    2b48:	01baecb3          	or	s9,s5,s11
    2b4c:	019f9023          	sh	s9,0(t6)
    2b50:	06705463          	blez	t2,2bb8 <core_bench_list+0x3c0>
    2b54:	000c0493          	mv	s1,s8
    2b58:	000c2c03          	lw	s8,0(s8)
    2b5c:	fff60613          	addi	a2,a2,-1
    2b60:	020e8463          	beqz	t4,2b88 <core_bench_list+0x390>
    2b64:	009ea023          	sw	s1,0(t4)
    2b68:	00048e93          	mv	t4,s1
    2b6c:	f80b18e3          	bnez	s6,2afc <core_bench_list+0x304>
    2b70:	04060c63          	beqz	a2,2bc8 <core_bench_list+0x3d0>
    2b74:	040c0c63          	beqz	s8,2bcc <core_bench_list+0x3d4>
    2b78:	000c0493          	mv	s1,s8
    2b7c:	fff60613          	addi	a2,a2,-1
    2b80:	000c2c03          	lw	s8,0(s8)
    2b84:	fe0e90e3          	bnez	t4,2b64 <core_bench_list+0x36c>
    2b88:	00048413          	mv	s0,s1
    2b8c:	00048e93          	mv	t4,s1
    2b90:	fddff06f          	j	2b6c <core_bench_list+0x374>
    2b94:	00442e03          	lw	t3,4(s0)
    2b98:	01412f83          	lw	t6,20(sp)
    2b9c:	000e4f03          	lbu	t5,0(t3)
    2ba0:	dfff0ee3          	beq	t5,t6,299c <core_bench_list+0x1a4>
    2ba4:	00042403          	lw	s0,0(s0)
    2ba8:	fe0416e3          	bnez	s0,2b94 <core_bench_list+0x39c>
    2bac:	000c2403          	lw	s0,0(s8)
    2bb0:	de0416e3          	bnez	s0,299c <core_bench_list+0x1a4>
    2bb4:	e0dff06f          	j	29c0 <core_bench_list+0x1c8>
    2bb8:	000d0493          	mv	s1,s10
    2bbc:	fffb0b13          	addi	s6,s6,-1
    2bc0:	000d2d03          	lw	s10,0(s10)
    2bc4:	f9dff06f          	j	2b60 <core_bench_list+0x368>
    2bc8:	e20c12e3          	bnez	s8,29ec <core_bench_list+0x1f4>
    2bcc:	000ea023          	sw	zero,0(t4)
    2bd0:	09ee0863          	beq	t3,t5,2c60 <core_bench_list+0x468>
    2bd4:	001b9b93          	slli	s7,s7,0x1
    2bd8:	36040a63          	beqz	s0,2f4c <core_bench_list+0x754>
    2bdc:	00040c13          	mv	s8,s0
    2be0:	00000e13          	li	t3,0
    2be4:	00000e93          	li	t4,0
    2be8:	00000413          	li	s0,0
    2bec:	e01ff06f          	j	29ec <core_bench_list+0x1f4>
    2bf0:	000c0d13          	mv	s10,s8
    2bf4:	000b8b13          	mv	s6,s7
    2bf8:	000b8613          	mv	a2,s7
    2bfc:	00098c13          	mv	s8,s3
    2c00:	ef9ff06f          	j	2af8 <core_bench_list+0x300>
    2c04:	420c0c63          	beqz	s8,303c <core_bench_list+0x844>
    2c08:	004c2703          	lw	a4,4(s8)
    2c0c:	000c0993          	mv	s3,s8
    2c10:	00074083          	lbu	ra,0(a4)
    2c14:	00169c63          	bne	a3,ra,2c2c <core_bench_list+0x434>
    2c18:	c81ff06f          	j	2898 <core_bench_list+0xa0>
    2c1c:	0049a283          	lw	t0,4(s3)
    2c20:	01412403          	lw	s0,20(sp)
    2c24:	0002c383          	lbu	t2,0(t0)
    2c28:	c68388e3          	beq	t2,s0,2898 <core_bench_list+0xa0>
    2c2c:	0009a983          	lw	s3,0(s3)
    2c30:	fe0996e3          	bnez	s3,2c1c <core_bench_list+0x424>
    2c34:	c65ff06f          	j	2898 <core_bench_list+0xa0>
    2c38:	004ba483          	lw	s1,4(s7)
    2c3c:	001e8e93          	addi	t4,t4,1
    2c40:	010e9813          	slli	a6,t4,0x10
    2c44:	00148903          	lb	s2,1(s1)
    2c48:	01085e93          	srli	t4,a6,0x10
    2c4c:	00197993          	andi	s3,s2,1
    2c50:	01330a33          	add	s4,t1,s3
    2c54:	010a1a93          	slli	s5,s4,0x10
    2c58:	010ad313          	srli	t1,s5,0x10
    2c5c:	ca9ff06f          	j	2904 <core_bench_list+0x10c>
    2c60:	00042c03          	lw	s8,0(s0)
    2c64:	020c0063          	beqz	s8,2c84 <core_bench_list+0x48c>
    2c68:	00442e83          	lw	t4,4(s0)
    2c6c:	01c12583          	lw	a1,28(sp)
    2c70:	000e9503          	lh	a0,0(t4)
    2c74:	704030ef          	jal	ra,6378 <crc16>
    2c78:	000c2c03          	lw	s8,0(s8)
    2c7c:	00a12e23          	sw	a0,28(sp)
    2c80:	fe0c14e3          	bnez	s8,2c68 <core_bench_list+0x470>
    2c84:	05c12083          	lw	ra,92(sp)
    2c88:	05812403          	lw	s0,88(sp)
    2c8c:	01c12503          	lw	a0,28(sp)
    2c90:	05412483          	lw	s1,84(sp)
    2c94:	05012903          	lw	s2,80(sp)
    2c98:	04c12983          	lw	s3,76(sp)
    2c9c:	04812a03          	lw	s4,72(sp)
    2ca0:	04412a83          	lw	s5,68(sp)
    2ca4:	04012b03          	lw	s6,64(sp)
    2ca8:	03c12b83          	lw	s7,60(sp)
    2cac:	03812c03          	lw	s8,56(sp)
    2cb0:	03412c83          	lw	s9,52(sp)
    2cb4:	03012d03          	lw	s10,48(sp)
    2cb8:	02c12d83          	lw	s11,44(sp)
    2cbc:	06010113          	addi	sp,sp,96
    2cc0:	00008067          	ret
    2cc4:	00100513          	li	a0,1
    2cc8:	028d0593          	addi	a1,s10,40
    2ccc:	00a12223          	sw	a0,4(sp)
    2cd0:	00b12c23          	sw	a1,24(sp)
    2cd4:	260c0c63          	beqz	s8,2f4c <core_bench_list+0x754>
    2cd8:	00000493          	li	s1,0
    2cdc:	00012423          	sw	zero,8(sp)
    2ce0:	00012823          	sw	zero,16(sp)
    2ce4:	00100993          	li	s3,1
    2ce8:	01012703          	lw	a4,16(sp)
    2cec:	00412783          	lw	a5,4(sp)
    2cf0:	000c0d93          	mv	s11,s8
    2cf4:	00170313          	addi	t1,a4,1
    2cf8:	0077f093          	andi	ra,a5,7
    2cfc:	00612823          	sw	t1,16(sp)
    2d00:	00000c93          	li	s9,0
    2d04:	08008863          	beqz	ra,2d94 <core_bench_list+0x59c>
    2d08:	00100293          	li	t0,1
    2d0c:	06508a63          	beq	ra,t0,2d80 <core_bench_list+0x588>
    2d10:	00200393          	li	t2,2
    2d14:	06708063          	beq	ra,t2,2d74 <core_bench_list+0x57c>
    2d18:	00300413          	li	s0,3
    2d1c:	04808663          	beq	ra,s0,2d68 <core_bench_list+0x570>
    2d20:	00400e93          	li	t4,4
    2d24:	03d08c63          	beq	ra,t4,2d5c <core_bench_list+0x564>
    2d28:	00500813          	li	a6,5
    2d2c:	03008263          	beq	ra,a6,2d50 <core_bench_list+0x558>
    2d30:	00600913          	li	s2,6
    2d34:	01208863          	beq	ra,s2,2d44 <core_bench_list+0x54c>
    2d38:	000c2d83          	lw	s11,0(s8)
    2d3c:	00100c93          	li	s9,1
    2d40:	0a0d8c63          	beqz	s11,2df8 <core_bench_list+0x600>
    2d44:	000dad83          	lw	s11,0(s11)
    2d48:	001c8c93          	addi	s9,s9,1
    2d4c:	0a0d8663          	beqz	s11,2df8 <core_bench_list+0x600>
    2d50:	000dad83          	lw	s11,0(s11)
    2d54:	001c8c93          	addi	s9,s9,1
    2d58:	0a0d8063          	beqz	s11,2df8 <core_bench_list+0x600>
    2d5c:	000dad83          	lw	s11,0(s11)
    2d60:	001c8c93          	addi	s9,s9,1
    2d64:	080d8a63          	beqz	s11,2df8 <core_bench_list+0x600>
    2d68:	000dad83          	lw	s11,0(s11)
    2d6c:	001c8c93          	addi	s9,s9,1
    2d70:	080d8463          	beqz	s11,2df8 <core_bench_list+0x600>
    2d74:	000dad83          	lw	s11,0(s11)
    2d78:	001c8c93          	addi	s9,s9,1
    2d7c:	060d8e63          	beqz	s11,2df8 <core_bench_list+0x600>
    2d80:	000dad83          	lw	s11,0(s11)
    2d84:	001c8c93          	addi	s9,s9,1
    2d88:	060d8863          	beqz	s11,2df8 <core_bench_list+0x600>
    2d8c:	00412a03          	lw	s4,4(sp)
    2d90:	074c8463          	beq	s9,s4,2df8 <core_bench_list+0x600>
    2d94:	000dad83          	lw	s11,0(s11)
    2d98:	001c8c93          	addi	s9,s9,1
    2d9c:	000c8a93          	mv	s5,s9
    2da0:	040d8c63          	beqz	s11,2df8 <core_bench_list+0x600>
    2da4:	000dad83          	lw	s11,0(s11)
    2da8:	001c8c93          	addi	s9,s9,1
    2dac:	040d8663          	beqz	s11,2df8 <core_bench_list+0x600>
    2db0:	000dad83          	lw	s11,0(s11)
    2db4:	002a8c93          	addi	s9,s5,2
    2db8:	040d8063          	beqz	s11,2df8 <core_bench_list+0x600>
    2dbc:	000dad83          	lw	s11,0(s11)
    2dc0:	003a8c93          	addi	s9,s5,3
    2dc4:	020d8a63          	beqz	s11,2df8 <core_bench_list+0x600>
    2dc8:	000dad83          	lw	s11,0(s11)
    2dcc:	004a8c93          	addi	s9,s5,4
    2dd0:	020d8463          	beqz	s11,2df8 <core_bench_list+0x600>
    2dd4:	000dad83          	lw	s11,0(s11)
    2dd8:	005a8c93          	addi	s9,s5,5
    2ddc:	000d8e63          	beqz	s11,2df8 <core_bench_list+0x600>
    2de0:	000dad83          	lw	s11,0(s11)
    2de4:	006a8c93          	addi	s9,s5,6
    2de8:	000d8863          	beqz	s11,2df8 <core_bench_list+0x600>
    2dec:	000dad83          	lw	s11,0(s11)
    2df0:	007a8c93          	addi	s9,s5,7
    2df4:	f80d9ce3          	bnez	s11,2d8c <core_bench_list+0x594>
    2df8:	00412b83          	lw	s7,4(sp)
    2dfc:	0e0c8863          	beqz	s9,2eec <core_bench_list+0x6f4>
    2e00:	100b8863          	beqz	s7,2f10 <core_bench_list+0x718>
    2e04:	100d8663          	beqz	s11,2f10 <core_bench_list+0x718>
    2e08:	004c2b03          	lw	s6,4(s8)
    2e0c:	004da903          	lw	s2,4(s11)
    2e10:	000b1a03          	lh	s4,0(s6)
    2e14:	080a7e13          	andi	t3,s4,128
    2e18:	07fa7a93          	andi	s5,s4,127
    2e1c:	040e1863          	bnez	t3,2e6c <core_bench_list+0x674>
    2e20:	403a5f13          	srai	t5,s4,0x3
    2e24:	00ff7893          	andi	a7,t5,15
    2e28:	00489f93          	slli	t6,a7,0x4
    2e2c:	007a7693          	andi	a3,s4,7
    2e30:	01f8e5b3          	or	a1,a7,t6
    2e34:	038d5783          	lhu	a5,56(s10)
    2e38:	14068263          	beqz	a3,2f7c <core_bench_list+0x784>
    2e3c:	11368c63          	beq	a3,s3,2f54 <core_bench_list+0x75c>
    2e40:	010a1293          	slli	t0,s4,0x10
    2e44:	0102d513          	srli	a0,t0,0x10
    2e48:	000a0a93          	mv	s5,s4
    2e4c:	00078593          	mv	a1,a5
    2e50:	599020ef          	jal	ra,5be8 <crcu16>
    2e54:	07fafa93          	andi	s5,s5,127
    2e58:	f00a7393          	andi	t2,s4,-256
    2e5c:	007ae833          	or	a6,s5,t2
    2e60:	02ad1c23          	sh	a0,56(s10)
    2e64:	08086613          	ori	a2,a6,128
    2e68:	00cb1023          	sh	a2,0(s6)
    2e6c:	00091b03          	lh	s6,0(s2)
    2e70:	080b7e93          	andi	t4,s6,128
    2e74:	07fb7313          	andi	t1,s6,127
    2e78:	040e9863          	bnez	t4,2ec8 <core_bench_list+0x6d0>
    2e7c:	403b5413          	srai	s0,s6,0x3
    2e80:	00f47a13          	andi	s4,s0,15
    2e84:	004a1e13          	slli	t3,s4,0x4
    2e88:	007b7f13          	andi	t5,s6,7
    2e8c:	01ca65b3          	or	a1,s4,t3
    2e90:	038d5783          	lhu	a5,56(s10)
    2e94:	140f0a63          	beqz	t5,2fe8 <core_bench_list+0x7f0>
    2e98:	133f0463          	beq	t5,s3,2fc0 <core_bench_list+0x7c8>
    2e9c:	010b1513          	slli	a0,s6,0x10
    2ea0:	01055513          	srli	a0,a0,0x10
    2ea4:	000b0413          	mv	s0,s6
    2ea8:	00078593          	mv	a1,a5
    2eac:	53d020ef          	jal	ra,5be8 <crcu16>
    2eb0:	07f47313          	andi	t1,s0,127
    2eb4:	f00b7293          	andi	t0,s6,-256
    2eb8:	005363b3          	or	t2,t1,t0
    2ebc:	02ad1c23          	sh	a0,56(s10)
    2ec0:	0803e813          	ori	a6,t2,128
    2ec4:	01091023          	sh	a6,0(s2)
    2ec8:	406a8933          	sub	s2,s5,t1
    2ecc:	05205263          	blez	s2,2f10 <core_bench_list+0x718>
    2ed0:	000d8093          	mv	ra,s11
    2ed4:	000dad83          	lw	s11,0(s11)
    2ed8:	fffb8b93          	addi	s7,s7,-1
    2edc:	02048463          	beqz	s1,2f04 <core_bench_list+0x70c>
    2ee0:	0014a023          	sw	ra,0(s1)
    2ee4:	00008493          	mv	s1,ra
    2ee8:	f00c9ce3          	bnez	s9,2e00 <core_bench_list+0x608>
    2eec:	020b8a63          	beqz	s7,2f20 <core_bench_list+0x728>
    2ef0:	020d8c63          	beqz	s11,2f28 <core_bench_list+0x730>
    2ef4:	000d8093          	mv	ra,s11
    2ef8:	fffb8b93          	addi	s7,s7,-1
    2efc:	000dad83          	lw	s11,0(s11)
    2f00:	fe0490e3          	bnez	s1,2ee0 <core_bench_list+0x6e8>
    2f04:	00112423          	sw	ra,8(sp)
    2f08:	00008493          	mv	s1,ra
    2f0c:	fddff06f          	j	2ee8 <core_bench_list+0x6f0>
    2f10:	000c0093          	mv	ra,s8
    2f14:	fffc8c93          	addi	s9,s9,-1
    2f18:	000c2c03          	lw	s8,0(s8)
    2f1c:	fc1ff06f          	j	2edc <core_bench_list+0x6e4>
    2f20:	000d8c13          	mv	s8,s11
    2f24:	dc0d92e3          	bnez	s11,2ce8 <core_bench_list+0x4f0>
    2f28:	0004a023          	sw	zero,0(s1)
    2f2c:	01012483          	lw	s1,16(sp)
    2f30:	00100c13          	li	s8,1
    2f34:	11848063          	beq	s1,s8,3034 <core_bench_list+0x83c>
    2f38:	00412983          	lw	s3,4(sp)
    2f3c:	00812c03          	lw	s8,8(sp)
    2f40:	00199b13          	slli	s6,s3,0x1
    2f44:	01612223          	sw	s6,4(sp)
    2f48:	d80c18e3          	bnez	s8,2cd8 <core_bench_list+0x4e0>
    2f4c:	00002023          	sw	zero,0(zero) # 0 <_start-0x800>
    2f50:	00100073          	ebreak
    2f54:	01812503          	lw	a0,24(sp)
    2f58:	00078613          	mv	a2,a5
    2f5c:	3dc020ef          	jal	ra,5338 <core_bench_matrix>
    2f60:	03cd5703          	lhu	a4,60(s10)
    2f64:	01051313          	slli	t1,a0,0x10
    2f68:	41035a93          	srai	s5,t1,0x10
    2f6c:	04071663          	bnez	a4,2fb8 <core_bench_list+0x7c0>
    2f70:	038d5783          	lhu	a5,56(s10)
    2f74:	02ad1e23          	sh	a0,60(s10)
    2f78:	ed5ff06f          	j	2e4c <core_bench_list+0x654>
    2f7c:	02200513          	li	a0,34
    2f80:	00058093          	mv	ra,a1
    2f84:	00a5d463          	bge	a1,a0,2f8c <core_bench_list+0x794>
    2f88:	02200093          	li	ra,34
    2f8c:	014d2583          	lw	a1,20(s10)
    2f90:	002d1683          	lh	a3,2(s10)
    2f94:	000d1603          	lh	a2,0(s10)
    2f98:	018d2503          	lw	a0,24(s10)
    2f9c:	0ff0f713          	andi	a4,ra,255
    2fa0:	211020ef          	jal	ra,59b0 <core_bench_state>
    2fa4:	03ed5583          	lhu	a1,62(s10)
    2fa8:	01051793          	slli	a5,a0,0x10
    2fac:	4107da93          	srai	s5,a5,0x10
    2fb0:	00059463          	bnez	a1,2fb8 <core_bench_list+0x7c0>
    2fb4:	02ad1f23          	sh	a0,62(s10)
    2fb8:	038d5783          	lhu	a5,56(s10)
    2fbc:	e91ff06f          	j	2e4c <core_bench_list+0x654>
    2fc0:	01812503          	lw	a0,24(sp)
    2fc4:	00078613          	mv	a2,a5
    2fc8:	370020ef          	jal	ra,5338 <core_bench_matrix>
    2fcc:	03cd5783          	lhu	a5,60(s10)
    2fd0:	01051713          	slli	a4,a0,0x10
    2fd4:	41075413          	srai	s0,a4,0x10
    2fd8:	04079663          	bnez	a5,3024 <core_bench_list+0x82c>
    2fdc:	038d5783          	lhu	a5,56(s10)
    2fe0:	02ad1e23          	sh	a0,60(s10)
    2fe4:	ec5ff06f          	j	2ea8 <core_bench_list+0x6b0>
    2fe8:	02200893          	li	a7,34
    2fec:	00058f93          	mv	t6,a1
    2ff0:	0115d463          	bge	a1,a7,2ff8 <core_bench_list+0x800>
    2ff4:	02200f93          	li	t6,34
    2ff8:	002d1683          	lh	a3,2(s10)
    2ffc:	014d2583          	lw	a1,20(s10)
    3000:	000d1603          	lh	a2,0(s10)
    3004:	018d2503          	lw	a0,24(s10)
    3008:	0ffff713          	andi	a4,t6,255
    300c:	1a5020ef          	jal	ra,59b0 <core_bench_state>
    3010:	03ed5683          	lhu	a3,62(s10)
    3014:	01051593          	slli	a1,a0,0x10
    3018:	4105d413          	srai	s0,a1,0x10
    301c:	00069463          	bnez	a3,3024 <core_bench_list+0x82c>
    3020:	02ad1f23          	sh	a0,62(s10)
    3024:	038d5783          	lhu	a5,56(s10)
    3028:	e81ff06f          	j	2ea8 <core_bench_list+0x6b0>
    302c:	00012e23          	sw	zero,28(sp)
    3030:	915ff06f          	j	2944 <core_bench_list+0x14c>
    3034:	00812c03          	lw	s8,8(sp)
    3038:	915ff06f          	j	294c <core_bench_list+0x154>
    303c:	00002783          	lw	a5,0(zero) # 0 <_start-0x800>
    3040:	00100073          	ebreak

00003044 <core_list_init>:
    3044:	01400793          	li	a5,20
    3048:	02f55533          	divu	a0,a0,a5
    304c:	ffff8837          	lui	a6,0xffff8
    3050:	0005a023          	sw	zero,0(a1)
    3054:	08080693          	addi	a3,a6,128 # ffff8080 <__freertos_irq_stack_top+0xefff0080>
    3058:	01058713          	addi	a4,a1,16
    305c:	00858793          	addi	a5,a1,8
    3060:	ffe50513          	addi	a0,a0,-2
    3064:	00351893          	slli	a7,a0,0x3
    3068:	011588b3          	add	a7,a1,a7
    306c:	0115a223          	sw	a7,4(a1)
    3070:	00251e13          	slli	t3,a0,0x2
    3074:	00089123          	sh	zero,2(a7)
    3078:	00d89023          	sh	a3,0(a7)
    307c:	01c88e33          	add	t3,a7,t3
    3080:	00488313          	addi	t1,a7,4
    3084:	53177263          	bgeu	a4,a7,35a8 <core_list_init+0x564>
    3088:	00888693          	addi	a3,a7,8
    308c:	51c6fe63          	bgeu	a3,t3,35a8 <core_list_init+0x564>
    3090:	0005a423          	sw	zero,8(a1)
    3094:	00f5a023          	sw	a5,0(a1)
    3098:	0065a623          	sw	t1,12(a1)
    309c:	fff84293          	not	t0,a6
    30a0:	fff00393          	li	t2,-1
    30a4:	00789223          	sh	t2,4(a7)
    30a8:	00589323          	sh	t0,6(a7)
    30ac:	28050663          	beqz	a0,3338 <core_list_init+0x2f4>
    30b0:	01061f13          	slli	t5,a2,0x10
    30b4:	ffff8eb7          	lui	t4,0xffff8
    30b8:	00357313          	andi	t1,a0,3
    30bc:	010f5f13          	srli	t5,t5,0x10
    30c0:	00000813          	li	a6,0
    30c4:	fffece93          	not	t4,t4
    30c8:	10030663          	beqz	t1,31d4 <core_list_init+0x190>
    30cc:	00100f93          	li	t6,1
    30d0:	0bf30463          	beq	t1,t6,3178 <core_list_init+0x134>
    30d4:	00200293          	li	t0,2
    30d8:	04530463          	beq	t1,t0,3120 <core_list_init+0xdc>
    30dc:	00870393          	addi	t2,a4,8
    30e0:	0313fe63          	bgeu	t2,a7,311c <core_list_init+0xd8>
    30e4:	00468313          	addi	t1,a3,4
    30e8:	03c37a63          	bgeu	t1,t3,311c <core_list_init+0xd8>
    30ec:	003f1813          	slli	a6,t5,0x3
    30f0:	00f72023          	sw	a5,0(a4)
    30f4:	07887793          	andi	a5,a6,120
    30f8:	00e5a023          	sw	a4,0(a1)
    30fc:	00879f93          	slli	t6,a5,0x8
    3100:	00d72223          	sw	a3,4(a4)
    3104:	00ffe2b3          	or	t0,t6,a5
    3108:	00569023          	sh	t0,0(a3)
    310c:	01d69123          	sh	t4,2(a3)
    3110:	00070793          	mv	a5,a4
    3114:	00030693          	mv	a3,t1
    3118:	00038713          	mv	a4,t2
    311c:	00100813          	li	a6,1
    3120:	00870293          	addi	t0,a4,8
    3124:	0512f863          	bgeu	t0,a7,3174 <core_list_init+0x130>
    3128:	00468393          	addi	t2,a3,4
    312c:	05c3f463          	bgeu	t2,t3,3174 <core_list_init+0x130>
    3130:	01081313          	slli	t1,a6,0x10
    3134:	01035f93          	srli	t6,t1,0x10
    3138:	01efc333          	xor	t1,t6,t5
    313c:	00331313          	slli	t1,t1,0x3
    3140:	07837313          	andi	t1,t1,120
    3144:	007fff93          	andi	t6,t6,7
    3148:	00f72023          	sw	a5,0(a4)
    314c:	01f367b3          	or	a5,t1,t6
    3150:	00e5a023          	sw	a4,0(a1)
    3154:	00879313          	slli	t1,a5,0x8
    3158:	00d72223          	sw	a3,4(a4)
    315c:	00f36fb3          	or	t6,t1,a5
    3160:	01f69023          	sh	t6,0(a3)
    3164:	01d69123          	sh	t4,2(a3)
    3168:	00070793          	mv	a5,a4
    316c:	00038693          	mv	a3,t2
    3170:	00028713          	mv	a4,t0
    3174:	00180813          	addi	a6,a6,1
    3178:	00870293          	addi	t0,a4,8
    317c:	0512f863          	bgeu	t0,a7,31cc <core_list_init+0x188>
    3180:	00468393          	addi	t2,a3,4
    3184:	05c3f463          	bgeu	t2,t3,31cc <core_list_init+0x188>
    3188:	01081313          	slli	t1,a6,0x10
    318c:	01035f93          	srli	t6,t1,0x10
    3190:	01efc333          	xor	t1,t6,t5
    3194:	00331313          	slli	t1,t1,0x3
    3198:	07837313          	andi	t1,t1,120
    319c:	007fff93          	andi	t6,t6,7
    31a0:	00f72023          	sw	a5,0(a4)
    31a4:	01f367b3          	or	a5,t1,t6
    31a8:	00e5a023          	sw	a4,0(a1)
    31ac:	00879313          	slli	t1,a5,0x8
    31b0:	00d72223          	sw	a3,4(a4)
    31b4:	00f36fb3          	or	t6,t1,a5
    31b8:	01f69023          	sh	t6,0(a3)
    31bc:	01d69123          	sh	t4,2(a3)
    31c0:	00070793          	mv	a5,a4
    31c4:	00038693          	mv	a3,t2
    31c8:	00028713          	mv	a4,t0
    31cc:	00180813          	addi	a6,a6,1
    31d0:	17050463          	beq	a0,a6,3338 <core_list_init+0x2f4>
    31d4:	00870293          	addi	t0,a4,8
    31d8:	0512f863          	bgeu	t0,a7,3228 <core_list_init+0x1e4>
    31dc:	00468393          	addi	t2,a3,4
    31e0:	05c3f463          	bgeu	t2,t3,3228 <core_list_init+0x1e4>
    31e4:	01081313          	slli	t1,a6,0x10
    31e8:	01035f93          	srli	t6,t1,0x10
    31ec:	01efc333          	xor	t1,t6,t5
    31f0:	00331313          	slli	t1,t1,0x3
    31f4:	07837313          	andi	t1,t1,120
    31f8:	007fff93          	andi	t6,t6,7
    31fc:	00f72023          	sw	a5,0(a4)
    3200:	01f367b3          	or	a5,t1,t6
    3204:	00e5a023          	sw	a4,0(a1)
    3208:	00879313          	slli	t1,a5,0x8
    320c:	00d72223          	sw	a3,4(a4)
    3210:	00f36fb3          	or	t6,t1,a5
    3214:	01f69023          	sh	t6,0(a3)
    3218:	01d69123          	sh	t4,2(a3)
    321c:	00070793          	mv	a5,a4
    3220:	00038693          	mv	a3,t2
    3224:	00028713          	mv	a4,t0
    3228:	00870293          	addi	t0,a4,8
    322c:	00180813          	addi	a6,a6,1
    3230:	0512f863          	bgeu	t0,a7,3280 <core_list_init+0x23c>
    3234:	00468393          	addi	t2,a3,4
    3238:	05c3f463          	bgeu	t2,t3,3280 <core_list_init+0x23c>
    323c:	01081313          	slli	t1,a6,0x10
    3240:	01035f93          	srli	t6,t1,0x10
    3244:	01efc333          	xor	t1,t6,t5
    3248:	00331313          	slli	t1,t1,0x3
    324c:	07837313          	andi	t1,t1,120
    3250:	007fff93          	andi	t6,t6,7
    3254:	00f72023          	sw	a5,0(a4)
    3258:	01f367b3          	or	a5,t1,t6
    325c:	00e5a023          	sw	a4,0(a1)
    3260:	00879313          	slli	t1,a5,0x8
    3264:	00d72223          	sw	a3,4(a4)
    3268:	00f36fb3          	or	t6,t1,a5
    326c:	01f69023          	sh	t6,0(a3)
    3270:	01d69123          	sh	t4,2(a3)
    3274:	00070793          	mv	a5,a4
    3278:	00038693          	mv	a3,t2
    327c:	00028713          	mv	a4,t0
    3280:	00870293          	addi	t0,a4,8
    3284:	00180313          	addi	t1,a6,1
    3288:	0512f863          	bgeu	t0,a7,32d8 <core_list_init+0x294>
    328c:	00468393          	addi	t2,a3,4
    3290:	05c3f463          	bgeu	t2,t3,32d8 <core_list_init+0x294>
    3294:	01031f93          	slli	t6,t1,0x10
    3298:	010fdf93          	srli	t6,t6,0x10
    329c:	01efc333          	xor	t1,t6,t5
    32a0:	00331313          	slli	t1,t1,0x3
    32a4:	07837313          	andi	t1,t1,120
    32a8:	007fff93          	andi	t6,t6,7
    32ac:	00f72023          	sw	a5,0(a4)
    32b0:	01f367b3          	or	a5,t1,t6
    32b4:	00e5a023          	sw	a4,0(a1)
    32b8:	00879313          	slli	t1,a5,0x8
    32bc:	00d72223          	sw	a3,4(a4)
    32c0:	00f36fb3          	or	t6,t1,a5
    32c4:	01f69023          	sh	t6,0(a3)
    32c8:	01d69123          	sh	t4,2(a3)
    32cc:	00070793          	mv	a5,a4
    32d0:	00038693          	mv	a3,t2
    32d4:	00028713          	mv	a4,t0
    32d8:	00870293          	addi	t0,a4,8
    32dc:	00280313          	addi	t1,a6,2
    32e0:	0512f863          	bgeu	t0,a7,3330 <core_list_init+0x2ec>
    32e4:	00468393          	addi	t2,a3,4
    32e8:	05c3f463          	bgeu	t2,t3,3330 <core_list_init+0x2ec>
    32ec:	01031f93          	slli	t6,t1,0x10
    32f0:	010fdf93          	srli	t6,t6,0x10
    32f4:	01efc333          	xor	t1,t6,t5
    32f8:	00331313          	slli	t1,t1,0x3
    32fc:	07837313          	andi	t1,t1,120
    3300:	007fff93          	andi	t6,t6,7
    3304:	00f72023          	sw	a5,0(a4)
    3308:	01f367b3          	or	a5,t1,t6
    330c:	00e5a023          	sw	a4,0(a1)
    3310:	00879313          	slli	t1,a5,0x8
    3314:	00d72223          	sw	a3,4(a4)
    3318:	00f36fb3          	or	t6,t1,a5
    331c:	01f69023          	sh	t6,0(a3)
    3320:	01d69123          	sh	t4,2(a3)
    3324:	00070793          	mv	a5,a4
    3328:	00038693          	mv	a3,t2
    332c:	00028713          	mv	a4,t0
    3330:	00380813          	addi	a6,a6,3
    3334:	eb0510e3          	bne	a0,a6,31d4 <core_list_init+0x190>
    3338:	0007a883          	lw	a7,0(a5)
    333c:	06088663          	beqz	a7,33a8 <core_list_init+0x364>
    3340:	00500e13          	li	t3,5
    3344:	03c55f33          	divu	t5,a0,t3
    3348:	00004537          	lui	a0,0x4
    334c:	00100693          	li	a3,1
    3350:	fff50e93          	addi	t4,a0,-1 # 3fff <matrix_test+0x37>
    3354:	0180006f          	j	336c <core_list_init+0x328>
    3358:	0007a783          	lw	a5,0(a5)
    335c:	00d29123          	sh	a3,2(t0)
    3360:	00168693          	addi	a3,a3,1
    3364:	0007a283          	lw	t0,0(a5)
    3368:	04028063          	beqz	t0,33a8 <core_list_init+0x364>
    336c:	0047a283          	lw	t0,4(a5)
    3370:	ffe6e4e3          	bltu	a3,t5,3358 <core_list_init+0x314>
    3374:	01069393          	slli	t2,a3,0x10
    3378:	0103d313          	srli	t1,t2,0x10
    337c:	00130f93          	addi	t6,t1,1
    3380:	008f9713          	slli	a4,t6,0x8
    3384:	70077813          	andi	a6,a4,1792
    3388:	00c348b3          	xor	a7,t1,a2
    338c:	0007a783          	lw	a5,0(a5)
    3390:	01186e33          	or	t3,a6,a7
    3394:	01de7533          	and	a0,t3,t4
    3398:	00a29123          	sh	a0,2(t0)
    339c:	0007a283          	lw	t0,0(a5)
    33a0:	00168693          	addi	a3,a3,1
    33a4:	fc0294e3          	bnez	t0,336c <core_list_init+0x328>
    33a8:	00100813          	li	a6,1
    33ac:	00000893          	li	a7,0
    33b0:	00000513          	li	a0,0
    33b4:	00000f93          	li	t6,0
    33b8:	00100293          	li	t0,1
    33bc:	00787f13          	andi	t5,a6,7
    33c0:	001f8f93          	addi	t6,t6,1
    33c4:	00058793          	mv	a5,a1
    33c8:	00000713          	li	a4,0
    33cc:	080f0663          	beqz	t5,3458 <core_list_init+0x414>
    33d0:	00100613          	li	a2,1
    33d4:	06cf0a63          	beq	t5,a2,3448 <core_list_init+0x404>
    33d8:	00200e93          	li	t4,2
    33dc:	07df0063          	beq	t5,t4,343c <core_list_init+0x3f8>
    33e0:	00300393          	li	t2,3
    33e4:	047f0663          	beq	t5,t2,3430 <core_list_init+0x3ec>
    33e8:	00400313          	li	t1,4
    33ec:	026f0c63          	beq	t5,t1,3424 <core_list_init+0x3e0>
    33f0:	00500e13          	li	t3,5
    33f4:	03cf0263          	beq	t5,t3,3418 <core_list_init+0x3d4>
    33f8:	00600693          	li	a3,6
    33fc:	00df0863          	beq	t5,a3,340c <core_list_init+0x3c8>
    3400:	0005a783          	lw	a5,0(a1)
    3404:	00100713          	li	a4,1
    3408:	0a078a63          	beqz	a5,34bc <core_list_init+0x478>
    340c:	0007a783          	lw	a5,0(a5)
    3410:	00170713          	addi	a4,a4,1
    3414:	0a078463          	beqz	a5,34bc <core_list_init+0x478>
    3418:	0007a783          	lw	a5,0(a5)
    341c:	00170713          	addi	a4,a4,1
    3420:	08078e63          	beqz	a5,34bc <core_list_init+0x478>
    3424:	0007a783          	lw	a5,0(a5)
    3428:	00170713          	addi	a4,a4,1
    342c:	08078863          	beqz	a5,34bc <core_list_init+0x478>
    3430:	0007a783          	lw	a5,0(a5)
    3434:	00170713          	addi	a4,a4,1
    3438:	08078263          	beqz	a5,34bc <core_list_init+0x478>
    343c:	0007a783          	lw	a5,0(a5)
    3440:	00170713          	addi	a4,a4,1
    3444:	06078c63          	beqz	a5,34bc <core_list_init+0x478>
    3448:	0007a783          	lw	a5,0(a5)
    344c:	00170713          	addi	a4,a4,1
    3450:	06078663          	beqz	a5,34bc <core_list_init+0x478>
    3454:	07070463          	beq	a4,a6,34bc <core_list_init+0x478>
    3458:	0007a783          	lw	a5,0(a5)
    345c:	00170713          	addi	a4,a4,1
    3460:	00070f13          	mv	t5,a4
    3464:	04078c63          	beqz	a5,34bc <core_list_init+0x478>
    3468:	0007a783          	lw	a5,0(a5)
    346c:	00170713          	addi	a4,a4,1
    3470:	04078663          	beqz	a5,34bc <core_list_init+0x478>
    3474:	0007a783          	lw	a5,0(a5)
    3478:	002f0713          	addi	a4,t5,2
    347c:	04078063          	beqz	a5,34bc <core_list_init+0x478>
    3480:	0007a783          	lw	a5,0(a5)
    3484:	003f0713          	addi	a4,t5,3
    3488:	02078a63          	beqz	a5,34bc <core_list_init+0x478>
    348c:	0007a783          	lw	a5,0(a5)
    3490:	004f0713          	addi	a4,t5,4
    3494:	02078463          	beqz	a5,34bc <core_list_init+0x478>
    3498:	0007a783          	lw	a5,0(a5)
    349c:	005f0713          	addi	a4,t5,5
    34a0:	00078e63          	beqz	a5,34bc <core_list_init+0x478>
    34a4:	0007a783          	lw	a5,0(a5)
    34a8:	006f0713          	addi	a4,t5,6
    34ac:	00078863          	beqz	a5,34bc <core_list_init+0x478>
    34b0:	0007a783          	lw	a5,0(a5)
    34b4:	007f0713          	addi	a4,t5,7
    34b8:	f8079ee3          	bnez	a5,3454 <core_list_init+0x410>
    34bc:	00058693          	mv	a3,a1
    34c0:	00080613          	mv	a2,a6
    34c4:	00078593          	mv	a1,a5
    34c8:	06070c63          	beqz	a4,3540 <core_list_init+0x4fc>
    34cc:	08060c63          	beqz	a2,3564 <core_list_init+0x520>
    34d0:	08058a63          	beqz	a1,3564 <core_list_init+0x520>
    34d4:	0046ae83          	lw	t4,4(a3)
    34d8:	0045ae03          	lw	t3,4(a1)
    34dc:	000e9783          	lh	a5,0(t4) # ffff8000 <__freertos_irq_stack_top+0xefff0000>
    34e0:	002e1383          	lh	t2,2(t3)
    34e4:	002e9303          	lh	t1,2(t4)
    34e8:	01079f13          	slli	t5,a5,0x10
    34ec:	010f5f13          	srli	t5,t5,0x10
    34f0:	008f5f13          	srli	t5,t5,0x8
    34f4:	f007f793          	andi	a5,a5,-256
    34f8:	01e7e7b3          	or	a5,a5,t5
    34fc:	00fe9023          	sh	a5,0(t4)
    3500:	000e1f03          	lh	t5,0(t3)
    3504:	40730333          	sub	t1,t1,t2
    3508:	010f1e93          	slli	t4,t5,0x10
    350c:	010ed393          	srli	t2,t4,0x10
    3510:	f00f7793          	andi	a5,t5,-256
    3514:	0083df13          	srli	t5,t2,0x8
    3518:	01e7eeb3          	or	t4,a5,t5
    351c:	01de1023          	sh	t4,0(t3)
    3520:	04605263          	blez	t1,3564 <core_list_init+0x520>
    3524:	00058e13          	mv	t3,a1
    3528:	0005a583          	lw	a1,0(a1)
    352c:	fff60613          	addi	a2,a2,-1
    3530:	02088463          	beqz	a7,3558 <core_list_init+0x514>
    3534:	01c8a023          	sw	t3,0(a7)
    3538:	000e0893          	mv	a7,t3
    353c:	f80718e3          	bnez	a4,34cc <core_list_init+0x488>
    3540:	02060a63          	beqz	a2,3574 <core_list_init+0x530>
    3544:	02058a63          	beqz	a1,3578 <core_list_init+0x534>
    3548:	00058e13          	mv	t3,a1
    354c:	fff60613          	addi	a2,a2,-1
    3550:	0005a583          	lw	a1,0(a1)
    3554:	fe0890e3          	bnez	a7,3534 <core_list_init+0x4f0>
    3558:	000e0513          	mv	a0,t3
    355c:	000e0893          	mv	a7,t3
    3560:	fddff06f          	j	353c <core_list_init+0x4f8>
    3564:	00068e13          	mv	t3,a3
    3568:	fff70713          	addi	a4,a4,-1
    356c:	0006a683          	lw	a3,0(a3)
    3570:	fc1ff06f          	j	3530 <core_list_init+0x4ec>
    3574:	e40594e3          	bnez	a1,33bc <core_list_init+0x378>
    3578:	0008a023          	sw	zero,0(a7)
    357c:	025f8063          	beq	t6,t0,359c <core_list_init+0x558>
    3580:	00181813          	slli	a6,a6,0x1
    3584:	00050e63          	beqz	a0,35a0 <core_list_init+0x55c>
    3588:	00050593          	mv	a1,a0
    358c:	00000f93          	li	t6,0
    3590:	00000893          	li	a7,0
    3594:	00000513          	li	a0,0
    3598:	e25ff06f          	j	33bc <core_list_init+0x378>
    359c:	00008067          	ret
    35a0:	00002023          	sw	zero,0(zero) # 0 <_start-0x800>
    35a4:	00100073          	ebreak
    35a8:	00078713          	mv	a4,a5
    35ac:	00030693          	mv	a3,t1
    35b0:	00000793          	li	a5,0
    35b4:	af9ff06f          	j	30ac <core_list_init+0x68>

000035b8 <iterate>:
    35b8:	fe010113          	addi	sp,sp,-32
    35bc:	01312623          	sw	s3,12(sp)
    35c0:	01c52983          	lw	s3,28(a0)
    35c4:	00112e23          	sw	ra,28(sp)
    35c8:	00812c23          	sw	s0,24(sp)
    35cc:	00912a23          	sw	s1,20(sp)
    35d0:	01212823          	sw	s2,16(sp)
    35d4:	01412423          	sw	s4,8(sp)
    35d8:	01512223          	sw	s5,4(sp)
    35dc:	02052c23          	sw	zero,56(a0)
    35e0:	02052e23          	sw	zero,60(a0)
    35e4:	1c098263          	beqz	s3,37a8 <iterate+0x1f0>
    35e8:	0039f793          	andi	a5,s3,3
    35ec:	00050413          	mv	s0,a0
    35f0:	00000493          	li	s1,0
    35f4:	0a078e63          	beqz	a5,36b0 <iterate+0xf8>
    35f8:	00100713          	li	a4,1
    35fc:	06e78c63          	beq	a5,a4,3674 <iterate+0xbc>
    3600:	00200093          	li	ra,2
    3604:	02178c63          	beq	a5,ra,363c <iterate+0x84>
    3608:	00100593          	li	a1,1
    360c:	9ecff0ef          	jal	ra,27f8 <core_bench_list>
    3610:	03845583          	lhu	a1,56(s0)
    3614:	00100493          	li	s1,1
    3618:	5d0020ef          	jal	ra,5be8 <crcu16>
    361c:	02a41c23          	sh	a0,56(s0)
    3620:	fff00593          	li	a1,-1
    3624:	00040513          	mv	a0,s0
    3628:	9d0ff0ef          	jal	ra,27f8 <core_bench_list>
    362c:	03845583          	lhu	a1,56(s0)
    3630:	5b8020ef          	jal	ra,5be8 <crcu16>
    3634:	02a41c23          	sh	a0,56(s0)
    3638:	02a41d23          	sh	a0,58(s0)
    363c:	00100593          	li	a1,1
    3640:	00040513          	mv	a0,s0
    3644:	9b4ff0ef          	jal	ra,27f8 <core_bench_list>
    3648:	03845583          	lhu	a1,56(s0)
    364c:	59c020ef          	jal	ra,5be8 <crcu16>
    3650:	02a41c23          	sh	a0,56(s0)
    3654:	fff00593          	li	a1,-1
    3658:	00040513          	mv	a0,s0
    365c:	99cff0ef          	jal	ra,27f8 <core_bench_list>
    3660:	03845583          	lhu	a1,56(s0)
    3664:	584020ef          	jal	ra,5be8 <crcu16>
    3668:	02a41c23          	sh	a0,56(s0)
    366c:	18048063          	beqz	s1,37ec <iterate+0x234>
    3670:	00148493          	addi	s1,s1,1
    3674:	00100593          	li	a1,1
    3678:	00040513          	mv	a0,s0
    367c:	97cff0ef          	jal	ra,27f8 <core_bench_list>
    3680:	03845583          	lhu	a1,56(s0)
    3684:	564020ef          	jal	ra,5be8 <crcu16>
    3688:	02a41c23          	sh	a0,56(s0)
    368c:	fff00593          	li	a1,-1
    3690:	00040513          	mv	a0,s0
    3694:	964ff0ef          	jal	ra,27f8 <core_bench_list>
    3698:	03845583          	lhu	a1,56(s0)
    369c:	54c020ef          	jal	ra,5be8 <crcu16>
    36a0:	02a41c23          	sh	a0,56(s0)
    36a4:	12048c63          	beqz	s1,37dc <iterate+0x224>
    36a8:	00148493          	addi	s1,s1,1
    36ac:	0e998e63          	beq	s3,s1,37a8 <iterate+0x1f0>
    36b0:	00100593          	li	a1,1
    36b4:	00040513          	mv	a0,s0
    36b8:	940ff0ef          	jal	ra,27f8 <core_bench_list>
    36bc:	03845583          	lhu	a1,56(s0)
    36c0:	00148913          	addi	s2,s1,1
    36c4:	524020ef          	jal	ra,5be8 <crcu16>
    36c8:	02a41c23          	sh	a0,56(s0)
    36cc:	fff00593          	li	a1,-1
    36d0:	00040513          	mv	a0,s0
    36d4:	924ff0ef          	jal	ra,27f8 <core_bench_list>
    36d8:	03845583          	lhu	a1,56(s0)
    36dc:	50c020ef          	jal	ra,5be8 <crcu16>
    36e0:	00050293          	mv	t0,a0
    36e4:	02541c23          	sh	t0,56(s0)
    36e8:	00100593          	li	a1,1
    36ec:	00040513          	mv	a0,s0
    36f0:	00049463          	bnez	s1,36f8 <iterate+0x140>
    36f4:	02541d23          	sh	t0,58(s0)
    36f8:	900ff0ef          	jal	ra,27f8 <core_bench_list>
    36fc:	03845583          	lhu	a1,56(s0)
    3700:	4e8020ef          	jal	ra,5be8 <crcu16>
    3704:	02a41c23          	sh	a0,56(s0)
    3708:	fff00593          	li	a1,-1
    370c:	00040513          	mv	a0,s0
    3710:	8e8ff0ef          	jal	ra,27f8 <core_bench_list>
    3714:	03845583          	lhu	a1,56(s0)
    3718:	4d0020ef          	jal	ra,5be8 <crcu16>
    371c:	02a41c23          	sh	a0,56(s0)
    3720:	00091463          	bnez	s2,3728 <iterate+0x170>
    3724:	02a41d23          	sh	a0,58(s0)
    3728:	00100593          	li	a1,1
    372c:	00040513          	mv	a0,s0
    3730:	8c8ff0ef          	jal	ra,27f8 <core_bench_list>
    3734:	03845583          	lhu	a1,56(s0)
    3738:	00190a93          	addi	s5,s2,1
    373c:	00290a13          	addi	s4,s2,2
    3740:	4a8020ef          	jal	ra,5be8 <crcu16>
    3744:	02a41c23          	sh	a0,56(s0)
    3748:	fff00593          	li	a1,-1
    374c:	00040513          	mv	a0,s0
    3750:	8a8ff0ef          	jal	ra,27f8 <core_bench_list>
    3754:	03845583          	lhu	a1,56(s0)
    3758:	00390493          	addi	s1,s2,3
    375c:	48c020ef          	jal	ra,5be8 <crcu16>
    3760:	00050313          	mv	t1,a0
    3764:	02641c23          	sh	t1,56(s0)
    3768:	00100593          	li	a1,1
    376c:	00040513          	mv	a0,s0
    3770:	000a9463          	bnez	s5,3778 <iterate+0x1c0>
    3774:	02641d23          	sh	t1,58(s0)
    3778:	880ff0ef          	jal	ra,27f8 <core_bench_list>
    377c:	03845583          	lhu	a1,56(s0)
    3780:	468020ef          	jal	ra,5be8 <crcu16>
    3784:	02a41c23          	sh	a0,56(s0)
    3788:	fff00593          	li	a1,-1
    378c:	00040513          	mv	a0,s0
    3790:	868ff0ef          	jal	ra,27f8 <core_bench_list>
    3794:	03845583          	lhu	a1,56(s0)
    3798:	450020ef          	jal	ra,5be8 <crcu16>
    379c:	02a41c23          	sh	a0,56(s0)
    37a0:	020a0863          	beqz	s4,37d0 <iterate+0x218>
    37a4:	f09996e3          	bne	s3,s1,36b0 <iterate+0xf8>
    37a8:	01c12083          	lw	ra,28(sp)
    37ac:	01812403          	lw	s0,24(sp)
    37b0:	01412483          	lw	s1,20(sp)
    37b4:	01012903          	lw	s2,16(sp)
    37b8:	00c12983          	lw	s3,12(sp)
    37bc:	00812a03          	lw	s4,8(sp)
    37c0:	00412a83          	lw	s5,4(sp)
    37c4:	00000513          	li	a0,0
    37c8:	02010113          	addi	sp,sp,32
    37cc:	00008067          	ret
    37d0:	02a41d23          	sh	a0,58(s0)
    37d4:	ec999ee3          	bne	s3,s1,36b0 <iterate+0xf8>
    37d8:	fd1ff06f          	j	37a8 <iterate+0x1f0>
    37dc:	02a41d23          	sh	a0,58(s0)
    37e0:	00148493          	addi	s1,s1,1
    37e4:	ec9996e3          	bne	s3,s1,36b0 <iterate+0xf8>
    37e8:	fc1ff06f          	j	37a8 <iterate+0x1f0>
    37ec:	02a41d23          	sh	a0,58(s0)
    37f0:	00148493          	addi	s1,s1,1
    37f4:	e81ff06f          	j	3674 <iterate+0xbc>

000037f8 <core_init_matrix>:
    37f8:	fd010113          	addi	sp,sp,-48
    37fc:	02812623          	sw	s0,44(sp)
    3800:	02912423          	sw	s1,40(sp)
    3804:	03212223          	sw	s2,36(sp)
    3808:	03312023          	sw	s3,32(sp)
    380c:	01412e23          	sw	s4,28(sp)
    3810:	01512c23          	sw	s5,24(sp)
    3814:	01612a23          	sw	s6,20(sp)
    3818:	01712823          	sw	s7,16(sp)
    381c:	01812623          	sw	s8,12(sp)
    3820:	01912423          	sw	s9,8(sp)
    3824:	00050813          	mv	a6,a0
    3828:	00061463          	bnez	a2,3830 <core_init_matrix+0x38>
    382c:	00100613          	li	a2,1
    3830:	00358593          	addi	a1,a1,3
    3834:	ffc5f913          	andi	s2,a1,-4
    3838:	00000513          	li	a0,0
    383c:	00081663          	bnez	a6,3848 <core_init_matrix+0x50>
    3840:	30c0006f          	j	3b4c <core_init_matrix+0x354>
    3844:	00070513          	mv	a0,a4
    3848:	00150713          	addi	a4,a0,1
    384c:	02e707b3          	mul	a5,a4,a4
    3850:	00379293          	slli	t0,a5,0x3
    3854:	ff02e8e3          	bltu	t0,a6,3844 <core_init_matrix+0x4c>
    3858:	02a50333          	mul	t1,a0,a0
    385c:	00050a13          	mv	s4,a0
    3860:	00131413          	slli	s0,t1,0x1
    3864:	008909b3          	add	s3,s2,s0
    3868:	28050c63          	beqz	a0,3b00 <core_init_matrix+0x308>
    386c:	00010eb7          	lui	t4,0x10
    3870:	00151493          	slli	s1,a0,0x1
    3874:	00098f93          	mv	t6,s3
    3878:	00000393          	li	t2,0
    387c:	00100813          	li	a6,1
    3880:	41390f33          	sub	t5,s2,s3
    3884:	fffe8e93          	addi	t4,t4,-1 # ffff <_data_lma+0x909f>
    3888:	03060633          	mul	a2,a2,a6
    388c:	01081893          	slli	a7,a6,0x10
    3890:	0108da93          	srli	s5,a7,0x10
    3894:	fff50b93          	addi	s7,a0,-1
    3898:	003bfc13          	andi	s8,s7,3
    389c:	01ff0b33          	add	s6,t5,t6
    38a0:	00100e13          	li	t3,1
    38a4:	002f8593          	addi	a1,t6,2
    38a8:	00180813          	addi	a6,a6,1
    38ac:	41f65c93          	srai	s9,a2,0x1f
    38b0:	010cd713          	srli	a4,s9,0x10
    38b4:	00e607b3          	add	a5,a2,a4
    38b8:	01d7f2b3          	and	t0,a5,t4
    38bc:	40e28633          	sub	a2,t0,a4
    38c0:	00ca8333          	add	t1,s5,a2
    38c4:	01031893          	slli	a7,t1,0x10
    38c8:	0108db93          	srli	s7,a7,0x10
    38cc:	015b8ab3          	add	s5,s7,s5
    38d0:	017f9023          	sh	s7,0(t6)
    38d4:	0ffafc93          	andi	s9,s5,255
    38d8:	019b1023          	sh	s9,0(s6)
    38dc:	20ae7c63          	bgeu	t3,a0,3af4 <core_init_matrix+0x2fc>
    38e0:	0e0c0c63          	beqz	s8,39d8 <core_init_matrix+0x1e0>
    38e4:	0bcc0263          	beq	s8,t3,3988 <core_init_matrix+0x190>
    38e8:	00200b13          	li	s6,2
    38ec:	056c0863          	beq	s8,s6,393c <core_init_matrix+0x144>
    38f0:	03060633          	mul	a2,a2,a6
    38f4:	01081e13          	slli	t3,a6,0x10
    38f8:	010e5c13          	srli	s8,t3,0x10
    38fc:	00bf02b3          	add	t0,t5,a1
    3900:	00200e13          	li	t3,2
    3904:	00180813          	addi	a6,a6,1
    3908:	41f65713          	srai	a4,a2,0x1f
    390c:	01075793          	srli	a5,a4,0x10
    3910:	00f60333          	add	t1,a2,a5
    3914:	01d378b3          	and	a7,t1,t4
    3918:	40f88633          	sub	a2,a7,a5
    391c:	00cc0bb3          	add	s7,s8,a2
    3920:	010b9a93          	slli	s5,s7,0x10
    3924:	010adc93          	srli	s9,s5,0x10
    3928:	018c8b33          	add	s6,s9,s8
    392c:	01959023          	sh	s9,0(a1)
    3930:	0ffb7593          	andi	a1,s6,255
    3934:	00b29023          	sh	a1,0(t0)
    3938:	004f8593          	addi	a1,t6,4
    393c:	03060633          	mul	a2,a2,a6
    3940:	01081c13          	slli	s8,a6,0x10
    3944:	010c5293          	srli	t0,s8,0x10
    3948:	00bf0333          	add	t1,t5,a1
    394c:	001e0e13          	addi	t3,t3,1
    3950:	00180813          	addi	a6,a6,1
    3954:	00258593          	addi	a1,a1,2
    3958:	41f65713          	srai	a4,a2,0x1f
    395c:	01075793          	srli	a5,a4,0x10
    3960:	00f608b3          	add	a7,a2,a5
    3964:	01d8fbb3          	and	s7,a7,t4
    3968:	40fb8633          	sub	a2,s7,a5
    396c:	00c28ab3          	add	s5,t0,a2
    3970:	010a9c93          	slli	s9,s5,0x10
    3974:	010cdb13          	srli	s6,s9,0x10
    3978:	005b0c33          	add	s8,s6,t0
    397c:	ff659f23          	sh	s6,-2(a1)
    3980:	0ffc7293          	andi	t0,s8,255
    3984:	00531023          	sh	t0,0(t1)
    3988:	03060633          	mul	a2,a2,a6
    398c:	01081313          	slli	t1,a6,0x10
    3990:	01035793          	srli	a5,t1,0x10
    3994:	00bf08b3          	add	a7,t5,a1
    3998:	00258593          	addi	a1,a1,2
    399c:	001e0e13          	addi	t3,t3,1
    39a0:	00180813          	addi	a6,a6,1
    39a4:	41f65713          	srai	a4,a2,0x1f
    39a8:	01075b93          	srli	s7,a4,0x10
    39ac:	01760ab3          	add	s5,a2,s7
    39b0:	01dafcb3          	and	s9,s5,t4
    39b4:	417c8633          	sub	a2,s9,s7
    39b8:	00c78b33          	add	s6,a5,a2
    39bc:	010b1c13          	slli	s8,s6,0x10
    39c0:	010c5293          	srli	t0,s8,0x10
    39c4:	00f28333          	add	t1,t0,a5
    39c8:	fe559f23          	sh	t0,-2(a1)
    39cc:	0ff37793          	andi	a5,t1,255
    39d0:	00f89023          	sh	a5,0(a7)
    39d4:	12ae7063          	bgeu	t3,a0,3af4 <core_init_matrix+0x2fc>
    39d8:	03060633          	mul	a2,a2,a6
    39dc:	00280713          	addi	a4,a6,2
    39e0:	01071c93          	slli	s9,a4,0x10
    39e4:	010cd313          	srli	t1,s9,0x10
    39e8:	00180793          	addi	a5,a6,1
    39ec:	01079b93          	slli	s7,a5,0x10
    39f0:	01081893          	slli	a7,a6,0x10
    39f4:	0108d293          	srli	t0,a7,0x10
    39f8:	00bf0c33          	add	s8,t5,a1
    39fc:	010bdb13          	srli	s6,s7,0x10
    3a00:	41f65c93          	srai	s9,a2,0x1f
    3a04:	010cdc93          	srli	s9,s9,0x10
    3a08:	01960633          	add	a2,a2,s9
    3a0c:	01d67633          	and	a2,a2,t4
    3a10:	41960cb3          	sub	s9,a2,s9
    3a14:	02fc87b3          	mul	a5,s9,a5
    3a18:	01928633          	add	a2,t0,s9
    3a1c:	01061c93          	slli	s9,a2,0x10
    3a20:	010cd613          	srli	a2,s9,0x10
    3a24:	005602b3          	add	t0,a2,t0
    3a28:	00c59023          	sh	a2,0(a1)
    3a2c:	0ff2fc93          	andi	s9,t0,255
    3a30:	019c1023          	sh	s9,0(s8)
    3a34:	000c0b93          	mv	s7,s8
    3a38:	000c0613          	mv	a2,s8
    3a3c:	000c0293          	mv	t0,s8
    3a40:	41f7dc13          	srai	s8,a5,0x1f
    3a44:	010c5c93          	srli	s9,s8,0x10
    3a48:	019787b3          	add	a5,a5,s9
    3a4c:	01d7fc33          	and	s8,a5,t4
    3a50:	419c0cb3          	sub	s9,s8,s9
    3a54:	02ec8733          	mul	a4,s9,a4
    3a58:	019b07b3          	add	a5,s6,s9
    3a5c:	01079c13          	slli	s8,a5,0x10
    3a60:	010c5c93          	srli	s9,s8,0x10
    3a64:	016c8b33          	add	s6,s9,s6
    3a68:	01959123          	sh	s9,2(a1)
    3a6c:	0ffb7793          	andi	a5,s6,255
    3a70:	00fb9123          	sh	a5,2(s7)
    3a74:	00380a93          	addi	s5,a6,3
    3a78:	010a9893          	slli	a7,s5,0x10
    3a7c:	41f75b93          	srai	s7,a4,0x1f
    3a80:	010bdc13          	srli	s8,s7,0x10
    3a84:	01870733          	add	a4,a4,s8
    3a88:	01d77cb3          	and	s9,a4,t4
    3a8c:	418c8b33          	sub	s6,s9,s8
    3a90:	035b0ab3          	mul	s5,s6,s5
    3a94:	016307b3          	add	a5,t1,s6
    3a98:	01079b93          	slli	s7,a5,0x10
    3a9c:	010bdc13          	srli	s8,s7,0x10
    3aa0:	006c0333          	add	t1,s8,t1
    3aa4:	00858593          	addi	a1,a1,8
    3aa8:	ff859e23          	sh	s8,-4(a1)
    3aac:	0ff37713          	andi	a4,t1,255
    3ab0:	00e61223          	sh	a4,4(a2)
    3ab4:	0108d893          	srli	a7,a7,0x10
    3ab8:	41fad613          	srai	a2,s5,0x1f
    3abc:	01065c93          	srli	s9,a2,0x10
    3ac0:	019a8b33          	add	s6,s5,s9
    3ac4:	01db7ab3          	and	s5,s6,t4
    3ac8:	419a8633          	sub	a2,s5,s9
    3acc:	00c887b3          	add	a5,a7,a2
    3ad0:	01079b93          	slli	s7,a5,0x10
    3ad4:	010bdc13          	srli	s8,s7,0x10
    3ad8:	011c08b3          	add	a7,s8,a7
    3adc:	ff859f23          	sh	s8,-2(a1)
    3ae0:	0ff8f313          	andi	t1,a7,255
    3ae4:	004e0e13          	addi	t3,t3,4
    3ae8:	00629323          	sh	t1,6(t0)
    3aec:	00480813          	addi	a6,a6,4
    3af0:	eeae64e3          	bltu	t3,a0,39d8 <core_init_matrix+0x1e0>
    3af4:	00138393          	addi	t2,t2,1
    3af8:	009f8fb3          	add	t6,t6,s1
    3afc:	d8a3e6e3          	bltu	t2,a0,3888 <core_init_matrix+0x90>
    3b00:	00898433          	add	s0,s3,s0
    3b04:	00340493          	addi	s1,s0,3
    3b08:	02c12403          	lw	s0,44(sp)
    3b0c:	ffc4ff93          	andi	t6,s1,-4
    3b10:	0126a223          	sw	s2,4(a3)
    3b14:	0136a423          	sw	s3,8(a3)
    3b18:	0146a023          	sw	s4,0(a3)
    3b1c:	01f6a623          	sw	t6,12(a3)
    3b20:	02812483          	lw	s1,40(sp)
    3b24:	02412903          	lw	s2,36(sp)
    3b28:	02012983          	lw	s3,32(sp)
    3b2c:	01c12a03          	lw	s4,28(sp)
    3b30:	01812a83          	lw	s5,24(sp)
    3b34:	01412b03          	lw	s6,20(sp)
    3b38:	01012b83          	lw	s7,16(sp)
    3b3c:	00c12c03          	lw	s8,12(sp)
    3b40:	00812c83          	lw	s9,8(sp)
    3b44:	03010113          	addi	sp,sp,48
    3b48:	00008067          	ret
    3b4c:	00290993          	addi	s3,s2,2
    3b50:	fff00a13          	li	s4,-1
    3b54:	fff00513          	li	a0,-1
    3b58:	00200413          	li	s0,2
    3b5c:	d11ff06f          	j	386c <core_init_matrix+0x74>

00003b60 <matrix_mul_matrix>:
    3b60:	26050663          	beqz	a0,3dcc <matrix_mul_matrix+0x26c>
    3b64:	fc010113          	addi	sp,sp,-64
    3b68:	03712023          	sw	s7,32(sp)
    3b6c:	00050b93          	mv	s7,a0
    3b70:	00151813          	slli	a6,a0,0x1
    3b74:	002b9793          	slli	a5,s7,0x2
    3b78:	03612223          	sw	s6,36(sp)
    3b7c:	01812e23          	sw	s8,28(sp)
    3b80:	01912c23          	sw	s9,24(sp)
    3b84:	01a12a23          	sw	s10,20(sp)
    3b88:	02812e23          	sw	s0,60(sp)
    3b8c:	02912c23          	sw	s1,56(sp)
    3b90:	03212a23          	sw	s2,52(sp)
    3b94:	03312823          	sw	s3,48(sp)
    3b98:	03412623          	sw	s4,44(sp)
    3b9c:	03512423          	sw	s5,40(sp)
    3ba0:	01b12823          	sw	s11,16(sp)
    3ba4:	00068d13          	mv	s10,a3
    3ba8:	00060513          	mv	a0,a2
    3bac:	010603b3          	add	t2,a2,a6
    3bb0:	00f12623          	sw	a5,12(sp)
    3bb4:	00058c13          	mv	s8,a1
    3bb8:	01068b33          	add	s6,a3,a6
    3bbc:	00000c93          	li	s9,0
    3bc0:	000d0613          	mv	a2,s10
    3bc4:	000c0293          	mv	t0,s8
    3bc8:	40a38733          	sub	a4,t2,a0
    3bcc:	ffe70313          	addi	t1,a4,-2
    3bd0:	00135413          	srli	s0,t1,0x1
    3bd4:	00140493          	addi	s1,s0,1
    3bd8:	0074f913          	andi	s2,s1,7
    3bdc:	00060593          	mv	a1,a2
    3be0:	00050693          	mv	a3,a0
    3be4:	00000793          	li	a5,0
    3be8:	0c090e63          	beqz	s2,3cc4 <matrix_mul_matrix+0x164>
    3bec:	00100893          	li	a7,1
    3bf0:	0b190c63          	beq	s2,a7,3ca8 <matrix_mul_matrix+0x148>
    3bf4:	00200993          	li	s3,2
    3bf8:	09390c63          	beq	s2,s3,3c90 <matrix_mul_matrix+0x130>
    3bfc:	00300a13          	li	s4,3
    3c00:	07490c63          	beq	s2,s4,3c78 <matrix_mul_matrix+0x118>
    3c04:	00400a93          	li	s5,4
    3c08:	05590c63          	beq	s2,s5,3c60 <matrix_mul_matrix+0x100>
    3c0c:	00500d93          	li	s11,5
    3c10:	03b90c63          	beq	s2,s11,3c48 <matrix_mul_matrix+0xe8>
    3c14:	00600e13          	li	t3,6
    3c18:	01c90c63          	beq	s2,t3,3c30 <matrix_mul_matrix+0xd0>
    3c1c:	00051e83          	lh	t4,0(a0)
    3c20:	00061f03          	lh	t5,0(a2)
    3c24:	00250693          	addi	a3,a0,2
    3c28:	010605b3          	add	a1,a2,a6
    3c2c:	03ee87b3          	mul	a5,t4,t5
    3c30:	00069f83          	lh	t6,0(a3)
    3c34:	00059703          	lh	a4,0(a1)
    3c38:	00268693          	addi	a3,a3,2
    3c3c:	010585b3          	add	a1,a1,a6
    3c40:	02ef8333          	mul	t1,t6,a4
    3c44:	006787b3          	add	a5,a5,t1
    3c48:	00069403          	lh	s0,0(a3)
    3c4c:	00059483          	lh	s1,0(a1)
    3c50:	00268693          	addi	a3,a3,2
    3c54:	010585b3          	add	a1,a1,a6
    3c58:	02940933          	mul	s2,s0,s1
    3c5c:	012787b3          	add	a5,a5,s2
    3c60:	00069983          	lh	s3,0(a3)
    3c64:	00059883          	lh	a7,0(a1)
    3c68:	00268693          	addi	a3,a3,2
    3c6c:	010585b3          	add	a1,a1,a6
    3c70:	03198a33          	mul	s4,s3,a7
    3c74:	014787b3          	add	a5,a5,s4
    3c78:	00069a83          	lh	s5,0(a3)
    3c7c:	00059d83          	lh	s11,0(a1)
    3c80:	00268693          	addi	a3,a3,2
    3c84:	010585b3          	add	a1,a1,a6
    3c88:	03ba8e33          	mul	t3,s5,s11
    3c8c:	01c787b3          	add	a5,a5,t3
    3c90:	00069e83          	lh	t4,0(a3)
    3c94:	00059f03          	lh	t5,0(a1)
    3c98:	00268693          	addi	a3,a3,2
    3c9c:	010585b3          	add	a1,a1,a6
    3ca0:	03ee8fb3          	mul	t6,t4,t5
    3ca4:	01f787b3          	add	a5,a5,t6
    3ca8:	00069703          	lh	a4,0(a3)
    3cac:	00059303          	lh	t1,0(a1)
    3cb0:	00268693          	addi	a3,a3,2
    3cb4:	010585b3          	add	a1,a1,a6
    3cb8:	02670433          	mul	s0,a4,t1
    3cbc:	008787b3          	add	a5,a5,s0
    3cc0:	0ad38663          	beq	t2,a3,3d6c <matrix_mul_matrix+0x20c>
    3cc4:	010584b3          	add	s1,a1,a6
    3cc8:	00069983          	lh	s3,0(a3)
    3ccc:	00059a03          	lh	s4,0(a1)
    3cd0:	00049f03          	lh	t5,0(s1)
    3cd4:	00269a83          	lh	s5,2(a3)
    3cd8:	03498733          	mul	a4,s3,s4
    3cdc:	010488b3          	add	a7,s1,a6
    3ce0:	01088e33          	add	t3,a7,a6
    3ce4:	00089d83          	lh	s11,0(a7)
    3ce8:	00469903          	lh	s2,4(a3)
    3cec:	010e0fb3          	add	t6,t3,a6
    3cf0:	000e1a03          	lh	s4,0(t3)
    3cf4:	00669403          	lh	s0,6(a3)
    3cf8:	010f8333          	add	t1,t6,a6
    3cfc:	00869e83          	lh	t4,8(a3)
    3d00:	03ea8ab3          	mul	s5,s5,t5
    3d04:	000f9983          	lh	s3,0(t6)
    3d08:	010308b3          	add	a7,t1,a6
    3d0c:	00a69e03          	lh	t3,10(a3)
    3d10:	00031483          	lh	s1,0(t1)
    3d14:	010885b3          	add	a1,a7,a6
    3d18:	00c69303          	lh	t1,12(a3)
    3d1c:	00089f83          	lh	t6,0(a7)
    3d20:	00059f03          	lh	t5,0(a1)
    3d24:	00e69883          	lh	a7,14(a3)
    3d28:	03b90933          	mul	s2,s2,s11
    3d2c:	00e787b3          	add	a5,a5,a4
    3d30:	01578db3          	add	s11,a5,s5
    3d34:	01068693          	addi	a3,a3,16
    3d38:	010585b3          	add	a1,a1,a6
    3d3c:	03440433          	mul	s0,s0,s4
    3d40:	012d8733          	add	a4,s11,s2
    3d44:	033e8a33          	mul	s4,t4,s3
    3d48:	00870eb3          	add	t4,a4,s0
    3d4c:	029e09b3          	mul	s3,t3,s1
    3d50:	014e8e33          	add	t3,t4,s4
    3d54:	03f304b3          	mul	s1,t1,t6
    3d58:	013e0333          	add	t1,t3,s3
    3d5c:	03e88ab3          	mul	s5,a7,t5
    3d60:	00930fb3          	add	t6,t1,s1
    3d64:	015f87b3          	add	a5,t6,s5
    3d68:	f4d39ee3          	bne	t2,a3,3cc4 <matrix_mul_matrix+0x164>
    3d6c:	00f2a023          	sw	a5,0(t0)
    3d70:	00260613          	addi	a2,a2,2
    3d74:	00428293          	addi	t0,t0,4
    3d78:	e4cb18e3          	bne	s6,a2,3bc8 <matrix_mul_matrix+0x68>
    3d7c:	00c12603          	lw	a2,12(sp)
    3d80:	001c8c93          	addi	s9,s9,1
    3d84:	01050533          	add	a0,a0,a6
    3d88:	010383b3          	add	t2,t2,a6
    3d8c:	00cc0c33          	add	s8,s8,a2
    3d90:	e39b98e3          	bne	s7,s9,3bc0 <matrix_mul_matrix+0x60>
    3d94:	03c12403          	lw	s0,60(sp)
    3d98:	03812483          	lw	s1,56(sp)
    3d9c:	03412903          	lw	s2,52(sp)
    3da0:	03012983          	lw	s3,48(sp)
    3da4:	02c12a03          	lw	s4,44(sp)
    3da8:	02812a83          	lw	s5,40(sp)
    3dac:	02412b03          	lw	s6,36(sp)
    3db0:	02012b83          	lw	s7,32(sp)
    3db4:	01c12c03          	lw	s8,28(sp)
    3db8:	01812c83          	lw	s9,24(sp)
    3dbc:	01412d03          	lw	s10,20(sp)
    3dc0:	01012d83          	lw	s11,16(sp)
    3dc4:	04010113          	addi	sp,sp,64
    3dc8:	00008067          	ret
    3dcc:	00008067          	ret

00003dd0 <matrix_mul_matrix_bitextract>:
    3dd0:	1e050a63          	beqz	a0,3fc4 <matrix_mul_matrix_bitextract+0x1f4>
    3dd4:	fe010113          	addi	sp,sp,-32
    3dd8:	00151e13          	slli	t3,a0,0x1
    3ddc:	00912c23          	sw	s1,24(sp)
    3de0:	00068493          	mv	s1,a3
    3de4:	00812e23          	sw	s0,28(sp)
    3de8:	01212a23          	sw	s2,20(sp)
    3dec:	01312823          	sw	s3,16(sp)
    3df0:	01412623          	sw	s4,12(sp)
    3df4:	01512423          	sw	s5,8(sp)
    3df8:	01612223          	sw	s6,4(sp)
    3dfc:	00060f93          	mv	t6,a2
    3e00:	01c60f33          	add	t5,a2,t3
    3e04:	00251913          	slli	s2,a0,0x2
    3e08:	00058693          	mv	a3,a1
    3e0c:	01c483b3          	add	t2,s1,t3
    3e10:	00000413          	li	s0,0
    3e14:	00048e93          	mv	t4,s1
    3e18:	00068293          	mv	t0,a3
    3e1c:	41ff07b3          	sub	a5,t5,t6
    3e20:	ffe78313          	addi	t1,a5,-2
    3e24:	00135593          	srli	a1,t1,0x1
    3e28:	00158613          	addi	a2,a1,1
    3e2c:	00367813          	andi	a6,a2,3
    3e30:	000e8313          	mv	t1,t4
    3e34:	000f8613          	mv	a2,t6
    3e38:	00000993          	li	s3,0
    3e3c:	08080c63          	beqz	a6,3ed4 <matrix_mul_matrix_bitextract+0x104>
    3e40:	00100713          	li	a4,1
    3e44:	06e80063          	beq	a6,a4,3ea4 <matrix_mul_matrix_bitextract+0xd4>
    3e48:	00200893          	li	a7,2
    3e4c:	03180663          	beq	a6,a7,3e78 <matrix_mul_matrix_bitextract+0xa8>
    3e50:	000f9983          	lh	s3,0(t6)
    3e54:	000e9a03          	lh	s4,0(t4)
    3e58:	002f8613          	addi	a2,t6,2
    3e5c:	01ce8333          	add	t1,t4,t3
    3e60:	03498ab3          	mul	s5,s3,s4
    3e64:	402adb13          	srai	s6,s5,0x2
    3e68:	405ad793          	srai	a5,s5,0x5
    3e6c:	00fb7593          	andi	a1,s6,15
    3e70:	07f7f813          	andi	a6,a5,127
    3e74:	030589b3          	mul	s3,a1,a6
    3e78:	00061883          	lh	a7,0(a2)
    3e7c:	00031703          	lh	a4,0(t1)
    3e80:	00260613          	addi	a2,a2,2
    3e84:	01c30333          	add	t1,t1,t3
    3e88:	02e88a33          	mul	s4,a7,a4
    3e8c:	402a5a93          	srai	s5,s4,0x2
    3e90:	405a5b13          	srai	s6,s4,0x5
    3e94:	00faf593          	andi	a1,s5,15
    3e98:	07fb7793          	andi	a5,s6,127
    3e9c:	02f58833          	mul	a6,a1,a5
    3ea0:	010989b3          	add	s3,s3,a6
    3ea4:	00061883          	lh	a7,0(a2)
    3ea8:	00031703          	lh	a4,0(t1)
    3eac:	00260613          	addi	a2,a2,2
    3eb0:	01c30333          	add	t1,t1,t3
    3eb4:	02e88a33          	mul	s4,a7,a4
    3eb8:	402a5a93          	srai	s5,s4,0x2
    3ebc:	405a5b13          	srai	s6,s4,0x5
    3ec0:	00faf593          	andi	a1,s5,15
    3ec4:	07fb7793          	andi	a5,s6,127
    3ec8:	02f58833          	mul	a6,a1,a5
    3ecc:	010989b3          	add	s3,s3,a6
    3ed0:	0acf0663          	beq	t5,a2,3f7c <matrix_mul_matrix_bitextract+0x1ac>
    3ed4:	01c30733          	add	a4,t1,t3
    3ed8:	00061a03          	lh	s4,0(a2)
    3edc:	00031a83          	lh	s5,0(t1)
    3ee0:	01c70b33          	add	s6,a4,t3
    3ee4:	00071783          	lh	a5,0(a4)
    3ee8:	00261883          	lh	a7,2(a2)
    3eec:	01cb0333          	add	t1,s6,t3
    3ef0:	00461803          	lh	a6,4(a2)
    3ef4:	000b1b03          	lh	s6,0(s6)
    3ef8:	035a0733          	mul	a4,s4,s5
    3efc:	00661583          	lh	a1,6(a2)
    3f00:	00031a83          	lh	s5,0(t1)
    3f04:	00860613          	addi	a2,a2,8
    3f08:	01c30333          	add	t1,t1,t3
    3f0c:	02f888b3          	mul	a7,a7,a5
    3f10:	40575a13          	srai	s4,a4,0x5
    3f14:	40275793          	srai	a5,a4,0x2
    3f18:	00f7f713          	andi	a4,a5,15
    3f1c:	07fa7793          	andi	a5,s4,127
    3f20:	03680833          	mul	a6,a6,s6
    3f24:	4028db13          	srai	s6,a7,0x2
    3f28:	4058d893          	srai	a7,a7,0x5
    3f2c:	00fb7a13          	andi	s4,s6,15
    3f30:	07f8fb13          	andi	s6,a7,127
    3f34:	035585b3          	mul	a1,a1,s5
    3f38:	40285a93          	srai	s5,a6,0x2
    3f3c:	40585813          	srai	a6,a6,0x5
    3f40:	00fafa93          	andi	s5,s5,15
    3f44:	07f87813          	andi	a6,a6,127
    3f48:	02f707b3          	mul	a5,a4,a5
    3f4c:	4055d893          	srai	a7,a1,0x5
    3f50:	4025d713          	srai	a4,a1,0x2
    3f54:	00f77713          	andi	a4,a4,15
    3f58:	07f8f593          	andi	a1,a7,127
    3f5c:	036a0a33          	mul	s4,s4,s6
    3f60:	00f989b3          	add	s3,s3,a5
    3f64:	030a8b33          	mul	s6,s5,a6
    3f68:	01498ab3          	add	s5,s3,s4
    3f6c:	02b70833          	mul	a6,a4,a1
    3f70:	016a87b3          	add	a5,s5,s6
    3f74:	010789b3          	add	s3,a5,a6
    3f78:	f4cf1ee3          	bne	t5,a2,3ed4 <matrix_mul_matrix_bitextract+0x104>
    3f7c:	0132a023          	sw	s3,0(t0)
    3f80:	002e8e93          	addi	t4,t4,2
    3f84:	00428293          	addi	t0,t0,4
    3f88:	e9d39ae3          	bne	t2,t4,3e1c <matrix_mul_matrix_bitextract+0x4c>
    3f8c:	00140413          	addi	s0,s0,1
    3f90:	01cf8fb3          	add	t6,t6,t3
    3f94:	01cf0f33          	add	t5,t5,t3
    3f98:	012686b3          	add	a3,a3,s2
    3f9c:	e6851ce3          	bne	a0,s0,3e14 <matrix_mul_matrix_bitextract+0x44>
    3fa0:	01c12403          	lw	s0,28(sp)
    3fa4:	01812483          	lw	s1,24(sp)
    3fa8:	01412903          	lw	s2,20(sp)
    3fac:	01012983          	lw	s3,16(sp)
    3fb0:	00c12a03          	lw	s4,12(sp)
    3fb4:	00812a83          	lw	s5,8(sp)
    3fb8:	00412b03          	lw	s6,4(sp)
    3fbc:	02010113          	addi	sp,sp,32
    3fc0:	00008067          	ret
    3fc4:	00008067          	ret

00003fc8 <matrix_test>:
    3fc8:	fa010113          	addi	sp,sp,-96
    3fcc:	04812c23          	sw	s0,88(sp)
    3fd0:	05612023          	sw	s6,64(sp)
    3fd4:	fffff437          	lui	s0,0xfffff
    3fd8:	04112e23          	sw	ra,92(sp)
    3fdc:	04912a23          	sw	s1,84(sp)
    3fe0:	05212823          	sw	s2,80(sp)
    3fe4:	05312623          	sw	s3,76(sp)
    3fe8:	05412423          	sw	s4,72(sp)
    3fec:	05512223          	sw	s5,68(sp)
    3ff0:	03712e23          	sw	s7,60(sp)
    3ff4:	03812c23          	sw	s8,56(sp)
    3ff8:	03912a23          	sw	s9,52(sp)
    3ffc:	03a12823          	sw	s10,48(sp)
    4000:	03b12623          	sw	s11,44(sp)
    4004:	00b12623          	sw	a1,12(sp)
    4008:	00c12823          	sw	a2,16(sp)
    400c:	00068b13          	mv	s6,a3
    4010:	00876433          	or	s0,a4,s0
    4014:	00051463          	bnez	a0,401c <matrix_test+0x54>
    4018:	2b80106f          	j	52d0 <matrix_test+0x1308>
    401c:	00151d13          	slli	s10,a0,0x1
    4020:	40a00f33          	neg	t5,a0
    4024:	00060993          	mv	s3,a2
    4028:	01071093          	slli	ra,a4,0x10
    402c:	01a60633          	add	a2,a2,s10
    4030:	001f1c93          	slli	s9,t5,0x1
    4034:	00050e13          	mv	t3,a0
    4038:	0100d913          	srli	s2,ra,0x10
    403c:	00060693          	mv	a3,a2
    4040:	00000813          	li	a6,0
    4044:	002f1f13          	slli	t5,t5,0x2
    4048:	00dc8533          	add	a0,s9,a3
    404c:	40a685b3          	sub	a1,a3,a0
    4050:	ffe58293          	addi	t0,a1,-2
    4054:	0012d313          	srli	t1,t0,0x1
    4058:	00130393          	addi	t2,t1,1
    405c:	0073fa93          	andi	s5,t2,7
    4060:	00050793          	mv	a5,a0
    4064:	0a0a8463          	beqz	s5,410c <matrix_test+0x144>
    4068:	00100893          	li	a7,1
    406c:	091a8663          	beq	s5,a7,40f8 <matrix_test+0x130>
    4070:	00200b93          	li	s7,2
    4074:	077a8a63          	beq	s5,s7,40e8 <matrix_test+0x120>
    4078:	00300c13          	li	s8,3
    407c:	058a8e63          	beq	s5,s8,40d8 <matrix_test+0x110>
    4080:	00400d93          	li	s11,4
    4084:	05ba8263          	beq	s5,s11,40c8 <matrix_test+0x100>
    4088:	00500e93          	li	t4,5
    408c:	03da8663          	beq	s5,t4,40b8 <matrix_test+0xf0>
    4090:	00600f93          	li	t6,6
    4094:	01fa8a63          	beq	s5,t6,40a8 <matrix_test+0xe0>
    4098:	00055483          	lhu	s1,0(a0)
    409c:	00250793          	addi	a5,a0,2
    40a0:	00990a33          	add	s4,s2,s1
    40a4:	01451023          	sh	s4,0(a0)
    40a8:	0007d083          	lhu	ra,0(a5)
    40ac:	00278793          	addi	a5,a5,2
    40b0:	001905b3          	add	a1,s2,ra
    40b4:	feb79f23          	sh	a1,-2(a5)
    40b8:	0007d283          	lhu	t0,0(a5)
    40bc:	00278793          	addi	a5,a5,2
    40c0:	00590333          	add	t1,s2,t0
    40c4:	fe679f23          	sh	t1,-2(a5)
    40c8:	0007d383          	lhu	t2,0(a5)
    40cc:	00278793          	addi	a5,a5,2
    40d0:	00790ab3          	add	s5,s2,t2
    40d4:	ff579f23          	sh	s5,-2(a5)
    40d8:	0007d883          	lhu	a7,0(a5)
    40dc:	00278793          	addi	a5,a5,2
    40e0:	01190bb3          	add	s7,s2,a7
    40e4:	ff779f23          	sh	s7,-2(a5)
    40e8:	0007dc03          	lhu	s8,0(a5)
    40ec:	00278793          	addi	a5,a5,2
    40f0:	01890db3          	add	s11,s2,s8
    40f4:	ffb79f23          	sh	s11,-2(a5)
    40f8:	0007de83          	lhu	t4,0(a5)
    40fc:	00278793          	addi	a5,a5,2
    4100:	01d90fb3          	add	t6,s2,t4
    4104:	fff79f23          	sh	t6,-2(a5)
    4108:	06d78663          	beq	a5,a3,4174 <matrix_test+0x1ac>
    410c:	0007d483          	lhu	s1,0(a5)
    4110:	0027da03          	lhu	s4,2(a5)
    4114:	0047d283          	lhu	t0,4(a5)
    4118:	0067da83          	lhu	s5,6(a5)
    411c:	0087db83          	lhu	s7,8(a5)
    4120:	00a7d303          	lhu	t1,10(a5)
    4124:	00c7d883          	lhu	a7,12(a5)
    4128:	00e7d583          	lhu	a1,14(a5)
    412c:	009900b3          	add	ra,s2,s1
    4130:	014903b3          	add	t2,s2,s4
    4134:	00590c33          	add	s8,s2,t0
    4138:	01590db3          	add	s11,s2,s5
    413c:	01790eb3          	add	t4,s2,s7
    4140:	00690fb3          	add	t6,s2,t1
    4144:	011904b3          	add	s1,s2,a7
    4148:	00b90a33          	add	s4,s2,a1
    414c:	00179023          	sh	ra,0(a5)
    4150:	00779123          	sh	t2,2(a5)
    4154:	01879223          	sh	s8,4(a5)
    4158:	01b79323          	sh	s11,6(a5)
    415c:	01d79423          	sh	t4,8(a5)
    4160:	01f79523          	sh	t6,10(a5)
    4164:	00979623          	sh	s1,12(a5)
    4168:	01479723          	sh	s4,14(a5)
    416c:	01078793          	addi	a5,a5,16
    4170:	f8d79ee3          	bne	a5,a3,410c <matrix_test+0x144>
    4174:	00180493          	addi	s1,a6,1
    4178:	41e506b3          	sub	a3,a0,t5
    417c:	009e0663          	beq	t3,s1,4188 <matrix_test+0x1c0>
    4180:	00048813          	mv	a6,s1
    4184:	ec5ff06f          	j	4048 <matrix_test+0x80>
    4188:	00c12383          	lw	t2,12(sp)
    418c:	40900c33          	neg	s8,s1
    4190:	00249a93          	slli	s5,s1,0x2
    4194:	00038a13          	mv	s4,t2
    4198:	00000093          	li	ra,0
    419c:	002c1b93          	slli	s7,s8,0x2
    41a0:	01960533          	add	a0,a2,s9
    41a4:	40a607b3          	sub	a5,a2,a0
    41a8:	ffe78e13          	addi	t3,a5,-2
    41ac:	001e5f13          	srli	t5,t3,0x1
    41b0:	001f0293          	addi	t0,t5,1
    41b4:	0072f313          	andi	t1,t0,7
    41b8:	00038693          	mv	a3,t2
    41bc:	00050793          	mv	a5,a0
    41c0:	0c030263          	beqz	t1,4284 <matrix_test+0x2bc>
    41c4:	00100893          	li	a7,1
    41c8:	0b130263          	beq	t1,a7,426c <matrix_test+0x2a4>
    41cc:	00200593          	li	a1,2
    41d0:	08b30463          	beq	t1,a1,4258 <matrix_test+0x290>
    41d4:	00300d93          	li	s11,3
    41d8:	07b30663          	beq	t1,s11,4244 <matrix_test+0x27c>
    41dc:	00400e93          	li	t4,4
    41e0:	05d30863          	beq	t1,t4,4230 <matrix_test+0x268>
    41e4:	00500f93          	li	t6,5
    41e8:	03f30a63          	beq	t1,t6,421c <matrix_test+0x254>
    41ec:	00600e13          	li	t3,6
    41f0:	01c30c63          	beq	t1,t3,4208 <matrix_test+0x240>
    41f4:	00051f03          	lh	t5,0(a0)
    41f8:	00250793          	addi	a5,a0,2
    41fc:	00438693          	addi	a3,t2,4
    4200:	02ef02b3          	mul	t0,t5,a4
    4204:	0053a023          	sw	t0,0(t2)
    4208:	00079303          	lh	t1,0(a5)
    420c:	00468693          	addi	a3,a3,4
    4210:	00278793          	addi	a5,a5,2
    4214:	02e308b3          	mul	a7,t1,a4
    4218:	ff16ae23          	sw	a7,-4(a3)
    421c:	00079583          	lh	a1,0(a5)
    4220:	00468693          	addi	a3,a3,4
    4224:	00278793          	addi	a5,a5,2
    4228:	02e58db3          	mul	s11,a1,a4
    422c:	ffb6ae23          	sw	s11,-4(a3)
    4230:	00079e83          	lh	t4,0(a5)
    4234:	00468693          	addi	a3,a3,4
    4238:	00278793          	addi	a5,a5,2
    423c:	02ee8fb3          	mul	t6,t4,a4
    4240:	fff6ae23          	sw	t6,-4(a3)
    4244:	00079e03          	lh	t3,0(a5)
    4248:	00468693          	addi	a3,a3,4
    424c:	00278793          	addi	a5,a5,2
    4250:	02ee0f33          	mul	t5,t3,a4
    4254:	ffe6ae23          	sw	t5,-4(a3)
    4258:	00079283          	lh	t0,0(a5)
    425c:	00468693          	addi	a3,a3,4
    4260:	00278793          	addi	a5,a5,2
    4264:	02e28333          	mul	t1,t0,a4
    4268:	fe66ae23          	sw	t1,-4(a3)
    426c:	00079883          	lh	a7,0(a5)
    4270:	00468693          	addi	a3,a3,4
    4274:	00278793          	addi	a5,a5,2
    4278:	02e885b3          	mul	a1,a7,a4
    427c:	feb6ae23          	sw	a1,-4(a3)
    4280:	06f60863          	beq	a2,a5,42f0 <matrix_test+0x328>
    4284:	00079d83          	lh	s11,0(a5)
    4288:	00279f83          	lh	t6,2(a5)
    428c:	00479f03          	lh	t5,4(a5)
    4290:	00679e83          	lh	t4,6(a5)
    4294:	00879e03          	lh	t3,8(a5)
    4298:	00a79303          	lh	t1,10(a5)
    429c:	00c79883          	lh	a7,12(a5)
    42a0:	00e79583          	lh	a1,14(a5)
    42a4:	02ed82b3          	mul	t0,s11,a4
    42a8:	02068693          	addi	a3,a3,32
    42ac:	01078793          	addi	a5,a5,16
    42b0:	02ef8db3          	mul	s11,t6,a4
    42b4:	fe56a023          	sw	t0,-32(a3)
    42b8:	02ef0fb3          	mul	t6,t5,a4
    42bc:	ffb6a223          	sw	s11,-28(a3)
    42c0:	02ee8f33          	mul	t5,t4,a4
    42c4:	fff6a423          	sw	t6,-24(a3)
    42c8:	02ee0eb3          	mul	t4,t3,a4
    42cc:	ffe6a623          	sw	t5,-20(a3)
    42d0:	02e30e33          	mul	t3,t1,a4
    42d4:	ffd6a823          	sw	t4,-16(a3)
    42d8:	02e88333          	mul	t1,a7,a4
    42dc:	ffc6aa23          	sw	t3,-12(a3)
    42e0:	02e588b3          	mul	a7,a1,a4
    42e4:	fe66ac23          	sw	t1,-8(a3)
    42e8:	ff16ae23          	sw	a7,-4(a3)
    42ec:	f8f61ce3          	bne	a2,a5,4284 <matrix_test+0x2bc>
    42f0:	00108793          	addi	a5,ra,1
    42f4:	015383b3          	add	t2,t2,s5
    42f8:	41750633          	sub	a2,a0,s7
    42fc:	01008663          	beq	ra,a6,4308 <matrix_test+0x340>
    4300:	00078093          	mv	ra,a5
    4304:	e9dff06f          	j	41a0 <matrix_test+0x1d8>
    4308:	00c12703          	lw	a4,12(sp)
    430c:	00000513          	li	a0,0
    4310:	00000313          	li	t1,0
    4314:	01570733          	add	a4,a4,s5
    4318:	00070c93          	mv	s9,a4
    431c:	00000593          	li	a1,0
    4320:	00000613          	li	a2,0
    4324:	003c1c13          	slli	s8,s8,0x3
    4328:	017700b3          	add	ra,a4,s7
    432c:	401706b3          	sub	a3,a4,ra
    4330:	ffc68293          	addi	t0,a3,-4
    4334:	0022dd93          	srli	s11,t0,0x2
    4338:	001d8f93          	addi	t6,s11,1
    433c:	007fff13          	andi	t5,t6,7
    4340:	00008793          	mv	a5,ra
    4344:	280f0463          	beqz	t5,45cc <matrix_test+0x604>
    4348:	00100e93          	li	t4,1
    434c:	13df0a63          	beq	t5,t4,4480 <matrix_test+0x4b8>
    4350:	00200e13          	li	t3,2
    4354:	11cf0063          	beq	t5,t3,4454 <matrix_test+0x48c>
    4358:	00300893          	li	a7,3
    435c:	0d1f0663          	beq	t5,a7,4428 <matrix_test+0x460>
    4360:	00400393          	li	t2,4
    4364:	087f0c63          	beq	t5,t2,43fc <matrix_test+0x434>
    4368:	00500693          	li	a3,5
    436c:	06df0263          	beq	t5,a3,43d0 <matrix_test+0x408>
    4370:	00600293          	li	t0,6
    4374:	025f0863          	beq	t5,t0,43a4 <matrix_test+0x3dc>
    4378:	0000ad83          	lw	s11,0(ra)
    437c:	01051513          	slli	a0,a0,0x10
    4380:	01055793          	srli	a5,a0,0x10
    4384:	01b585b3          	add	a1,a1,s11
    4388:	72b44ae3          	blt	s0,a1,52bc <matrix_test+0x12f4>
    438c:	01b32333          	slt	t1,t1,s11
    4390:	00678fb3          	add	t6,a5,t1
    4394:	010f9f13          	slli	t5,t6,0x10
    4398:	410f5513          	srai	a0,t5,0x10
    439c:	00408793          	addi	a5,ra,4
    43a0:	000d8313          	mv	t1,s11
    43a4:	0007ae03          	lw	t3,0(a5)
    43a8:	01051893          	slli	a7,a0,0x10
    43ac:	0108d393          	srli	t2,a7,0x10
    43b0:	01c585b3          	add	a1,a1,t3
    43b4:	3ab44e63          	blt	s0,a1,4770 <matrix_test+0x7a8>
    43b8:	01c326b3          	slt	a3,t1,t3
    43bc:	00d382b3          	add	t0,t2,a3
    43c0:	01029d93          	slli	s11,t0,0x10
    43c4:	410dd513          	srai	a0,s11,0x10
    43c8:	00478793          	addi	a5,a5,4
    43cc:	000e0313          	mv	t1,t3
    43d0:	0007af83          	lw	t6,0(a5)
    43d4:	01051f13          	slli	t5,a0,0x10
    43d8:	010f5e93          	srli	t4,t5,0x10
    43dc:	01f585b3          	add	a1,a1,t6
    43e0:	36b44e63          	blt	s0,a1,475c <matrix_test+0x794>
    43e4:	01f32e33          	slt	t3,t1,t6
    43e8:	01ce88b3          	add	a7,t4,t3
    43ec:	01089393          	slli	t2,a7,0x10
    43f0:	4103d513          	srai	a0,t2,0x10
    43f4:	00478793          	addi	a5,a5,4
    43f8:	000f8313          	mv	t1,t6
    43fc:	0007a283          	lw	t0,0(a5)
    4400:	01051d93          	slli	s11,a0,0x10
    4404:	010dd513          	srli	a0,s11,0x10
    4408:	005585b3          	add	a1,a1,t0
    440c:	32b44e63          	blt	s0,a1,4748 <matrix_test+0x780>
    4410:	00532333          	slt	t1,t1,t0
    4414:	00650fb3          	add	t6,a0,t1
    4418:	010f9f13          	slli	t5,t6,0x10
    441c:	410f5513          	srai	a0,t5,0x10
    4420:	00478793          	addi	a5,a5,4
    4424:	00028313          	mv	t1,t0
    4428:	0007a883          	lw	a7,0(a5)
    442c:	01051393          	slli	t2,a0,0x10
    4430:	0103d693          	srli	a3,t2,0x10
    4434:	011585b3          	add	a1,a1,a7
    4438:	2eb44e63          	blt	s0,a1,4734 <matrix_test+0x76c>
    443c:	011322b3          	slt	t0,t1,a7
    4440:	00568db3          	add	s11,a3,t0
    4444:	010d9513          	slli	a0,s11,0x10
    4448:	41055513          	srai	a0,a0,0x10
    444c:	00478793          	addi	a5,a5,4
    4450:	00088313          	mv	t1,a7
    4454:	0007af83          	lw	t6,0(a5)
    4458:	01051f13          	slli	t5,a0,0x10
    445c:	010f5e93          	srli	t4,t5,0x10
    4460:	01f585b3          	add	a1,a1,t6
    4464:	2ab44e63          	blt	s0,a1,4720 <matrix_test+0x758>
    4468:	01f32e33          	slt	t3,t1,t6
    446c:	01ce88b3          	add	a7,t4,t3
    4470:	01089393          	slli	t2,a7,0x10
    4474:	4103d513          	srai	a0,t2,0x10
    4478:	00478793          	addi	a5,a5,4
    447c:	000f8313          	mv	t1,t6
    4480:	0007ad83          	lw	s11,0(a5)
    4484:	01051513          	slli	a0,a0,0x10
    4488:	01055f93          	srli	t6,a0,0x10
    448c:	01b585b3          	add	a1,a1,s11
    4490:	26b44e63          	blt	s0,a1,470c <matrix_test+0x744>
    4494:	01b32333          	slt	t1,t1,s11
    4498:	006f8f33          	add	t5,t6,t1
    449c:	010f1e93          	slli	t4,t5,0x10
    44a0:	410ed513          	srai	a0,t4,0x10
    44a4:	00478793          	addi	a5,a5,4
    44a8:	000d8313          	mv	t1,s11
    44ac:	12f71063          	bne	a4,a5,45cc <matrix_test+0x604>
    44b0:	2480006f          	j	46f8 <matrix_test+0x730>
    44b4:	0047ae03          	lw	t3,4(a5)
    44b8:	00a68313          	addi	t1,a3,10
    44bc:	01031e93          	slli	t4,t1,0x10
    44c0:	410edf13          	srai	t5,t4,0x10
    44c4:	00000293          	li	t0,0
    44c8:	010f1593          	slli	a1,t5,0x10
    44cc:	01c28f33          	add	t5,t0,t3
    44d0:	00478793          	addi	a5,a5,4
    44d4:	0105d393          	srli	t2,a1,0x10
    44d8:	13e45863          	bge	s0,t5,4608 <matrix_test+0x640>
    44dc:	00a38d93          	addi	s11,t2,10
    44e0:	0047ae83          	lw	t4,4(a5)
    44e4:	010d9513          	slli	a0,s11,0x10
    44e8:	41055f93          	srai	t6,a0,0x10
    44ec:	00000f13          	li	t5,0
    44f0:	010f9313          	slli	t1,t6,0x10
    44f4:	01df0fb3          	add	t6,t5,t4
    44f8:	01035393          	srli	t2,t1,0x10
    44fc:	13f44863          	blt	s0,t6,462c <matrix_test+0x664>
    4500:	01de2e33          	slt	t3,t3,t4
    4504:	01c388b3          	add	a7,t2,t3
    4508:	0087af03          	lw	t5,8(a5)
    450c:	01089693          	slli	a3,a7,0x10
    4510:	4106dd93          	srai	s11,a3,0x10
    4514:	010d9513          	slli	a0,s11,0x10
    4518:	01ef85b3          	add	a1,t6,t5
    451c:	01055313          	srli	t1,a0,0x10
    4520:	12b44863          	blt	s0,a1,4650 <matrix_test+0x688>
    4524:	01eeaeb3          	slt	t4,t4,t5
    4528:	01d303b3          	add	t2,t1,t4
    452c:	00c7ad83          	lw	s11,12(a5)
    4530:	01039e13          	slli	t3,t2,0x10
    4534:	410e5293          	srai	t0,t3,0x10
    4538:	01029f93          	slli	t6,t0,0x10
    453c:	01b586b3          	add	a3,a1,s11
    4540:	010fd513          	srli	a0,t6,0x10
    4544:	12d44863          	blt	s0,a3,4674 <matrix_test+0x6ac>
    4548:	01bf2f33          	slt	t5,t5,s11
    454c:	01e50333          	add	t1,a0,t5
    4550:	0107a283          	lw	t0,16(a5)
    4554:	01031e93          	slli	t4,t1,0x10
    4558:	410ed893          	srai	a7,t4,0x10
    455c:	01089593          	slli	a1,a7,0x10
    4560:	00568e33          	add	t3,a3,t0
    4564:	0105df93          	srli	t6,a1,0x10
    4568:	13c44863          	blt	s0,t3,4698 <matrix_test+0x6d0>
    456c:	005dadb3          	slt	s11,s11,t0
    4570:	01bf8533          	add	a0,t6,s11
    4574:	0147a883          	lw	a7,20(a5)
    4578:	01051f13          	slli	t5,a0,0x10
    457c:	410f5393          	srai	t2,t5,0x10
    4580:	01039693          	slli	a3,t2,0x10
    4584:	011e03b3          	add	t2,t3,a7
    4588:	0106df93          	srli	t6,a3,0x10
    458c:	12744863          	blt	s0,t2,46bc <matrix_test+0x6f4>
    4590:	0112a2b3          	slt	t0,t0,a7
    4594:	005f8db3          	add	s11,t6,t0
    4598:	0187a303          	lw	t1,24(a5)
    459c:	010d9513          	slli	a0,s11,0x10
    45a0:	41055e93          	srai	t4,a0,0x10
    45a4:	010e9e13          	slli	t3,t4,0x10
    45a8:	006385b3          	add	a1,t2,t1
    45ac:	010e5693          	srli	a3,t3,0x10
    45b0:	12b44863          	blt	s0,a1,46e0 <matrix_test+0x718>
    45b4:	0068a8b3          	slt	a7,a7,t1
    45b8:	01168fb3          	add	t6,a3,a7
    45bc:	010f9293          	slli	t0,t6,0x10
    45c0:	01c78793          	addi	a5,a5,28
    45c4:	4102d513          	srai	a0,t0,0x10
    45c8:	12f70863          	beq	a4,a5,46f8 <matrix_test+0x730>
    45cc:	0007a883          	lw	a7,0(a5)
    45d0:	01051393          	slli	t2,a0,0x10
    45d4:	0103d693          	srli	a3,t2,0x10
    45d8:	011582b3          	add	t0,a1,a7
    45dc:	ec544ce3          	blt	s0,t0,44b4 <matrix_test+0x4ec>
    45e0:	01132db3          	slt	s11,t1,a7
    45e4:	0047ae03          	lw	t3,4(a5)
    45e8:	01b68533          	add	a0,a3,s11
    45ec:	01051f93          	slli	t6,a0,0x10
    45f0:	410fdf13          	srai	t5,t6,0x10
    45f4:	010f1593          	slli	a1,t5,0x10
    45f8:	01c28f33          	add	t5,t0,t3
    45fc:	00478793          	addi	a5,a5,4
    4600:	0105d393          	srli	t2,a1,0x10
    4604:	ede44ce3          	blt	s0,t5,44dc <matrix_test+0x514>
    4608:	01c8a8b3          	slt	a7,a7,t3
    460c:	011386b3          	add	a3,t2,a7
    4610:	0047ae83          	lw	t4,4(a5)
    4614:	01069293          	slli	t0,a3,0x10
    4618:	4102df93          	srai	t6,t0,0x10
    461c:	010f9313          	slli	t1,t6,0x10
    4620:	01df0fb3          	add	t6,t5,t4
    4624:	01035393          	srli	t2,t1,0x10
    4628:	edf45ce3          	bge	s0,t6,4500 <matrix_test+0x538>
    462c:	00a38593          	addi	a1,t2,10
    4630:	0087af03          	lw	t5,8(a5)
    4634:	01059293          	slli	t0,a1,0x10
    4638:	4102dd93          	srai	s11,t0,0x10
    463c:	00000f93          	li	t6,0
    4640:	010d9513          	slli	a0,s11,0x10
    4644:	01ef85b3          	add	a1,t6,t5
    4648:	01055313          	srli	t1,a0,0x10
    464c:	ecb45ce3          	bge	s0,a1,4524 <matrix_test+0x55c>
    4650:	00a30893          	addi	a7,t1,10
    4654:	00c7ad83          	lw	s11,12(a5)
    4658:	01089693          	slli	a3,a7,0x10
    465c:	4106d293          	srai	t0,a3,0x10
    4660:	00000593          	li	a1,0
    4664:	01029f93          	slli	t6,t0,0x10
    4668:	01b586b3          	add	a3,a1,s11
    466c:	010fd513          	srli	a0,t6,0x10
    4670:	ecd45ce3          	bge	s0,a3,4548 <matrix_test+0x580>
    4674:	00a50393          	addi	t2,a0,10
    4678:	0107a283          	lw	t0,16(a5)
    467c:	01039e13          	slli	t3,t2,0x10
    4680:	410e5893          	srai	a7,t3,0x10
    4684:	00000693          	li	a3,0
    4688:	01089593          	slli	a1,a7,0x10
    468c:	00568e33          	add	t3,a3,t0
    4690:	0105df93          	srli	t6,a1,0x10
    4694:	edc45ce3          	bge	s0,t3,456c <matrix_test+0x5a4>
    4698:	00af8313          	addi	t1,t6,10
    469c:	0147a883          	lw	a7,20(a5)
    46a0:	01031e93          	slli	t4,t1,0x10
    46a4:	410ed393          	srai	t2,t4,0x10
    46a8:	00000e13          	li	t3,0
    46ac:	01039693          	slli	a3,t2,0x10
    46b0:	011e03b3          	add	t2,t3,a7
    46b4:	0106df93          	srli	t6,a3,0x10
    46b8:	ec745ce3          	bge	s0,t2,4590 <matrix_test+0x5c8>
    46bc:	00af8593          	addi	a1,t6,10
    46c0:	0187a303          	lw	t1,24(a5)
    46c4:	01059f13          	slli	t5,a1,0x10
    46c8:	410f5e93          	srai	t4,t5,0x10
    46cc:	00000393          	li	t2,0
    46d0:	010e9e13          	slli	t3,t4,0x10
    46d4:	006385b3          	add	a1,t2,t1
    46d8:	010e5693          	srli	a3,t3,0x10
    46dc:	ecb45ce3          	bge	s0,a1,45b4 <matrix_test+0x5ec>
    46e0:	00a68d93          	addi	s11,a3,10
    46e4:	010d9513          	slli	a0,s11,0x10
    46e8:	01c78793          	addi	a5,a5,28
    46ec:	41055513          	srai	a0,a0,0x10
    46f0:	00000593          	li	a1,0
    46f4:	ecf71ce3          	bne	a4,a5,45cc <matrix_test+0x604>
    46f8:	00160f13          	addi	t5,a2,1
    46fc:	41808733          	sub	a4,ra,s8
    4700:	09060263          	beq	a2,a6,4784 <matrix_test+0x7bc>
    4704:	000f0613          	mv	a2,t5
    4708:	c21ff06f          	j	4328 <matrix_test+0x360>
    470c:	00af8593          	addi	a1,t6,10
    4710:	01059e13          	slli	t3,a1,0x10
    4714:	410e5513          	srai	a0,t3,0x10
    4718:	00000593          	li	a1,0
    471c:	d89ff06f          	j	44a4 <matrix_test+0x4dc>
    4720:	00ae8693          	addi	a3,t4,10
    4724:	01069293          	slli	t0,a3,0x10
    4728:	4102d513          	srai	a0,t0,0x10
    472c:	00000593          	li	a1,0
    4730:	d49ff06f          	j	4478 <matrix_test+0x4b0>
    4734:	00a68593          	addi	a1,a3,10
    4738:	01059313          	slli	t1,a1,0x10
    473c:	41035513          	srai	a0,t1,0x10
    4740:	00000593          	li	a1,0
    4744:	d09ff06f          	j	444c <matrix_test+0x484>
    4748:	00a50e93          	addi	t4,a0,10
    474c:	010e9e13          	slli	t3,t4,0x10
    4750:	410e5513          	srai	a0,t3,0x10
    4754:	00000593          	li	a1,0
    4758:	cc9ff06f          	j	4420 <matrix_test+0x458>
    475c:	00ae8593          	addi	a1,t4,10
    4760:	01059693          	slli	a3,a1,0x10
    4764:	4106d513          	srai	a0,a3,0x10
    4768:	00000593          	li	a1,0
    476c:	c89ff06f          	j	43f4 <matrix_test+0x42c>
    4770:	00a38513          	addi	a0,t2,10
    4774:	01051313          	slli	t1,a0,0x10
    4778:	41035513          	srai	a0,t1,0x10
    477c:	00000593          	li	a1,0
    4780:	c49ff06f          	j	43c8 <matrix_test+0x400>
    4784:	00000593          	li	a1,0
    4788:	3f1010ef          	jal	ra,6378 <crc16>
    478c:	01012f83          	lw	t6,16(sp)
    4790:	00c12583          	lw	a1,12(sp)
    4794:	00a12a23          	sw	a0,20(sp)
    4798:	01ab02b3          	add	t0,s6,s10
    479c:	00812c23          	sw	s0,24(sp)
    47a0:	01512e23          	sw	s5,28(sp)
    47a4:	000c8d93          	mv	s11,s9
    47a8:	41628633          	sub	a2,t0,s6
    47ac:	ffe60093          	addi	ra,a2,-2
    47b0:	0010de93          	srli	t4,ra,0x1
    47b4:	001e8393          	addi	t2,t4,1
    47b8:	0073f313          	andi	t1,t2,7
    47bc:	000b0693          	mv	a3,s6
    47c0:	000f8613          	mv	a2,t6
    47c4:	00000793          	li	a5,0
    47c8:	0c030e63          	beqz	t1,48a4 <matrix_test+0x8dc>
    47cc:	00100e13          	li	t3,1
    47d0:	0bc30c63          	beq	t1,t3,4888 <matrix_test+0x8c0>
    47d4:	00200893          	li	a7,2
    47d8:	09130c63          	beq	t1,a7,4870 <matrix_test+0x8a8>
    47dc:	00300513          	li	a0,3
    47e0:	06a30c63          	beq	t1,a0,4858 <matrix_test+0x890>
    47e4:	00400413          	li	s0,4
    47e8:	04830c63          	beq	t1,s0,4840 <matrix_test+0x878>
    47ec:	00500813          	li	a6,5
    47f0:	03030c63          	beq	t1,a6,4828 <matrix_test+0x860>
    47f4:	00600a93          	li	s5,6
    47f8:	01530c63          	beq	t1,s5,4810 <matrix_test+0x848>
    47fc:	000f9b83          	lh	s7,0(t6)
    4800:	000b1783          	lh	a5,0(s6)
    4804:	002f8613          	addi	a2,t6,2
    4808:	002b0693          	addi	a3,s6,2
    480c:	02fb87b3          	mul	a5,s7,a5
    4810:	00061c03          	lh	s8,0(a2)
    4814:	00069c83          	lh	s9,0(a3)
    4818:	00260613          	addi	a2,a2,2
    481c:	00268693          	addi	a3,a3,2
    4820:	039c0f33          	mul	t5,s8,s9
    4824:	01e787b3          	add	a5,a5,t5
    4828:	00061703          	lh	a4,0(a2)
    482c:	00069083          	lh	ra,0(a3)
    4830:	00260613          	addi	a2,a2,2
    4834:	00268693          	addi	a3,a3,2
    4838:	02170eb3          	mul	t4,a4,ra
    483c:	01d787b3          	add	a5,a5,t4
    4840:	00061383          	lh	t2,0(a2)
    4844:	00069303          	lh	t1,0(a3)
    4848:	00260613          	addi	a2,a2,2
    484c:	00268693          	addi	a3,a3,2
    4850:	02638e33          	mul	t3,t2,t1
    4854:	01c787b3          	add	a5,a5,t3
    4858:	00061883          	lh	a7,0(a2)
    485c:	00069503          	lh	a0,0(a3)
    4860:	00260613          	addi	a2,a2,2
    4864:	00268693          	addi	a3,a3,2
    4868:	02a88433          	mul	s0,a7,a0
    486c:	008787b3          	add	a5,a5,s0
    4870:	00061803          	lh	a6,0(a2)
    4874:	00069a83          	lh	s5,0(a3)
    4878:	00260613          	addi	a2,a2,2
    487c:	00268693          	addi	a3,a3,2
    4880:	03580bb3          	mul	s7,a6,s5
    4884:	017787b3          	add	a5,a5,s7
    4888:	00061c03          	lh	s8,0(a2)
    488c:	00069c83          	lh	s9,0(a3)
    4890:	00268693          	addi	a3,a3,2
    4894:	00260613          	addi	a2,a2,2
    4898:	039c0f33          	mul	t5,s8,s9
    489c:	01e787b3          	add	a5,a5,t5
    48a0:	08d28863          	beq	t0,a3,4930 <matrix_test+0x968>
    48a4:	00061e83          	lh	t4,0(a2)
    48a8:	00069703          	lh	a4,0(a3)
    48ac:	00269a83          	lh	s5,2(a3)
    48b0:	00261c83          	lh	s9,2(a2)
    48b4:	02ee8733          	mul	a4,t4,a4
    48b8:	00461083          	lh	ra,4(a2)
    48bc:	00469c03          	lh	s8,4(a3)
    48c0:	00661e03          	lh	t3,6(a2)
    48c4:	00669b83          	lh	s7,6(a3)
    48c8:	00861303          	lh	t1,8(a2)
    48cc:	00869403          	lh	s0,8(a3)
    48d0:	00a61883          	lh	a7,10(a2)
    48d4:	00a69383          	lh	t2,10(a3)
    48d8:	00c61803          	lh	a6,12(a2)
    48dc:	035c8cb3          	mul	s9,s9,s5
    48e0:	00e78ab3          	add	s5,a5,a4
    48e4:	00c69f03          	lh	t5,12(a3)
    48e8:	00e61503          	lh	a0,14(a2)
    48ec:	00e69e83          	lh	t4,14(a3)
    48f0:	01068693          	addi	a3,a3,16
    48f4:	01060613          	addi	a2,a2,16
    48f8:	038087b3          	mul	a5,ra,s8
    48fc:	019a80b3          	add	ra,s5,s9
    4900:	037e0c33          	mul	s8,t3,s7
    4904:	00f08e33          	add	t3,ra,a5
    4908:	02830bb3          	mul	s7,t1,s0
    490c:	018e0733          	add	a4,t3,s8
    4910:	02788333          	mul	t1,a7,t2
    4914:	01770433          	add	s0,a4,s7
    4918:	03e808b3          	mul	a7,a6,t5
    491c:	006403b3          	add	t2,s0,t1
    4920:	03d50833          	mul	a6,a0,t4
    4924:	01138f33          	add	t5,t2,a7
    4928:	010f07b3          	add	a5,t5,a6
    492c:	f6d29ce3          	bne	t0,a3,48a4 <matrix_test+0x8dc>
    4930:	00f5a023          	sw	a5,0(a1)
    4934:	00458593          	addi	a1,a1,4
    4938:	01af8fb3          	add	t6,t6,s10
    493c:	e6bd96e3          	bne	s11,a1,47a8 <matrix_test+0x7e0>
    4940:	01812403          	lw	s0,24(sp)
    4944:	01c12a83          	lw	s5,28(sp)
    4948:	00c12783          	lw	a5,12(sp)
    494c:	00000513          	li	a0,0
    4950:	00000093          	li	ra,0
    4954:	00000593          	li	a1,0
    4958:	00000713          	li	a4,0
    495c:	0007a883          	lw	a7,0(a5)
    4960:	fff48293          	addi	t0,s1,-1
    4964:	01051d93          	slli	s11,a0,0x10
    4968:	011585b3          	add	a1,a1,a7
    496c:	0032ff93          	andi	t6,t0,3
    4970:	010dd613          	srli	a2,s11,0x10
    4974:	08b450e3          	bge	s0,a1,51f4 <matrix_test+0x122c>
    4978:	00a60593          	addi	a1,a2,10
    497c:	01059c93          	slli	s9,a1,0x10
    4980:	410cd513          	srai	a0,s9,0x10
    4984:	00000593          	li	a1,0
    4988:	00100813          	li	a6,1
    498c:	00478613          	addi	a2,a5,4
    4990:	00088c13          	mv	s8,a7
    4994:	1c987c63          	bgeu	a6,s1,4b6c <matrix_test+0xba4>
    4998:	120f8863          	beqz	t6,4ac8 <matrix_test+0xb00>
    499c:	070f8463          	beq	t6,a6,4a04 <matrix_test+0xa3c>
    49a0:	00200093          	li	ra,2
    49a4:	021f8863          	beq	t6,ra,49d4 <matrix_test+0xa0c>
    49a8:	00062c03          	lw	s8,0(a2)
    49ac:	01051e13          	slli	t3,a0,0x10
    49b0:	010e5b93          	srli	s7,t3,0x10
    49b4:	018585b3          	add	a1,a1,s8
    49b8:	0eb448e3          	blt	s0,a1,52a8 <matrix_test+0x12e0>
    49bc:	0188a333          	slt	t1,a7,s8
    49c0:	006b88b3          	add	a7,s7,t1
    49c4:	01089393          	slli	t2,a7,0x10
    49c8:	4103d513          	srai	a0,t2,0x10
    49cc:	00180813          	addi	a6,a6,1
    49d0:	00460613          	addi	a2,a2,4
    49d4:	00062f83          	lw	t6,0(a2)
    49d8:	01051d93          	slli	s11,a0,0x10
    49dc:	010dd513          	srli	a0,s11,0x10
    49e0:	01f585b3          	add	a1,a1,t6
    49e4:	06b440e3          	blt	s0,a1,5244 <matrix_test+0x127c>
    49e8:	01fc26b3          	slt	a3,s8,t6
    49ec:	00d50eb3          	add	t4,a0,a3
    49f0:	010e9c93          	slli	s9,t4,0x10
    49f4:	410cd513          	srai	a0,s9,0x10
    49f8:	00180813          	addi	a6,a6,1
    49fc:	00460613          	addi	a2,a2,4
    4a00:	000f8c13          	mv	s8,t6
    4a04:	00062883          	lw	a7,0(a2)
    4a08:	01051e13          	slli	t3,a0,0x10
    4a0c:	010e5b93          	srli	s7,t3,0x10
    4a10:	011585b3          	add	a1,a1,a7
    4a14:	00b44ee3          	blt	s0,a1,5230 <matrix_test+0x1268>
    4a18:	011c2333          	slt	t1,s8,a7
    4a1c:	006b83b3          	add	t2,s7,t1
    4a20:	01039f13          	slli	t5,t2,0x10
    4a24:	410f5513          	srai	a0,t5,0x10
    4a28:	00180813          	addi	a6,a6,1
    4a2c:	00460613          	addi	a2,a2,4
    4a30:	08986c63          	bltu	a6,s1,4ac8 <matrix_test+0xb00>
    4a34:	1380006f          	j	4b6c <matrix_test+0xba4>
    4a38:	00462b83          	lw	s7,4(a2)
    4a3c:	00a68c13          	addi	s8,a3,10
    4a40:	010c1e13          	slli	t3,s8,0x10
    4a44:	410e5093          	srai	ra,t3,0x10
    4a48:	00000e93          	li	t4,0
    4a4c:	01009313          	slli	t1,ra,0x10
    4a50:	017e88b3          	add	a7,t4,s7
    4a54:	00180813          	addi	a6,a6,1
    4a58:	00460613          	addi	a2,a2,4
    4a5c:	01035393          	srli	t2,t1,0x10
    4a60:	0b145463          	bge	s0,a7,4b08 <matrix_test+0xb40>
    4a64:	00a38d93          	addi	s11,t2,10
    4a68:	00462683          	lw	a3,4(a2)
    4a6c:	010d9513          	slli	a0,s11,0x10
    4a70:	41055e93          	srai	t4,a0,0x10
    4a74:	00000893          	li	a7,0
    4a78:	010e9c93          	slli	s9,t4,0x10
    4a7c:	00d88f33          	add	t5,a7,a3
    4a80:	010cd093          	srli	ra,s9,0x10
    4a84:	0be44463          	blt	s0,t5,4b2c <matrix_test+0xb64>
    4a88:	00dbac33          	slt	s8,s7,a3
    4a8c:	01808e33          	add	t3,ra,s8
    4a90:	00862883          	lw	a7,8(a2)
    4a94:	010e1b93          	slli	s7,t3,0x10
    4a98:	410bd393          	srai	t2,s7,0x10
    4a9c:	01039293          	slli	t0,t2,0x10
    4aa0:	011f05b3          	add	a1,t5,a7
    4aa4:	0102df93          	srli	t6,t0,0x10
    4aa8:	0ab44463          	blt	s0,a1,4b50 <matrix_test+0xb88>
    4aac:	0116adb3          	slt	s11,a3,a7
    4ab0:	01bf8533          	add	a0,t6,s11
    4ab4:	01051e93          	slli	t4,a0,0x10
    4ab8:	00380813          	addi	a6,a6,3
    4abc:	410ed513          	srai	a0,t4,0x10
    4ac0:	00c60613          	addi	a2,a2,12
    4ac4:	0a987463          	bgeu	a6,s1,4b6c <matrix_test+0xba4>
    4ac8:	00062d83          	lw	s11,0(a2)
    4acc:	01051513          	slli	a0,a0,0x10
    4ad0:	01055693          	srli	a3,a0,0x10
    4ad4:	01b58eb3          	add	t4,a1,s11
    4ad8:	f7d440e3          	blt	s0,t4,4a38 <matrix_test+0xa70>
    4adc:	01b8a8b3          	slt	a7,a7,s11
    4ae0:	01168cb3          	add	s9,a3,a7
    4ae4:	00462b83          	lw	s7,4(a2)
    4ae8:	010c9593          	slli	a1,s9,0x10
    4aec:	4105d093          	srai	ra,a1,0x10
    4af0:	01009313          	slli	t1,ra,0x10
    4af4:	017e88b3          	add	a7,t4,s7
    4af8:	00180813          	addi	a6,a6,1
    4afc:	00460613          	addi	a2,a2,4
    4b00:	01035393          	srli	t2,t1,0x10
    4b04:	f71440e3          	blt	s0,a7,4a64 <matrix_test+0xa9c>
    4b08:	017daf33          	slt	t5,s11,s7
    4b0c:	01e382b3          	add	t0,t2,t5
    4b10:	00462683          	lw	a3,4(a2)
    4b14:	01029f93          	slli	t6,t0,0x10
    4b18:	410fde93          	srai	t4,t6,0x10
    4b1c:	010e9c93          	slli	s9,t4,0x10
    4b20:	00d88f33          	add	t5,a7,a3
    4b24:	010cd093          	srli	ra,s9,0x10
    4b28:	f7e450e3          	bge	s0,t5,4a88 <matrix_test+0xac0>
    4b2c:	00a08593          	addi	a1,ra,10
    4b30:	00862883          	lw	a7,8(a2)
    4b34:	01059313          	slli	t1,a1,0x10
    4b38:	41035393          	srai	t2,t1,0x10
    4b3c:	00000f13          	li	t5,0
    4b40:	01039293          	slli	t0,t2,0x10
    4b44:	011f05b3          	add	a1,t5,a7
    4b48:	0102df93          	srli	t6,t0,0x10
    4b4c:	f6b450e3          	bge	s0,a1,4aac <matrix_test+0xae4>
    4b50:	00af8693          	addi	a3,t6,10
    4b54:	01069c93          	slli	s9,a3,0x10
    4b58:	00380813          	addi	a6,a6,3
    4b5c:	410cd513          	srai	a0,s9,0x10
    4b60:	00000593          	li	a1,0
    4b64:	00c60613          	addi	a2,a2,12
    4b68:	f69860e3          	bltu	a6,s1,4ac8 <matrix_test+0xb00>
    4b6c:	00170713          	addi	a4,a4,1
    4b70:	015787b3          	add	a5,a5,s5
    4b74:	00088093          	mv	ra,a7
    4b78:	de9762e3          	bltu	a4,s1,495c <matrix_test+0x994>
    4b7c:	01412583          	lw	a1,20(sp)
    4b80:	7f8010ef          	jal	ra,6378 <crc16>
    4b84:	00c12c03          	lw	s8,12(sp)
    4b88:	01012603          	lw	a2,16(sp)
    4b8c:	00050b93          	mv	s7,a0
    4b90:	000c0593          	mv	a1,s8
    4b94:	00048513          	mv	a0,s1
    4b98:	000b0693          	mv	a3,s6
    4b9c:	fc5fe0ef          	jal	ra,3b60 <matrix_mul_matrix>
    4ba0:	00000513          	li	a0,0
    4ba4:	00000e13          	li	t3,0
    4ba8:	00000593          	li	a1,0
    4bac:	00000393          	li	t2,0
    4bb0:	000c2883          	lw	a7,0(s8)
    4bb4:	fff48313          	addi	t1,s1,-1
    4bb8:	01051293          	slli	t0,a0,0x10
    4bbc:	011585b3          	add	a1,a1,a7
    4bc0:	00337f13          	andi	t5,t1,3
    4bc4:	0102df93          	srli	t6,t0,0x10
    4bc8:	60b45263          	bge	s0,a1,51cc <matrix_test+0x1204>
    4bcc:	00af8693          	addi	a3,t6,10
    4bd0:	01069c93          	slli	s9,a3,0x10
    4bd4:	410cd513          	srai	a0,s9,0x10
    4bd8:	00000593          	li	a1,0
    4bdc:	00100813          	li	a6,1
    4be0:	004c0613          	addi	a2,s8,4
    4be4:	00088093          	mv	ra,a7
    4be8:	1c987e63          	bgeu	a6,s1,4dc4 <matrix_test+0xdfc>
    4bec:	120f0a63          	beqz	t5,4d20 <matrix_test+0xd58>
    4bf0:	070f0663          	beq	t5,a6,4c5c <matrix_test+0xc94>
    4bf4:	00200713          	li	a4,2
    4bf8:	02ef0a63          	beq	t5,a4,4c2c <matrix_test+0xc64>
    4bfc:	00062783          	lw	a5,0(a2)
    4c00:	01051093          	slli	ra,a0,0x10
    4c04:	0100de13          	srli	t3,ra,0x10
    4c08:	00f585b3          	add	a1,a1,a5
    4c0c:	68b44463          	blt	s0,a1,5294 <matrix_test+0x12cc>
    4c10:	00f8a8b3          	slt	a7,a7,a5
    4c14:	011e0333          	add	t1,t3,a7
    4c18:	01031f13          	slli	t5,t1,0x10
    4c1c:	410f5513          	srai	a0,t5,0x10
    4c20:	00180813          	addi	a6,a6,1
    4c24:	00460613          	addi	a2,a2,4
    4c28:	00078093          	mv	ra,a5
    4c2c:	00062f83          	lw	t6,0(a2)
    4c30:	01051d93          	slli	s11,a0,0x10
    4c34:	010dd513          	srli	a0,s11,0x10
    4c38:	01f585b3          	add	a1,a1,t6
    4c3c:	62b44863          	blt	s0,a1,526c <matrix_test+0x12a4>
    4c40:	01f0aeb3          	slt	t4,ra,t6
    4c44:	01d506b3          	add	a3,a0,t4
    4c48:	01069c93          	slli	s9,a3,0x10
    4c4c:	410cd513          	srai	a0,s9,0x10
    4c50:	00180813          	addi	a6,a6,1
    4c54:	00460613          	addi	a2,a2,4
    4c58:	000f8093          	mv	ra,t6
    4c5c:	00062883          	lw	a7,0(a2)
    4c60:	01051e13          	slli	t3,a0,0x10
    4c64:	010e5313          	srli	t1,t3,0x10
    4c68:	011585b3          	add	a1,a1,a7
    4c6c:	58b44e63          	blt	s0,a1,5208 <matrix_test+0x1240>
    4c70:	0110af33          	slt	t5,ra,a7
    4c74:	01e302b3          	add	t0,t1,t5
    4c78:	01029f93          	slli	t6,t0,0x10
    4c7c:	410fd513          	srai	a0,t6,0x10
    4c80:	00180813          	addi	a6,a6,1
    4c84:	00460613          	addi	a2,a2,4
    4c88:	08986c63          	bltu	a6,s1,4d20 <matrix_test+0xd58>
    4c8c:	1380006f          	j	4dc4 <matrix_test+0xdfc>
    4c90:	00462f03          	lw	t5,4(a2)
    4c94:	00a68e13          	addi	t3,a3,10
    4c98:	010e1313          	slli	t1,t3,0x10
    4c9c:	41035093          	srai	ra,t1,0x10
    4ca0:	00000c93          	li	s9,0
    4ca4:	01009293          	slli	t0,ra,0x10
    4ca8:	01ec88b3          	add	a7,s9,t5
    4cac:	00180813          	addi	a6,a6,1
    4cb0:	00460613          	addi	a2,a2,4
    4cb4:	0102df93          	srli	t6,t0,0x10
    4cb8:	0b145463          	bge	s0,a7,4d60 <matrix_test+0xd98>
    4cbc:	00af8593          	addi	a1,t6,10
    4cc0:	00462703          	lw	a4,4(a2)
    4cc4:	01059693          	slli	a3,a1,0x10
    4cc8:	4106dc93          	srai	s9,a3,0x10
    4ccc:	00000893          	li	a7,0
    4cd0:	010c9793          	slli	a5,s9,0x10
    4cd4:	00e88eb3          	add	t4,a7,a4
    4cd8:	0107d093          	srli	ra,a5,0x10
    4cdc:	0bd44463          	blt	s0,t4,4d84 <matrix_test+0xdbc>
    4ce0:	00ef2e33          	slt	t3,t5,a4
    4ce4:	01c08333          	add	t1,ra,t3
    4ce8:	00862883          	lw	a7,8(a2)
    4cec:	01031f13          	slli	t5,t1,0x10
    4cf0:	410f5d93          	srai	s11,t5,0x10
    4cf4:	010d9513          	slli	a0,s11,0x10
    4cf8:	011e85b3          	add	a1,t4,a7
    4cfc:	01055c93          	srli	s9,a0,0x10
    4d00:	0ab44463          	blt	s0,a1,4da8 <matrix_test+0xde0>
    4d04:	011726b3          	slt	a3,a4,a7
    4d08:	00dc8733          	add	a4,s9,a3
    4d0c:	01071793          	slli	a5,a4,0x10
    4d10:	00380813          	addi	a6,a6,3
    4d14:	4107d513          	srai	a0,a5,0x10
    4d18:	00c60613          	addi	a2,a2,12
    4d1c:	0a987463          	bgeu	a6,s1,4dc4 <matrix_test+0xdfc>
    4d20:	00062e83          	lw	t4,0(a2)
    4d24:	01051513          	slli	a0,a0,0x10
    4d28:	01055693          	srli	a3,a0,0x10
    4d2c:	01d58cb3          	add	s9,a1,t4
    4d30:	f79440e3          	blt	s0,s9,4c90 <matrix_test+0xcc8>
    4d34:	01d8a8b3          	slt	a7,a7,t4
    4d38:	01168733          	add	a4,a3,a7
    4d3c:	00462f03          	lw	t5,4(a2)
    4d40:	01071793          	slli	a5,a4,0x10
    4d44:	4107d093          	srai	ra,a5,0x10
    4d48:	01009293          	slli	t0,ra,0x10
    4d4c:	01ec88b3          	add	a7,s9,t5
    4d50:	00180813          	addi	a6,a6,1
    4d54:	00460613          	addi	a2,a2,4
    4d58:	0102df93          	srli	t6,t0,0x10
    4d5c:	f71440e3          	blt	s0,a7,4cbc <matrix_test+0xcf4>
    4d60:	01eeadb3          	slt	s11,t4,t5
    4d64:	01bf8eb3          	add	t4,t6,s11
    4d68:	00462703          	lw	a4,4(a2)
    4d6c:	010e9513          	slli	a0,t4,0x10
    4d70:	41055c93          	srai	s9,a0,0x10
    4d74:	010c9793          	slli	a5,s9,0x10
    4d78:	00e88eb3          	add	t4,a7,a4
    4d7c:	0107d093          	srli	ra,a5,0x10
    4d80:	f7d450e3          	bge	s0,t4,4ce0 <matrix_test+0xd18>
    4d84:	00a08293          	addi	t0,ra,10
    4d88:	00862883          	lw	a7,8(a2)
    4d8c:	01029f93          	slli	t6,t0,0x10
    4d90:	410fdd93          	srai	s11,t6,0x10
    4d94:	00000e93          	li	t4,0
    4d98:	010d9513          	slli	a0,s11,0x10
    4d9c:	011e85b3          	add	a1,t4,a7
    4da0:	01055c93          	srli	s9,a0,0x10
    4da4:	f6b450e3          	bge	s0,a1,4d04 <matrix_test+0xd3c>
    4da8:	00ac8593          	addi	a1,s9,10
    4dac:	01059093          	slli	ra,a1,0x10
    4db0:	00380813          	addi	a6,a6,3
    4db4:	4100d513          	srai	a0,ra,0x10
    4db8:	00000593          	li	a1,0
    4dbc:	00c60613          	addi	a2,a2,12
    4dc0:	f69860e3          	bltu	a6,s1,4d20 <matrix_test+0xd58>
    4dc4:	00138393          	addi	t2,t2,1
    4dc8:	015c0c33          	add	s8,s8,s5
    4dcc:	00088e13          	mv	t3,a7
    4dd0:	de93e0e3          	bltu	t2,s1,4bb0 <matrix_test+0xbe8>
    4dd4:	000b8593          	mv	a1,s7
    4dd8:	5a0010ef          	jal	ra,6378 <crc16>
    4ddc:	01012603          	lw	a2,16(sp)
    4de0:	00c12583          	lw	a1,12(sp)
    4de4:	000b0693          	mv	a3,s6
    4de8:	00050b93          	mv	s7,a0
    4dec:	00048513          	mv	a0,s1
    4df0:	fe1fe0ef          	jal	ra,3dd0 <matrix_mul_matrix_bitextract>
    4df4:	00000513          	li	a0,0
    4df8:	00000b13          	li	s6,0
    4dfc:	00000e93          	li	t4,0
    4e00:	00000c13          	li	s8,0
    4e04:	000a2683          	lw	a3,0(s4)
    4e08:	fff48393          	addi	t2,s1,-1
    4e0c:	01051313          	slli	t1,a0,0x10
    4e10:	00de8eb3          	add	t4,t4,a3
    4e14:	0033fe13          	andi	t3,t2,3
    4e18:	01035f13          	srli	t5,t1,0x10
    4e1c:	3dd45263          	bge	s0,t4,51e0 <matrix_test+0x1218>
    4e20:	00af0e93          	addi	t4,t5,10
    4e24:	010e9893          	slli	a7,t4,0x10
    4e28:	4108d513          	srai	a0,a7,0x10
    4e2c:	00000e93          	li	t4,0
    4e30:	00100593          	li	a1,1
    4e34:	004a0613          	addi	a2,s4,4
    4e38:	00068893          	mv	a7,a3
    4e3c:	1c95fc63          	bgeu	a1,s1,5014 <matrix_test+0x104c>
    4e40:	120e0863          	beqz	t3,4f70 <matrix_test+0xfa8>
    4e44:	06be0463          	beq	t3,a1,4eac <matrix_test+0xee4>
    4e48:	00200c93          	li	s9,2
    4e4c:	039e0863          	beq	t3,s9,4e7c <matrix_test+0xeb4>
    4e50:	00062883          	lw	a7,0(a2)
    4e54:	01051513          	slli	a0,a0,0x10
    4e58:	01055713          	srli	a4,a0,0x10
    4e5c:	011e8eb3          	add	t4,t4,a7
    4e60:	43d44063          	blt	s0,t4,5280 <matrix_test+0x12b8>
    4e64:	0116a6b3          	slt	a3,a3,a7
    4e68:	00d707b3          	add	a5,a4,a3
    4e6c:	01079093          	slli	ra,a5,0x10
    4e70:	4100d513          	srai	a0,ra,0x10
    4e74:	00158593          	addi	a1,a1,1
    4e78:	00460613          	addi	a2,a2,4
    4e7c:	00062383          	lw	t2,0(a2)
    4e80:	01051e13          	slli	t3,a0,0x10
    4e84:	010e5313          	srli	t1,t3,0x10
    4e88:	007e8eb3          	add	t4,t4,t2
    4e8c:	3dd44663          	blt	s0,t4,5258 <matrix_test+0x1290>
    4e90:	0078af33          	slt	t5,a7,t2
    4e94:	01e302b3          	add	t0,t1,t5
    4e98:	01029f93          	slli	t6,t0,0x10
    4e9c:	410fd513          	srai	a0,t6,0x10
    4ea0:	00158593          	addi	a1,a1,1
    4ea4:	00460613          	addi	a2,a2,4
    4ea8:	00038893          	mv	a7,t2
    4eac:	00062683          	lw	a3,0(a2)
    4eb0:	01051c93          	slli	s9,a0,0x10
    4eb4:	010cd513          	srli	a0,s9,0x10
    4eb8:	00de8eb3          	add	t4,t4,a3
    4ebc:	37d44063          	blt	s0,t4,521c <matrix_test+0x1254>
    4ec0:	00d8a733          	slt	a4,a7,a3
    4ec4:	00e507b3          	add	a5,a0,a4
    4ec8:	01079093          	slli	ra,a5,0x10
    4ecc:	4100d513          	srai	a0,ra,0x10
    4ed0:	00158593          	addi	a1,a1,1
    4ed4:	00460613          	addi	a2,a2,4
    4ed8:	0895ec63          	bltu	a1,s1,4f70 <matrix_test+0xfa8>
    4edc:	1380006f          	j	5014 <matrix_test+0x104c>
    4ee0:	00a30e93          	addi	t4,t1,10
    4ee4:	00462c83          	lw	s9,4(a2)
    4ee8:	010e9893          	slli	a7,t4,0x10
    4eec:	4108dd93          	srai	s11,a7,0x10
    4ef0:	00000f13          	li	t5,0
    4ef4:	00158713          	addi	a4,a1,1
    4ef8:	019f0333          	add	t1,t5,s9
    4efc:	010d9593          	slli	a1,s11,0x10
    4f00:	00460613          	addi	a2,a2,4
    4f04:	0105d513          	srli	a0,a1,0x10
    4f08:	0a645463          	bge	s0,t1,4fb0 <matrix_test+0xfe8>
    4f0c:	00a50813          	addi	a6,a0,10
    4f10:	00462f03          	lw	t5,4(a2)
    4f14:	01081393          	slli	t2,a6,0x10
    4f18:	4103de13          	srai	t3,t2,0x10
    4f1c:	00000313          	li	t1,0
    4f20:	010e1693          	slli	a3,t3,0x10
    4f24:	01e307b3          	add	a5,t1,t5
    4f28:	0106d293          	srli	t0,a3,0x10
    4f2c:	0af44463          	blt	s0,a5,4fd4 <matrix_test+0x100c>
    4f30:	01ecafb3          	slt	t6,s9,t5
    4f34:	01f28db3          	add	s11,t0,t6
    4f38:	00862683          	lw	a3,8(a2)
    4f3c:	010d9e93          	slli	t4,s11,0x10
    4f40:	410ed593          	srai	a1,t4,0x10
    4f44:	01059513          	slli	a0,a1,0x10
    4f48:	00d78eb3          	add	t4,a5,a3
    4f4c:	01055093          	srli	ra,a0,0x10
    4f50:	0bd44463          	blt	s0,t4,4ff8 <matrix_test+0x1030>
    4f54:	00df2b33          	slt	s6,t5,a3
    4f58:	016083b3          	add	t2,ra,s6
    4f5c:	01039e13          	slli	t3,t2,0x10
    4f60:	00370593          	addi	a1,a4,3
    4f64:	410e5513          	srai	a0,t3,0x10
    4f68:	00c60613          	addi	a2,a2,12
    4f6c:	0a95f463          	bgeu	a1,s1,5014 <matrix_test+0x104c>
    4f70:	00062383          	lw	t2,0(a2)
    4f74:	01051e13          	slli	t3,a0,0x10
    4f78:	010e5313          	srli	t1,t3,0x10
    4f7c:	007e8f33          	add	t5,t4,t2
    4f80:	f7e440e3          	blt	s0,t5,4ee0 <matrix_test+0xf18>
    4f84:	0076a6b3          	slt	a3,a3,t2
    4f88:	00d302b3          	add	t0,t1,a3
    4f8c:	00462c83          	lw	s9,4(a2)
    4f90:	01029f93          	slli	t6,t0,0x10
    4f94:	410fdd93          	srai	s11,t6,0x10
    4f98:	00158713          	addi	a4,a1,1
    4f9c:	019f0333          	add	t1,t5,s9
    4fa0:	010d9593          	slli	a1,s11,0x10
    4fa4:	00460613          	addi	a2,a2,4
    4fa8:	0105d513          	srli	a0,a1,0x10
    4fac:	f66440e3          	blt	s0,t1,4f0c <matrix_test+0xf44>
    4fb0:	0193a7b3          	slt	a5,t2,s9
    4fb4:	00f500b3          	add	ra,a0,a5
    4fb8:	00462f03          	lw	t5,4(a2)
    4fbc:	01009b13          	slli	s6,ra,0x10
    4fc0:	410b5e13          	srai	t3,s6,0x10
    4fc4:	010e1693          	slli	a3,t3,0x10
    4fc8:	01e307b3          	add	a5,t1,t5
    4fcc:	0106d293          	srli	t0,a3,0x10
    4fd0:	f6f450e3          	bge	s0,a5,4f30 <matrix_test+0xf68>
    4fd4:	00a28893          	addi	a7,t0,10
    4fd8:	00862683          	lw	a3,8(a2)
    4fdc:	01089c93          	slli	s9,a7,0x10
    4fe0:	410cd593          	srai	a1,s9,0x10
    4fe4:	00000793          	li	a5,0
    4fe8:	01059513          	slli	a0,a1,0x10
    4fec:	00d78eb3          	add	t4,a5,a3
    4ff0:	01055093          	srli	ra,a0,0x10
    4ff4:	f7d450e3          	bge	s0,t4,4f54 <matrix_test+0xf8c>
    4ff8:	00a08813          	addi	a6,ra,10
    4ffc:	01081313          	slli	t1,a6,0x10
    5000:	00370593          	addi	a1,a4,3
    5004:	41035513          	srai	a0,t1,0x10
    5008:	00000e93          	li	t4,0
    500c:	00c60613          	addi	a2,a2,12
    5010:	f695e0e3          	bltu	a1,s1,4f70 <matrix_test+0xfa8>
    5014:	001c0c13          	addi	s8,s8,1
    5018:	015a0a33          	add	s4,s4,s5
    501c:	00068b13          	mv	s6,a3
    5020:	de9c62e3          	bltu	s8,s1,4e04 <matrix_test+0xe3c>
    5024:	000b8593          	mv	a1,s7
    5028:	350010ef          	jal	ra,6378 <crc16>
    502c:	00000a13          	li	s4,0
    5030:	0009d403          	lhu	s0,0(s3)
    5034:	fff48a93          	addi	s5,s1,-1
    5038:	00100713          	li	a4,1
    503c:	41240bb3          	sub	s7,s0,s2
    5040:	01799023          	sh	s7,0(s3)
    5044:	007afc13          	andi	s8,s5,7
    5048:	00298793          	addi	a5,s3,2
    504c:	12977863          	bgeu	a4,s1,517c <matrix_test+0x11b4>
    5050:	0c0c0063          	beqz	s8,5110 <matrix_test+0x1148>
    5054:	0aec0263          	beq	s8,a4,50f8 <matrix_test+0x1130>
    5058:	00200f13          	li	t5,2
    505c:	09ec0463          	beq	s8,t5,50e4 <matrix_test+0x111c>
    5060:	00300293          	li	t0,3
    5064:	065c0663          	beq	s8,t0,50d0 <matrix_test+0x1108>
    5068:	00400f93          	li	t6,4
    506c:	05fc0863          	beq	s8,t6,50bc <matrix_test+0x10f4>
    5070:	00500d93          	li	s11,5
    5074:	03bc0a63          	beq	s8,s11,50a8 <matrix_test+0x10e0>
    5078:	00600893          	li	a7,6
    507c:	011c0c63          	beq	s8,a7,5094 <matrix_test+0x10cc>
    5080:	0007dc83          	lhu	s9,0(a5)
    5084:	00200713          	li	a4,2
    5088:	412c86b3          	sub	a3,s9,s2
    508c:	00d79023          	sh	a3,0(a5)
    5090:	00498793          	addi	a5,s3,4
    5094:	0007d083          	lhu	ra,0(a5)
    5098:	00170713          	addi	a4,a4,1
    509c:	00278793          	addi	a5,a5,2
    50a0:	41208b33          	sub	s6,ra,s2
    50a4:	ff679f23          	sh	s6,-2(a5)
    50a8:	0007d383          	lhu	t2,0(a5)
    50ac:	00170713          	addi	a4,a4,1
    50b0:	00278793          	addi	a5,a5,2
    50b4:	41238e33          	sub	t3,t2,s2
    50b8:	ffc79f23          	sh	t3,-2(a5)
    50bc:	0007d803          	lhu	a6,0(a5)
    50c0:	00170713          	addi	a4,a4,1
    50c4:	00278793          	addi	a5,a5,2
    50c8:	41280333          	sub	t1,a6,s2
    50cc:	fe679f23          	sh	t1,-2(a5)
    50d0:	0007de83          	lhu	t4,0(a5)
    50d4:	00170713          	addi	a4,a4,1
    50d8:	00278793          	addi	a5,a5,2
    50dc:	412e85b3          	sub	a1,t4,s2
    50e0:	feb79f23          	sh	a1,-2(a5)
    50e4:	0007d603          	lhu	a2,0(a5)
    50e8:	00170713          	addi	a4,a4,1
    50ec:	00278793          	addi	a5,a5,2
    50f0:	41260433          	sub	s0,a2,s2
    50f4:	fe879f23          	sh	s0,-2(a5)
    50f8:	0007da83          	lhu	s5,0(a5)
    50fc:	00278793          	addi	a5,a5,2
    5100:	00170713          	addi	a4,a4,1
    5104:	412a8bb3          	sub	s7,s5,s2
    5108:	ff779f23          	sh	s7,-2(a5)
    510c:	06977863          	bgeu	a4,s1,517c <matrix_test+0x11b4>
    5110:	0007dc03          	lhu	s8,0(a5)
    5114:	0027d283          	lhu	t0,2(a5)
    5118:	0047df83          	lhu	t6,4(a5)
    511c:	0067dd83          	lhu	s11,6(a5)
    5120:	0087dc83          	lhu	s9,8(a5)
    5124:	00a7d083          	lhu	ra,10(a5)
    5128:	00c7db03          	lhu	s6,12(a5)
    512c:	00e7d683          	lhu	a3,14(a5)
    5130:	412c0f33          	sub	t5,s8,s2
    5134:	412283b3          	sub	t2,t0,s2
    5138:	412f8e33          	sub	t3,t6,s2
    513c:	412d88b3          	sub	a7,s11,s2
    5140:	412c8833          	sub	a6,s9,s2
    5144:	41208333          	sub	t1,ra,s2
    5148:	412b0eb3          	sub	t4,s6,s2
    514c:	412685b3          	sub	a1,a3,s2
    5150:	01e79023          	sh	t5,0(a5)
    5154:	00779123          	sh	t2,2(a5)
    5158:	01c79223          	sh	t3,4(a5)
    515c:	01179323          	sh	a7,6(a5)
    5160:	01079423          	sh	a6,8(a5)
    5164:	00679523          	sh	t1,10(a5)
    5168:	01d79623          	sh	t4,12(a5)
    516c:	00b79723          	sh	a1,14(a5)
    5170:	00870713          	addi	a4,a4,8
    5174:	01078793          	addi	a5,a5,16
    5178:	f8976ce3          	bltu	a4,s1,5110 <matrix_test+0x1148>
    517c:	001a0a13          	addi	s4,s4,1
    5180:	01a989b3          	add	s3,s3,s10
    5184:	ea9a66e3          	bltu	s4,s1,5030 <matrix_test+0x1068>
    5188:	05c12083          	lw	ra,92(sp)
    518c:	05812403          	lw	s0,88(sp)
    5190:	01051493          	slli	s1,a0,0x10
    5194:	4104d513          	srai	a0,s1,0x10
    5198:	05012903          	lw	s2,80(sp)
    519c:	05412483          	lw	s1,84(sp)
    51a0:	04c12983          	lw	s3,76(sp)
    51a4:	04812a03          	lw	s4,72(sp)
    51a8:	04412a83          	lw	s5,68(sp)
    51ac:	04012b03          	lw	s6,64(sp)
    51b0:	03c12b83          	lw	s7,60(sp)
    51b4:	03812c03          	lw	s8,56(sp)
    51b8:	03412c83          	lw	s9,52(sp)
    51bc:	03012d03          	lw	s10,48(sp)
    51c0:	02c12d83          	lw	s11,44(sp)
    51c4:	06010113          	addi	sp,sp,96
    51c8:	00008067          	ret
    51cc:	011e2db3          	slt	s11,t3,a7
    51d0:	01bf8533          	add	a0,t6,s11
    51d4:	01051e93          	slli	t4,a0,0x10
    51d8:	410ed513          	srai	a0,t4,0x10
    51dc:	a01ff06f          	j	4bdc <matrix_test+0xc14>
    51e0:	00db22b3          	slt	t0,s6,a3
    51e4:	005f0fb3          	add	t6,t5,t0
    51e8:	010f9d93          	slli	s11,t6,0x10
    51ec:	410dd513          	srai	a0,s11,0x10
    51f0:	c41ff06f          	j	4e30 <matrix_test+0xe68>
    51f4:	0110a6b3          	slt	a3,ra,a7
    51f8:	00d60533          	add	a0,a2,a3
    51fc:	01051e93          	slli	t4,a0,0x10
    5200:	410ed513          	srai	a0,t4,0x10
    5204:	f84ff06f          	j	4988 <matrix_test+0x9c0>
    5208:	00a30593          	addi	a1,t1,10
    520c:	01059d93          	slli	s11,a1,0x10
    5210:	410dd513          	srai	a0,s11,0x10
    5214:	00000593          	li	a1,0
    5218:	a69ff06f          	j	4c80 <matrix_test+0xcb8>
    521c:	00a50813          	addi	a6,a0,10
    5220:	01081b13          	slli	s6,a6,0x10
    5224:	410b5513          	srai	a0,s6,0x10
    5228:	00000e93          	li	t4,0
    522c:	ca5ff06f          	j	4ed0 <matrix_test+0xf08>
    5230:	00ab8293          	addi	t0,s7,10
    5234:	01029f93          	slli	t6,t0,0x10
    5238:	410fd513          	srai	a0,t6,0x10
    523c:	00000593          	li	a1,0
    5240:	fe8ff06f          	j	4a28 <matrix_test+0xa60>
    5244:	00a50593          	addi	a1,a0,10
    5248:	01059093          	slli	ra,a1,0x10
    524c:	4100d513          	srai	a0,ra,0x10
    5250:	00000593          	li	a1,0
    5254:	fa4ff06f          	j	49f8 <matrix_test+0xa30>
    5258:	00a30d93          	addi	s11,t1,10
    525c:	010d9e93          	slli	t4,s11,0x10
    5260:	410ed513          	srai	a0,t4,0x10
    5264:	00000e93          	li	t4,0
    5268:	c39ff06f          	j	4ea0 <matrix_test+0xed8>
    526c:	00a50713          	addi	a4,a0,10
    5270:	01071793          	slli	a5,a4,0x10
    5274:	4107d513          	srai	a0,a5,0x10
    5278:	00000593          	li	a1,0
    527c:	9d5ff06f          	j	4c50 <matrix_test+0xc88>
    5280:	00a70813          	addi	a6,a4,10
    5284:	01081b13          	slli	s6,a6,0x10
    5288:	410b5513          	srai	a0,s6,0x10
    528c:	00000e93          	li	t4,0
    5290:	be5ff06f          	j	4e74 <matrix_test+0xeac>
    5294:	00ae0593          	addi	a1,t3,10
    5298:	01059293          	slli	t0,a1,0x10
    529c:	4102d513          	srai	a0,t0,0x10
    52a0:	00000593          	li	a1,0
    52a4:	97dff06f          	j	4c20 <matrix_test+0xc58>
    52a8:	00ab8f13          	addi	t5,s7,10
    52ac:	010f1293          	slli	t0,t5,0x10
    52b0:	4102d513          	srai	a0,t0,0x10
    52b4:	00000593          	li	a1,0
    52b8:	f14ff06f          	j	49cc <matrix_test+0xa04>
    52bc:	00a78593          	addi	a1,a5,10
    52c0:	01059e93          	slli	t4,a1,0x10
    52c4:	410ed513          	srai	a0,t4,0x10
    52c8:	00000593          	li	a1,0
    52cc:	8d0ff06f          	j	439c <matrix_test+0x3d4>
    52d0:	00000593          	li	a1,0
    52d4:	0a4010ef          	jal	ra,6378 <crc16>
    52d8:	00050593          	mv	a1,a0
    52dc:	00000513          	li	a0,0
    52e0:	098010ef          	jal	ra,6378 <crc16>
    52e4:	01012903          	lw	s2,16(sp)
    52e8:	00c12483          	lw	s1,12(sp)
    52ec:	000b0693          	mv	a3,s6
    52f0:	00090613          	mv	a2,s2
    52f4:	00050993          	mv	s3,a0
    52f8:	00048593          	mv	a1,s1
    52fc:	00000513          	li	a0,0
    5300:	861fe0ef          	jal	ra,3b60 <matrix_mul_matrix>
    5304:	00098593          	mv	a1,s3
    5308:	00000513          	li	a0,0
    530c:	06c010ef          	jal	ra,6378 <crc16>
    5310:	00050a13          	mv	s4,a0
    5314:	00048593          	mv	a1,s1
    5318:	000b0693          	mv	a3,s6
    531c:	00090613          	mv	a2,s2
    5320:	00000513          	li	a0,0
    5324:	aadfe0ef          	jal	ra,3dd0 <matrix_mul_matrix_bitextract>
    5328:	000a0593          	mv	a1,s4
    532c:	00000513          	li	a0,0
    5330:	048010ef          	jal	ra,6378 <crc16>
    5334:	e55ff06f          	j	5188 <matrix_test+0x11c0>

00005338 <core_bench_matrix>:
    5338:	ff010113          	addi	sp,sp,-16
    533c:	00812423          	sw	s0,8(sp)
    5340:	00058713          	mv	a4,a1
    5344:	00060413          	mv	s0,a2
    5348:	00c52583          	lw	a1,12(a0)
    534c:	00852683          	lw	a3,8(a0)
    5350:	00452603          	lw	a2,4(a0)
    5354:	00052503          	lw	a0,0(a0)
    5358:	00112623          	sw	ra,12(sp)
    535c:	c6dfe0ef          	jal	ra,3fc8 <matrix_test>
    5360:	00040593          	mv	a1,s0
    5364:	00812403          	lw	s0,8(sp)
    5368:	00c12083          	lw	ra,12(sp)
    536c:	01010113          	addi	sp,sp,16
    5370:	0080106f          	j	6378 <crc16>

00005374 <uart_putc>:
    5374:	00050593          	mv	a1,a0
    5378:	83018513          	addi	a0,gp,-2000 # 100007b0 <uart0>
    537c:	ac1fb06f          	j	e3c <apb_uart_send_byte>

00005380 <start_time>:
    5380:	ff010113          	addi	sp,sp,-16
    5384:	00112623          	sw	ra,12(sp)
    5388:	c85fb0ef          	jal	ra,100c <get_cycle_value>
    538c:	00c12083          	lw	ra,12(sp)
    5390:	82a1a023          	sw	a0,-2016(gp) # 100007a0 <t0>
    5394:	82b1a223          	sw	a1,-2012(gp) # 100007a4 <t0+0x4>
    5398:	01010113          	addi	sp,sp,16
    539c:	00008067          	ret

000053a0 <stop_time>:
    53a0:	ff010113          	addi	sp,sp,-16
    53a4:	00112623          	sw	ra,12(sp)
    53a8:	c65fb0ef          	jal	ra,100c <get_cycle_value>
    53ac:	00c12083          	lw	ra,12(sp)
    53b0:	82a1a423          	sw	a0,-2008(gp) # 100007a8 <t1>
    53b4:	82b1a623          	sw	a1,-2004(gp) # 100007ac <t1+0x4>
    53b8:	01010113          	addi	sp,sp,16
    53bc:	00008067          	ret

000053c0 <get_time>:
    53c0:	82818293          	addi	t0,gp,-2008 # 100007a8 <t1>
    53c4:	82018313          	addi	t1,gp,-2016 # 100007a0 <t0>
    53c8:	0002a583          	lw	a1,0(t0)
    53cc:	00032503          	lw	a0,0(t1)
    53d0:	0042a383          	lw	t2,4(t0)
    53d4:	00432603          	lw	a2,4(t1)
    53d8:	40a58533          	sub	a0,a1,a0
    53dc:	00a5b6b3          	sltu	a3,a1,a0
    53e0:	40c38833          	sub	a6,t2,a2
    53e4:	40d805b3          	sub	a1,a6,a3
    53e8:	00008067          	ret

000053ec <time_in_secs>:
    53ec:	01859593          	slli	a1,a1,0x18
    53f0:	00855513          	srli	a0,a0,0x8
    53f4:	ff010113          	addi	sp,sp,-16
    53f8:	00a5e533          	or	a0,a1,a0
    53fc:	00112623          	sw	ra,12(sp)
    5400:	21d010ef          	jal	ra,6e1c <__floatunsidf>
    5404:	100007b7          	lui	a5,0x10000
    5408:	5187a603          	lw	a2,1304(a5) # 10000518 <state_known_crc+0x10>
    540c:	51c7a683          	lw	a3,1308(a5)
    5410:	1f8010ef          	jal	ra,6608 <__divdf3>
    5414:	191010ef          	jal	ra,6da4 <__fixunsdfsi>
    5418:	00c12083          	lw	ra,12(sp)
    541c:	01010113          	addi	sp,sp,16
    5420:	00008067          	ret

00005424 <portable_init>:
    5424:	ff010113          	addi	sp,sp,-16
    5428:	400035b7          	lui	a1,0x40003
    542c:	83018513          	addi	a0,gp,-2000 # 100007b0 <uart0>
    5430:	00112623          	sw	ra,12(sp)
    5434:	9fdfb0ef          	jal	ra,e30 <apb_uart_init>
    5438:	00c12083          	lw	ra,12(sp)
    543c:	000057b7          	lui	a5,0x5
    5440:	37478293          	addi	t0,a5,884 # 5374 <uart_putc>
    5444:	8051a623          	sw	t0,-2036(gp) # 1000078c <xfunc_out>
    5448:	01010113          	addi	sp,sp,16
    544c:	00008067          	ret

00005450 <core_init_state>:
    5450:	00000793          	li	a5,0
    5454:	00000693          	li	a3,0
    5458:	ff010113          	addi	sp,sp,-16
    545c:	00158593          	addi	a1,a1,1 # 40003001 <__freertos_irq_stack_top+0x2fffb001>
    5460:	00f68733          	add	a4,a3,a5
    5464:	01059293          	slli	t0,a1,0x10
    5468:	00812623          	sw	s0,12(sp)
    546c:	00912423          	sw	s1,8(sp)
    5470:	10000fb7          	lui	t6,0x10000
    5474:	10000337          	lui	t1,0x10000
    5478:	10000f37          	lui	t5,0x10000
    547c:	10000eb7          	lui	t4,0x10000
    5480:	10000e37          	lui	t3,0x10000
    5484:	01212223          	sw	s2,4(sp)
    5488:	fff50893          	addi	a7,a0,-1
    548c:	00170493          	addi	s1,a4,1
    5490:	0102d593          	srli	a1,t0,0x10
    5494:	00000413          	li	s0,0
    5498:	00400813          	li	a6,4
    549c:	02c00293          	li	t0,44
    54a0:	00800393          	li	t2,8
    54a4:	554f8f93          	addi	t6,t6,1364 # 10000554 <intpat>
    54a8:	52030313          	addi	t1,t1,1312 # 10000520 <state_known_crc+0x18>
    54ac:	534f0f13          	addi	t5,t5,1332 # 10000534 <errpat>
    54b0:	564e8e93          	addi	t4,t4,1380 # 10000564 <scipat>
    54b4:	544e0e13          	addi	t3,t3,1348 # 10000544 <floatpat>
    54b8:	0514fe63          	bgeu	s1,a7,5514 <core_init_state+0xc4>
    54bc:	12079863          	bnez	a5,55ec <core_init_state+0x19c>
    54c0:	0075f493          	andi	s1,a1,7
    54c4:	ffd48793          	addi	a5,s1,-3
    54c8:	01079413          	slli	s0,a5,0x10
    54cc:	0035d913          	srli	s2,a1,0x3
    54d0:	01045493          	srli	s1,s0,0x10
    54d4:	00397713          	andi	a4,s2,3
    54d8:	18986463          	bltu	a6,s1,5660 <core_init_state+0x210>
    54dc:	00249793          	slli	a5,s1,0x2
    54e0:	00678933          	add	s2,a5,t1
    54e4:	00092403          	lw	s0,0(s2)
    54e8:	00271493          	slli	s1,a4,0x2
    54ec:	00040067          	jr	s0 # fffff000 <__freertos_irq_stack_top+0xefff7000>
    54f0:	009e0733          	add	a4,t3,s1
    54f4:	00072403          	lw	s0,0(a4)
    54f8:	00800793          	li	a5,8
    54fc:	00158593          	addi	a1,a1,1
    5500:	00f68733          	add	a4,a3,a5
    5504:	01059913          	slli	s2,a1,0x10
    5508:	00170493          	addi	s1,a4,1
    550c:	01095593          	srli	a1,s2,0x10
    5510:	fb14e6e3          	bltu	s1,a7,54bc <core_init_state+0x6c>
    5514:	00d607b3          	add	a5,a2,a3
    5518:	00a60633          	add	a2,a2,a0
    551c:	08a6fe63          	bgeu	a3,a0,55b8 <core_init_state+0x168>
    5520:	40f603b3          	sub	t2,a2,a5
    5524:	0073f413          	andi	s0,t2,7
    5528:	06040463          	beqz	s0,5590 <core_init_state+0x140>
    552c:	00100693          	li	a3,1
    5530:	04d40a63          	beq	s0,a3,5584 <core_init_state+0x134>
    5534:	00200513          	li	a0,2
    5538:	04a40263          	beq	s0,a0,557c <core_init_state+0x12c>
    553c:	00300813          	li	a6,3
    5540:	03040a63          	beq	s0,a6,5574 <core_init_state+0x124>
    5544:	00400893          	li	a7,4
    5548:	03140263          	beq	s0,a7,556c <core_init_state+0x11c>
    554c:	00500913          	li	s2,5
    5550:	01240a63          	beq	s0,s2,5564 <core_init_state+0x114>
    5554:	00600593          	li	a1,6
    5558:	10b41e63          	bne	s0,a1,5674 <core_init_state+0x224>
    555c:	00078023          	sb	zero,0(a5)
    5560:	00178793          	addi	a5,a5,1
    5564:	00078023          	sb	zero,0(a5)
    5568:	00178793          	addi	a5,a5,1
    556c:	00078023          	sb	zero,0(a5)
    5570:	00178793          	addi	a5,a5,1
    5574:	00078023          	sb	zero,0(a5)
    5578:	00178793          	addi	a5,a5,1
    557c:	00078023          	sb	zero,0(a5)
    5580:	00178793          	addi	a5,a5,1
    5584:	00078023          	sb	zero,0(a5)
    5588:	00178793          	addi	a5,a5,1
    558c:	02c78663          	beq	a5,a2,55b8 <core_init_state+0x168>
    5590:	00078023          	sb	zero,0(a5)
    5594:	000780a3          	sb	zero,1(a5)
    5598:	00078123          	sb	zero,2(a5)
    559c:	000781a3          	sb	zero,3(a5)
    55a0:	00078223          	sb	zero,4(a5)
    55a4:	000782a3          	sb	zero,5(a5)
    55a8:	00078323          	sb	zero,6(a5)
    55ac:	000783a3          	sb	zero,7(a5)
    55b0:	00878793          	addi	a5,a5,8
    55b4:	fcc79ee3          	bne	a5,a2,5590 <core_init_state+0x140>
    55b8:	00c12403          	lw	s0,12(sp)
    55bc:	00812483          	lw	s1,8(sp)
    55c0:	00412903          	lw	s2,4(sp)
    55c4:	01010113          	addi	sp,sp,16
    55c8:	00008067          	ret
    55cc:	009e87b3          	add	a5,t4,s1
    55d0:	0007a403          	lw	s0,0(a5)
    55d4:	00800793          	li	a5,8
    55d8:	f25ff06f          	j	54fc <core_init_state+0xac>
    55dc:	009f0933          	add	s2,t5,s1
    55e0:	00092403          	lw	s0,0(s2)
    55e4:	00800793          	li	a5,8
    55e8:	f15ff06f          	j	54fc <core_init_state+0xac>
    55ec:	00044903          	lbu	s2,0(s0)
    55f0:	00d606b3          	add	a3,a2,a3
    55f4:	01268023          	sb	s2,0(a3)
    55f8:	00144903          	lbu	s2,1(s0)
    55fc:	012680a3          	sb	s2,1(a3)
    5600:	00244903          	lbu	s2,2(s0)
    5604:	01268123          	sb	s2,2(a3)
    5608:	00344903          	lbu	s2,3(s0)
    560c:	012681a3          	sb	s2,3(a3)
    5610:	03078463          	beq	a5,a6,5638 <core_init_state+0x1e8>
    5614:	00444903          	lbu	s2,4(s0)
    5618:	01268223          	sb	s2,4(a3)
    561c:	00544903          	lbu	s2,5(s0)
    5620:	012682a3          	sb	s2,5(a3)
    5624:	00644903          	lbu	s2,6(s0)
    5628:	01268323          	sb	s2,6(a3)
    562c:	00779663          	bne	a5,t2,5638 <core_init_state+0x1e8>
    5630:	00744403          	lbu	s0,7(s0)
    5634:	008683a3          	sb	s0,7(a3)
    5638:	00048693          	mv	a3,s1
    563c:	0075f493          	andi	s1,a1,7
    5640:	ffd48793          	addi	a5,s1,-3
    5644:	00e60733          	add	a4,a2,a4
    5648:	01079413          	slli	s0,a5,0x10
    564c:	00570023          	sb	t0,0(a4)
    5650:	0035d913          	srli	s2,a1,0x3
    5654:	01045493          	srli	s1,s0,0x10
    5658:	00397713          	andi	a4,s2,3
    565c:	e89870e3          	bgeu	a6,s1,54dc <core_init_state+0x8c>
    5660:	00271493          	slli	s1,a4,0x2
    5664:	009f8733          	add	a4,t6,s1
    5668:	00072403          	lw	s0,0(a4)
    566c:	00400793          	li	a5,4
    5670:	e8dff06f          	j	54fc <core_init_state+0xac>
    5674:	00078023          	sb	zero,0(a5)
    5678:	00178793          	addi	a5,a5,1
    567c:	ee1ff06f          	j	555c <core_init_state+0x10c>

00005680 <core_state_transition>:
    5680:	00052783          	lw	a5,0(a0)
    5684:	0007c683          	lbu	a3,0(a5)
    5688:	2e068863          	beqz	a3,5978 <core_state_transition+0x2f8>
    568c:	02c00813          	li	a6,44
    5690:	00178713          	addi	a4,a5,1
    5694:	2b068e63          	beq	a3,a6,5950 <core_state_transition+0x2d0>
    5698:	0005a883          	lw	a7,0(a1)
    569c:	fd068613          	addi	a2,a3,-48
    56a0:	0ff67293          	andi	t0,a2,255
    56a4:	00900313          	li	t1,9
    56a8:	00188393          	addi	t2,a7,1
    56ac:	0a536c63          	bltu	t1,t0,5764 <core_state_transition+0xe4>
    56b0:	0075a023          	sw	t2,0(a1)
    56b4:	0017c303          	lbu	t1,1(a5)
    56b8:	16030463          	beqz	t1,5820 <core_state_transition+0x1a0>
    56bc:	00278e13          	addi	t3,a5,2
    56c0:	15030e63          	beq	t1,a6,581c <core_state_transition+0x19c>
    56c4:	fd030613          	addi	a2,t1,-48
    56c8:	02e00f13          	li	t5,46
    56cc:	00900f93          	li	t6,9
    56d0:	02c00893          	li	a7,44
    56d4:	0ff67813          	andi	a6,a2,255
    56d8:	03e30663          	beq	t1,t5,5704 <core_state_transition+0x84>
    56dc:	0d0fe063          	bltu	t6,a6,579c <core_state_transition+0x11c>
    56e0:	00174303          	lbu	t1,1(a4)
    56e4:	001e0393          	addi	t2,t3,1
    56e8:	000e0713          	mv	a4,t3
    56ec:	12030863          	beqz	t1,581c <core_state_transition+0x19c>
    56f0:	2b130a63          	beq	t1,a7,59a4 <core_state_transition+0x324>
    56f4:	fd030613          	addi	a2,t1,-48
    56f8:	00038e13          	mv	t3,t2
    56fc:	0ff67813          	andi	a6,a2,255
    5700:	fde31ee3          	bne	t1,t5,56dc <core_state_transition+0x5c>
    5704:	0105a783          	lw	a5,16(a1)
    5708:	00178e93          	addi	t4,a5,1
    570c:	01d5a823          	sw	t4,16(a1)
    5710:	00174383          	lbu	t2,1(a4)
    5714:	28038263          	beqz	t2,5998 <core_state_transition+0x318>
    5718:	02c00713          	li	a4,44
    571c:	001e0e93          	addi	t4,t3,1
    5720:	22e38263          	beq	t2,a4,5944 <core_state_transition+0x2c4>
    5724:	04500f13          	li	t5,69
    5728:	00900f93          	li	t6,9
    572c:	02c00893          	li	a7,44
    5730:	fd038813          	addi	a6,t2,-48
    5734:	0df3f693          	andi	a3,t2,223
    5738:	0ff87293          	andi	t0,a6,255
    573c:	0fe68663          	beq	a3,t5,5828 <core_state_transition+0x1a8>
    5740:	1a5ffa63          	bgeu	t6,t0,58f4 <core_state_transition+0x274>
    5744:	0145a303          	lw	t1,20(a1)
    5748:	000e8713          	mv	a4,t4
    574c:	00100393          	li	t2,1
    5750:	00130613          	addi	a2,t1,1
    5754:	00c5aa23          	sw	a2,20(a1)
    5758:	00e52023          	sw	a4,0(a0)
    575c:	00038513          	mv	a0,t2
    5760:	00008067          	ret
    5764:	02b00e13          	li	t3,43
    5768:	05c68a63          	beq	a3,t3,57bc <core_state_transition+0x13c>
    576c:	02d00e93          	li	t4,45
    5770:	05d68663          	beq	a3,t4,57bc <core_state_transition+0x13c>
    5774:	02e00f13          	li	t5,46
    5778:	19e68c63          	beq	a3,t5,5910 <core_state_transition+0x290>
    577c:	0045af83          	lw	t6,4(a1)
    5780:	0075a023          	sw	t2,0(a1)
    5784:	00100393          	li	t2,1
    5788:	001f8693          	addi	a3,t6,1
    578c:	00d5a223          	sw	a3,4(a1)
    5790:	00e52023          	sw	a4,0(a0)
    5794:	00038513          	mv	a0,t2
    5798:	00008067          	ret
    579c:	0105a683          	lw	a3,16(a1)
    57a0:	000e0713          	mv	a4,t3
    57a4:	00100393          	li	t2,1
    57a8:	00168293          	addi	t0,a3,1
    57ac:	0055a823          	sw	t0,16(a1)
    57b0:	00e52023          	sw	a4,0(a0)
    57b4:	00038513          	mv	a0,t2
    57b8:	00008067          	ret
    57bc:	0075a023          	sw	t2,0(a1)
    57c0:	0017c883          	lbu	a7,1(a5)
    57c4:	1c088063          	beqz	a7,5984 <core_state_transition+0x304>
    57c8:	00278713          	addi	a4,a5,2
    57cc:	1b088c63          	beq	a7,a6,5984 <core_state_transition+0x304>
    57d0:	0085a603          	lw	a2,8(a1)
    57d4:	fd088813          	addi	a6,a7,-48
    57d8:	0ff87293          	andi	t0,a6,255
    57dc:	00900313          	li	t1,9
    57e0:	00160393          	addi	t2,a2,1
    57e4:	02537063          	bgeu	t1,t0,5804 <core_state_transition+0x184>
    57e8:	02e00e13          	li	t3,46
    57ec:	15c88063          	beq	a7,t3,592c <core_state_transition+0x2ac>
    57f0:	0075a423          	sw	t2,8(a1)
    57f4:	00100393          	li	t2,1
    57f8:	00e52023          	sw	a4,0(a0)
    57fc:	00038513          	mv	a0,t2
    5800:	00008067          	ret
    5804:	0075a423          	sw	t2,8(a1)
    5808:	0027c303          	lbu	t1,2(a5)
    580c:	00030a63          	beqz	t1,5820 <core_state_transition+0x1a0>
    5810:	02c00e93          	li	t4,44
    5814:	00170e13          	addi	t3,a4,1
    5818:	ebd316e3          	bne	t1,t4,56c4 <core_state_transition+0x44>
    581c:	000e0713          	mv	a4,t3
    5820:	00400393          	li	t2,4
    5824:	f8dff06f          	j	57b0 <core_state_transition+0x130>
    5828:	0145a783          	lw	a5,20(a1)
    582c:	00178713          	addi	a4,a5,1
    5830:	00e5aa23          	sw	a4,20(a1)
    5834:	001e4e03          	lbu	t3,1(t3)
    5838:	120e0a63          	beqz	t3,596c <core_state_transition+0x2ec>
    583c:	02c00f13          	li	t5,44
    5840:	001e8713          	addi	a4,t4,1
    5844:	13ee0663          	beq	t3,t5,5970 <core_state_transition+0x2f0>
    5848:	00c5af83          	lw	t6,12(a1)
    584c:	fd5e0893          	addi	a7,t3,-43
    5850:	0fd8f813          	andi	a6,a7,253
    5854:	001f8693          	addi	a3,t6,1
    5858:	00d5a623          	sw	a3,12(a1)
    585c:	00080a63          	beqz	a6,5870 <core_state_transition+0x1f0>
    5860:	00100393          	li	t2,1
    5864:	00e52023          	sw	a4,0(a0)
    5868:	00038513          	mv	a0,t2
    586c:	00008067          	ret
    5870:	001ec283          	lbu	t0,1(t4)
    5874:	0e028863          	beqz	t0,5964 <core_state_transition+0x2e4>
    5878:	002e8713          	addi	a4,t4,2
    587c:	0fe28463          	beq	t0,t5,5964 <core_state_transition+0x2e4>
    5880:	0185a303          	lw	t1,24(a1)
    5884:	fd028613          	addi	a2,t0,-48
    5888:	0ff67393          	andi	t2,a2,255
    588c:	00130e13          	addi	t3,t1,1
    5890:	00900793          	li	a5,9
    5894:	01c5ac23          	sw	t3,24(a1)
    5898:	fc77e4e3          	bltu	a5,t2,5860 <core_state_transition+0x1e0>
    589c:	002ec283          	lbu	t0,2(t4)
    58a0:	0a028e63          	beqz	t0,595c <core_state_transition+0x2dc>
    58a4:	003e8613          	addi	a2,t4,3
    58a8:	0be28863          	beq	t0,t5,5958 <core_state_transition+0x2d8>
    58ac:	00900e93          	li	t4,9
    58b0:	02c00f13          	li	t5,44
    58b4:	fd028f93          	addi	t6,t0,-48
    58b8:	0ffff893          	andi	a7,t6,255
    58bc:	011efe63          	bgeu	t4,a7,58d8 <core_state_transition+0x258>
    58c0:	0045a803          	lw	a6,4(a1)
    58c4:	00060713          	mv	a4,a2
    58c8:	00100393          	li	t2,1
    58cc:	00180693          	addi	a3,a6,1
    58d0:	00d5a223          	sw	a3,4(a1)
    58d4:	eddff06f          	j	57b0 <core_state_transition+0x130>
    58d8:	00174283          	lbu	t0,1(a4)
    58dc:	00160313          	addi	t1,a2,1
    58e0:	00060713          	mv	a4,a2
    58e4:	06028a63          	beqz	t0,5958 <core_state_transition+0x2d8>
    58e8:	0be28263          	beq	t0,t5,598c <core_state_transition+0x30c>
    58ec:	00030613          	mv	a2,t1
    58f0:	fc5ff06f          	j	58b4 <core_state_transition+0x234>
    58f4:	001e4383          	lbu	t2,1(t3)
    58f8:	001e8713          	addi	a4,t4,1
    58fc:	000e8e13          	mv	t3,t4
    5900:	04038263          	beqz	t2,5944 <core_state_transition+0x2c4>
    5904:	05138263          	beq	t2,a7,5948 <core_state_transition+0x2c8>
    5908:	00070e93          	mv	t4,a4
    590c:	e25ff06f          	j	5730 <core_state_transition+0xb0>
    5910:	0075a023          	sw	t2,0(a1)
    5914:	0017c383          	lbu	t2,1(a5)
    5918:	02038863          	beqz	t2,5948 <core_state_transition+0x2c8>
    591c:	00278e93          	addi	t4,a5,2
    5920:	03038263          	beq	t2,a6,5944 <core_state_transition+0x2c4>
    5924:	00070e13          	mv	t3,a4
    5928:	dfdff06f          	j	5724 <core_state_transition+0xa4>
    592c:	0075a423          	sw	t2,8(a1)
    5930:	0027c383          	lbu	t2,2(a5)
    5934:	00038a63          	beqz	t2,5948 <core_state_transition+0x2c8>
    5938:	02c00793          	li	a5,44
    593c:	00170e93          	addi	t4,a4,1
    5940:	fef392e3          	bne	t2,a5,5924 <core_state_transition+0x2a4>
    5944:	000e8713          	mv	a4,t4
    5948:	00500393          	li	t2,5
    594c:	e65ff06f          	j	57b0 <core_state_transition+0x130>
    5950:	00000393          	li	t2,0
    5954:	e5dff06f          	j	57b0 <core_state_transition+0x130>
    5958:	00060713          	mv	a4,a2
    595c:	00700393          	li	t2,7
    5960:	e51ff06f          	j	57b0 <core_state_transition+0x130>
    5964:	00600393          	li	t2,6
    5968:	e49ff06f          	j	57b0 <core_state_transition+0x130>
    596c:	000e8713          	mv	a4,t4
    5970:	00300393          	li	t2,3
    5974:	e3dff06f          	j	57b0 <core_state_transition+0x130>
    5978:	00078713          	mv	a4,a5
    597c:	00000393          	li	t2,0
    5980:	e31ff06f          	j	57b0 <core_state_transition+0x130>
    5984:	00200393          	li	t2,2
    5988:	e29ff06f          	j	57b0 <core_state_transition+0x130>
    598c:	00030713          	mv	a4,t1
    5990:	00700393          	li	t2,7
    5994:	e1dff06f          	j	57b0 <core_state_transition+0x130>
    5998:	000e0713          	mv	a4,t3
    599c:	00500393          	li	t2,5
    59a0:	e11ff06f          	j	57b0 <core_state_transition+0x130>
    59a4:	00038713          	mv	a4,t2
    59a8:	00400393          	li	t2,4
    59ac:	e05ff06f          	j	57b0 <core_state_transition+0x130>

000059b0 <core_bench_state>:
    59b0:	f8010113          	addi	sp,sp,-128
    59b4:	06812c23          	sw	s0,120(sp)
    59b8:	07212823          	sw	s2,112(sp)
    59bc:	07312623          	sw	s3,108(sp)
    59c0:	07412423          	sw	s4,104(sp)
    59c4:	07612023          	sw	s6,96(sp)
    59c8:	05712e23          	sw	s7,92(sp)
    59cc:	06112e23          	sw	ra,124(sp)
    59d0:	06912a23          	sw	s1,116(sp)
    59d4:	07512223          	sw	s5,100(sp)
    59d8:	00058413          	mv	s0,a1
    59dc:	0005c583          	lbu	a1,0(a1)
    59e0:	00812623          	sw	s0,12(sp)
    59e4:	02012823          	sw	zero,48(sp)
    59e8:	00012823          	sw	zero,16(sp)
    59ec:	02012a23          	sw	zero,52(sp)
    59f0:	00012a23          	sw	zero,20(sp)
    59f4:	02012c23          	sw	zero,56(sp)
    59f8:	00012c23          	sw	zero,24(sp)
    59fc:	02012e23          	sw	zero,60(sp)
    5a00:	00012e23          	sw	zero,28(sp)
    5a04:	04012023          	sw	zero,64(sp)
    5a08:	02012023          	sw	zero,32(sp)
    5a0c:	04012223          	sw	zero,68(sp)
    5a10:	02012223          	sw	zero,36(sp)
    5a14:	04012423          	sw	zero,72(sp)
    5a18:	02012423          	sw	zero,40(sp)
    5a1c:	04012623          	sw	zero,76(sp)
    5a20:	02012623          	sw	zero,44(sp)
    5a24:	00050b93          	mv	s7,a0
    5a28:	00060b13          	mv	s6,a2
    5a2c:	00068a13          	mv	s4,a3
    5a30:	00070913          	mv	s2,a4
    5a34:	00078993          	mv	s3,a5
    5a38:	14058063          	beqz	a1,5b78 <core_bench_state+0x1c8>
    5a3c:	03010493          	addi	s1,sp,48
    5a40:	00c10a93          	addi	s5,sp,12
    5a44:	00048593          	mv	a1,s1
    5a48:	000a8513          	mv	a0,s5
    5a4c:	c35ff0ef          	jal	ra,5680 <core_state_transition>
    5a50:	00251513          	slli	a0,a0,0x2
    5a54:	05010793          	addi	a5,sp,80
    5a58:	00a782b3          	add	t0,a5,a0
    5a5c:	00c12703          	lw	a4,12(sp)
    5a60:	fc02a303          	lw	t1,-64(t0)
    5a64:	00074383          	lbu	t2,0(a4)
    5a68:	00130613          	addi	a2,t1,1
    5a6c:	fcc2a023          	sw	a2,-64(t0)
    5a70:	fc039ae3          	bnez	t2,5a44 <core_bench_state+0x94>
    5a74:	00812623          	sw	s0,12(sp)
    5a78:	01740bb3          	add	s7,s0,s7
    5a7c:	00044583          	lbu	a1,0(s0)
    5a80:	11747463          	bgeu	s0,s7,5b88 <core_bench_state+0x1d8>
    5a84:	00040893          	mv	a7,s0
    5a88:	02c00693          	li	a3,44
    5a8c:	0080006f          	j	5a94 <core_bench_state+0xe4>
    5a90:	0008c583          	lbu	a1,0(a7)
    5a94:	0165c0b3          	xor	ra,a1,s6
    5a98:	00d58463          	beq	a1,a3,5aa0 <core_bench_state+0xf0>
    5a9c:	00188023          	sb	ra,0(a7)
    5aa0:	00c12803          	lw	a6,12(sp)
    5aa4:	012808b3          	add	a7,a6,s2
    5aa8:	01112623          	sw	a7,12(sp)
    5aac:	ff78e2e3          	bltu	a7,s7,5a90 <core_bench_state+0xe0>
    5ab0:	00044e03          	lbu	t3,0(s0)
    5ab4:	00812623          	sw	s0,12(sp)
    5ab8:	00c10a93          	addi	s5,sp,12
    5abc:	020e0e63          	beqz	t3,5af8 <core_bench_state+0x148>
    5ac0:	00048593          	mv	a1,s1
    5ac4:	000a8513          	mv	a0,s5
    5ac8:	bb9ff0ef          	jal	ra,5680 <core_state_transition>
    5acc:	00251e93          	slli	t4,a0,0x2
    5ad0:	05010f13          	addi	t5,sp,80
    5ad4:	01df0fb3          	add	t6,t5,t4
    5ad8:	00c12b03          	lw	s6,12(sp)
    5adc:	fc0fa583          	lw	a1,-64(t6)
    5ae0:	000b4503          	lbu	a0,0(s6)
    5ae4:	00158793          	addi	a5,a1,1
    5ae8:	fcffa023          	sw	a5,-64(t6)
    5aec:	fc051ae3          	bnez	a0,5ac0 <core_bench_state+0x110>
    5af0:	00812623          	sw	s0,12(sp)
    5af4:	03747463          	bgeu	s0,s7,5b1c <core_bench_state+0x16c>
    5af8:	02c00a93          	li	s5,44
    5afc:	00044283          	lbu	t0,0(s0)
    5b00:	0142c333          	xor	t1,t0,s4
    5b04:	01528463          	beq	t0,s5,5b0c <core_bench_state+0x15c>
    5b08:	00640023          	sb	t1,0(s0)
    5b0c:	00c12403          	lw	s0,12(sp)
    5b10:	01240433          	add	s0,s0,s2
    5b14:	00812623          	sw	s0,12(sp)
    5b18:	ff7462e3          	bltu	s0,s7,5afc <core_bench_state+0x14c>
    5b1c:	01010b93          	addi	s7,sp,16
    5b20:	00048b13          	mv	s6,s1
    5b24:	000ba503          	lw	a0,0(s7)
    5b28:	00098593          	mv	a1,s3
    5b2c:	004b8b93          	addi	s7,s7,4
    5b30:	338000ef          	jal	ra,5e68 <crcu32>
    5b34:	00050593          	mv	a1,a0
    5b38:	000b2503          	lw	a0,0(s6)
    5b3c:	004b0b13          	addi	s6,s6,4
    5b40:	328000ef          	jal	ra,5e68 <crcu32>
    5b44:	00050993          	mv	s3,a0
    5b48:	fc9b9ee3          	bne	s7,s1,5b24 <core_bench_state+0x174>
    5b4c:	07c12083          	lw	ra,124(sp)
    5b50:	07812403          	lw	s0,120(sp)
    5b54:	07412483          	lw	s1,116(sp)
    5b58:	07012903          	lw	s2,112(sp)
    5b5c:	06c12983          	lw	s3,108(sp)
    5b60:	06812a03          	lw	s4,104(sp)
    5b64:	06412a83          	lw	s5,100(sp)
    5b68:	06012b03          	lw	s6,96(sp)
    5b6c:	05c12b83          	lw	s7,92(sp)
    5b70:	08010113          	addi	sp,sp,128
    5b74:	00008067          	ret
    5b78:	00a40bb3          	add	s7,s0,a0
    5b7c:	03010493          	addi	s1,sp,48
    5b80:	f17462e3          	bltu	s0,s7,5a84 <core_bench_state+0xd4>
    5b84:	f99ff06f          	j	5b1c <core_bench_state+0x16c>
    5b88:	f2059ce3          	bnez	a1,5ac0 <core_bench_state+0x110>
    5b8c:	f91ff06f          	j	5b1c <core_bench_state+0x16c>

00005b90 <get_seed_32>:
    5b90:	00500793          	li	a5,5
    5b94:	04a7e663          	bltu	a5,a0,5be0 <get_seed_32+0x50>
    5b98:	100002b7          	lui	t0,0x10000
    5b9c:	00251513          	slli	a0,a0,0x2
    5ba0:	62428313          	addi	t1,t0,1572 # 10000624 <scipat+0xc0>
    5ba4:	006503b3          	add	t2,a0,t1
    5ba8:	0003a583          	lw	a1,0(t2)
    5bac:	00058067          	jr	a1
    5bb0:	8181a503          	lw	a0,-2024(gp) # 10000798 <seed5_volatile>
    5bb4:	00008067          	ret
    5bb8:	8101a503          	lw	a0,-2032(gp) # 10000790 <seed1_volatile>
