
breathing_led:     file format elf32-littleriscv


Disassembly of section .init:

00000800 <_start>:
 800:	10000197          	auipc	gp,0x10000
 804:	00018193          	mv	gp,gp
 808:	10007117          	auipc	sp,0x10007
 80c:	7f810113          	addi	sp,sp,2040 # 10008000 <__freertos_irq_stack_top>
 810:	00001517          	auipc	a0,0x1
 814:	c4450513          	addi	a0,a0,-956 # 1454 <_data_lma>
 818:	0ffff597          	auipc	a1,0xffff
 81c:	7e858593          	addi	a1,a1,2024 # 10000000 <_data>
 820:	80818613          	addi	a2,gp,-2040 # 10000008 <__bss_start>
 824:	00c5fc63          	bgeu	a1,a2,83c <_start+0x3c>
 828:	00052283          	lw	t0,0(a0)
 82c:	0055a023          	sw	t0,0(a1)
 830:	00450513          	addi	a0,a0,4
 834:	00458593          	addi	a1,a1,4
 838:	fec5e8e3          	bltu	a1,a2,828 <_start+0x28>
 83c:	80818513          	addi	a0,gp,-2040 # 10000008 <__bss_start>
 840:	83818593          	addi	a1,gp,-1992 # 10000038 <_end>
 844:	00b57863          	bgeu	a0,a1,854 <_start+0x54>
 848:	00052023          	sw	zero,0(a0)
 84c:	00450513          	addi	a0,a0,4
 850:	feb56ce3          	bltu	a0,a1,848 <_start+0x48>
 854:	3cc000ef          	jal	ra,c20 <_init>
 858:	210000ef          	jal	ra,a68 <main>

0000085c <loop>:
 85c:	0000006f          	j	85c <loop>

Disassembly of section .text:

00000860 <trap_entry>:
     860:	f8010113          	addi	sp,sp,-128
     864:	00112223          	sw	ra,4(sp)
     868:	00212423          	sw	sp,8(sp)
     86c:	00312623          	sw	gp,12(sp)
     870:	00412823          	sw	tp,16(sp)
     874:	00512a23          	sw	t0,20(sp)
     878:	00612c23          	sw	t1,24(sp)
     87c:	00712e23          	sw	t2,28(sp)
     880:	02812023          	sw	s0,32(sp)
     884:	02912223          	sw	s1,36(sp)
     888:	02a12423          	sw	a0,40(sp)
     88c:	02b12623          	sw	a1,44(sp)
     890:	02c12823          	sw	a2,48(sp)
     894:	02d12a23          	sw	a3,52(sp)
     898:	02e12c23          	sw	a4,56(sp)
     89c:	02f12e23          	sw	a5,60(sp)
     8a0:	05012023          	sw	a6,64(sp)
     8a4:	05112223          	sw	a7,68(sp)
     8a8:	05212423          	sw	s2,72(sp)
     8ac:	05312623          	sw	s3,76(sp)
     8b0:	05412823          	sw	s4,80(sp)
     8b4:	05512a23          	sw	s5,84(sp)
     8b8:	05612c23          	sw	s6,88(sp)
     8bc:	05712e23          	sw	s7,92(sp)
     8c0:	07812023          	sw	s8,96(sp)
     8c4:	07912223          	sw	s9,100(sp)
     8c8:	07a12423          	sw	s10,104(sp)
     8cc:	07b12623          	sw	s11,108(sp)
     8d0:	07c12823          	sw	t3,112(sp)
     8d4:	07d12a23          	sw	t4,116(sp)
     8d8:	07e12c23          	sw	t5,120(sp)
     8dc:	07f12e23          	sw	t6,124(sp)
     8e0:	34202573          	csrr	a0,mcause
     8e4:	341025f3          	csrr	a1,mepc

000008e8 <test_if_asynchronous>:
     8e8:	01f55613          	srli	a2,a0,0x1f
     8ec:	00060663          	beqz	a2,8f8 <handle_synchronous>
     8f0:	364000ef          	jal	ra,c54 <trap_handler>
     8f4:	0080006f          	j	8fc <asynchronous_return>

000008f8 <handle_synchronous>:
     8f8:	3dc000ef          	jal	ra,cd4 <serr_handler>

000008fc <asynchronous_return>:
     8fc:	00412083          	lw	ra,4(sp)
     900:	00812103          	lw	sp,8(sp)
     904:	00c12183          	lw	gp,12(sp)
     908:	01012203          	lw	tp,16(sp)
     90c:	01412283          	lw	t0,20(sp)
     910:	01812303          	lw	t1,24(sp)
     914:	01c12383          	lw	t2,28(sp)
     918:	02012403          	lw	s0,32(sp)
     91c:	02412483          	lw	s1,36(sp)
     920:	02812503          	lw	a0,40(sp)
     924:	02c12583          	lw	a1,44(sp)
     928:	03012603          	lw	a2,48(sp)
     92c:	03412683          	lw	a3,52(sp)
     930:	03812703          	lw	a4,56(sp)
     934:	03c12783          	lw	a5,60(sp)
     938:	04012803          	lw	a6,64(sp)
     93c:	04412883          	lw	a7,68(sp)
     940:	04812903          	lw	s2,72(sp)
     944:	04c12983          	lw	s3,76(sp)
     948:	05012a03          	lw	s4,80(sp)
     94c:	05412a83          	lw	s5,84(sp)
     950:	05812b03          	lw	s6,88(sp)
     954:	05c12b83          	lw	s7,92(sp)
     958:	06012c03          	lw	s8,96(sp)
     95c:	06412c83          	lw	s9,100(sp)
     960:	06812d03          	lw	s10,104(sp)
     964:	06c12d83          	lw	s11,108(sp)
     968:	07012e03          	lw	t3,112(sp)
     96c:	07412e83          	lw	t4,116(sp)
     970:	07812f03          	lw	t5,120(sp)
     974:	07c12f83          	lw	t6,124(sp)
     978:	08010113          	addi	sp,sp,128
     97c:	30200073          	mret
     980:	0000006f          	j	980 <asynchronous_return+0x84>
     984:	0000006f          	j	984 <asynchronous_return+0x88>

00000988 <ext_irq_handler>:
     988:	fe010113          	addi	sp,sp,-32
     98c:	00112e23          	sw	ra,28(sp)
     990:	00812c23          	sw	s0,24(sp)
     994:	02010413          	addi	s0,sp,32
     998:	81818513          	addi	a0,gp,-2024 # 10000018 <plic>
     99c:	5f8000ef          	jal	ra,f94 <plic_claim_interrupt>
     9a0:	fea42623          	sw	a0,-20(s0)
     9a4:	fec42703          	lw	a4,-20(s0)
     9a8:	00200793          	li	a5,2
     9ac:	00f70463          	beq	a4,a5,9b4 <ext_irq_handler+0x2c>
     9b0:	00c0006f          	j	9bc <ext_irq_handler+0x34>
     9b4:	028000ef          	jal	ra,9dc <timer0_itr_handler>
     9b8:	00000013          	nop
     9bc:	fec42583          	lw	a1,-20(s0)
     9c0:	81818513          	addi	a0,gp,-2024 # 10000018 <plic>
     9c4:	62c000ef          	jal	ra,ff0 <plic_complete_interrupt>
     9c8:	00000013          	nop
     9cc:	01c12083          	lw	ra,28(sp)
     9d0:	01812403          	lw	s0,24(sp)
     9d4:	02010113          	addi	sp,sp,32
     9d8:	00008067          	ret

000009dc <timer0_itr_handler>:
     9dc:	fe010113          	addi	sp,sp,-32
     9e0:	00112e23          	sw	ra,28(sp)
     9e4:	00812c23          	sw	s0,24(sp)
     9e8:	02010413          	addi	s0,sp,32
     9ec:	82418513          	addi	a0,gp,-2012 # 10000024 <timer0>
     9f0:	0a1000ef          	jal	ra,1290 <apb_timer_get_itr_status>
     9f4:	00050793          	mv	a5,a0
     9f8:	fef407a3          	sb	a5,-17(s0)
     9fc:	fef44783          	lbu	a5,-17(s0)
     a00:	0017f793          	andi	a5,a5,1
     a04:	00078663          	beqz	a5,a10 <timer0_itr_handler+0x34>
     a08:	00100713          	li	a4,1
     a0c:	80e18e23          	sb	a4,-2020(gp) # 1000001c <timer0_period_elapsed>
     a10:	82418513          	addi	a0,gp,-2012 # 10000024 <timer0>
     a14:	0b1000ef          	jal	ra,12c4 <apb_timer_clear_itr_flag>
     a18:	00000013          	nop
     a1c:	01c12083          	lw	ra,28(sp)
     a20:	01812403          	lw	s0,24(sp)
     a24:	02010113          	addi	sp,sp,32
     a28:	00008067          	ret

00000a2c <uart_putc>:
     a2c:	fe010113          	addi	sp,sp,-32
     a30:	00112e23          	sw	ra,28(sp)
     a34:	00812c23          	sw	s0,24(sp)
     a38:	02010413          	addi	s0,sp,32
     a3c:	00050793          	mv	a5,a0
     a40:	fef407a3          	sb	a5,-17(s0)
     a44:	fef44783          	lbu	a5,-17(s0)
     a48:	00078593          	mv	a1,a5
     a4c:	81018513          	addi	a0,gp,-2032 # 10000010 <uart0>
     a50:	15d000ef          	jal	ra,13ac <apb_uart_send_byte>
     a54:	00000013          	nop
     a58:	01c12083          	lw	ra,28(sp)
     a5c:	01812403          	lw	s0,24(sp)
     a60:	02010113          	addi	sp,sp,32
     a64:	00008067          	ret

00000a68 <main>:
     a68:	fc010113          	addi	sp,sp,-64
     a6c:	02112e23          	sw	ra,60(sp)
     a70:	02812c23          	sw	s0,56(sp)
     a74:	04010413          	addi	s0,sp,64
     a78:	000017b7          	lui	a5,0x1
     a7c:	80078793          	addi	a5,a5,-2048 # 800 <_start>
     a80:	30479073          	csrw	mie,a5
     a84:	f00005b7          	lui	a1,0xf0000
     a88:	81818513          	addi	a0,gp,-2024 # 10000018 <plic>
     a8c:	388000ef          	jal	ra,e14 <plic_init>
     a90:	00000593          	li	a1,0
     a94:	81818513          	addi	a0,gp,-2024 # 10000018 <plic>
     a98:	3ac000ef          	jal	ra,e44 <plic_set_threshold>
     a9c:	00100613          	li	a2,1
     aa0:	00200593          	li	a1,2
     aa4:	81818513          	addi	a0,gp,-2024 # 10000018 <plic>
     aa8:	4a0000ef          	jal	ra,f48 <plic_set_priority>
     aac:	00200593          	li	a1,2
     ab0:	81818513          	addi	a0,gp,-2024 # 10000018 <plic>
     ab4:	3f0000ef          	jal	ra,ea4 <plic_enable_interrupt>
     ab8:	400005b7          	lui	a1,0x40000
     abc:	100007b7          	lui	a5,0x10000
     ac0:	00878513          	addi	a0,a5,8 # 10000008 <__bss_start>
     ac4:	590000ef          	jal	ra,1054 <apb_gpio_init>
     ac8:	00000593          	li	a1,0
     acc:	100007b7          	lui	a5,0x10000
     ad0:	00878513          	addi	a0,a5,8 # 10000008 <__bss_start>
     ad4:	5f8000ef          	jal	ra,10cc <apb_gpio_set_direction>
     ad8:	400035b7          	lui	a1,0x40003
     adc:	81018513          	addi	a0,gp,-2032 # 10000010 <uart0>
     ae0:	095000ef          	jal	ra,1374 <apb_uart_init>
     ae4:	00001737          	lui	a4,0x1
     ae8:	a2c70713          	addi	a4,a4,-1492 # a2c <uart_putc>
     aec:	82e1aa23          	sw	a4,-1996(gp) # 10000034 <xfunc_out>
     af0:	03100793          	li	a5,49
     af4:	fcf42823          	sw	a5,-48(s0)
     af8:	3e700793          	li	a5,999
     afc:	fcf42a23          	sw	a5,-44(s0)
     b00:	00100793          	li	a5,1
     b04:	fcf406a3          	sb	a5,-51(s0)
     b08:	00100793          	li	a5,1
     b0c:	fcf40623          	sb	a5,-52(s0)
     b10:	fc042c23          	sw	zero,-40(s0)
     b14:	fc042e23          	sw	zero,-36(s0)
     b18:	fe042023          	sw	zero,-32(s0)
     b1c:	fe042223          	sw	zero,-28(s0)
     b20:	fe040423          	sb	zero,-24(s0)
     b24:	fe0404a3          	sb	zero,-23(s0)
     b28:	fe040523          	sb	zero,-22(s0)
     b2c:	fe0405a3          	sb	zero,-21(s0)
     b30:	fe040623          	sb	zero,-20(s0)
     b34:	fe0406a3          	sb	zero,-19(s0)
     b38:	fe040723          	sb	zero,-18(s0)
     b3c:	fe0407a3          	sb	zero,-17(s0)
     b40:	fcc40793          	addi	a5,s0,-52
     b44:	00078613          	mv	a2,a5
     b48:	400025b7          	lui	a1,0x40002
     b4c:	82418513          	addi	a0,gp,-2012 # 10000024 <timer0>
     b50:	5bc000ef          	jal	ra,110c <init_apb_timer>
     b54:	8241a783          	lw	a5,-2012(gp) # 10000024 <timer0>
     b58:	3e700713          	li	a4,999
     b5c:	00e7a423          	sw	a4,8(a5)
     b60:	82418793          	addi	a5,gp,-2012 # 10000024 <timer0>
     b64:	00c7c783          	lbu	a5,12(a5)
     b68:	00879713          	slli	a4,a5,0x8
     b6c:	8241a783          	lw	a5,-2012(gp) # 10000024 <timer0>
     b70:	00176713          	ori	a4,a4,1
     b74:	00e7a623          	sw	a4,12(a5)
     b78:	8201a783          	lw	a5,-2016(gp) # 10000020 <now_cmp>
     b7c:	00078613          	mv	a2,a5
     b80:	00000593          	li	a1,0
     b84:	82418513          	addi	a0,gp,-2012 # 10000024 <timer0>
     b88:	768000ef          	jal	ra,12f0 <apb_timer_set_cmp>
     b8c:	81d1c783          	lbu	a5,-2019(gp) # 1000001d <led_on>
     b90:	00078613          	mv	a2,a5
     b94:	00100593          	li	a1,1
     b98:	100007b7          	lui	a5,0x10000
     b9c:	00878513          	addi	a0,a5,8 # 10000008 <__bss_start>
     ba0:	4e4000ef          	jal	ra,1084 <apb_gpio_write_pin>
     ba4:	100007b7          	lui	a5,0x10000
     ba8:	0007c783          	lbu	a5,0(a5) # 10000000 <_data>
     bac:	02078663          	beqz	a5,bd8 <main+0x170>
     bb0:	8201a703          	lw	a4,-2016(gp) # 10000020 <now_cmp>
     bb4:	3e800793          	li	a5,1000
     bb8:	00f71863          	bne	a4,a5,bc8 <main+0x160>
     bbc:	100007b7          	lui	a5,0x10000
     bc0:	00078023          	sb	zero,0(a5) # 10000000 <_data>
     bc4:	0380006f          	j	bfc <main+0x194>
     bc8:	8201a783          	lw	a5,-2016(gp) # 10000020 <now_cmp>
     bcc:	06478713          	addi	a4,a5,100
     bd0:	82e1a023          	sw	a4,-2016(gp) # 10000020 <now_cmp>
     bd4:	0280006f          	j	bfc <main+0x194>
     bd8:	8201a783          	lw	a5,-2016(gp) # 10000020 <now_cmp>
     bdc:	00079a63          	bnez	a5,bf0 <main+0x188>
     be0:	100007b7          	lui	a5,0x10000
     be4:	00100713          	li	a4,1
     be8:	00e78023          	sb	a4,0(a5) # 10000000 <_data>
     bec:	0100006f          	j	bfc <main+0x194>
     bf0:	8201a783          	lw	a5,-2016(gp) # 10000020 <now_cmp>
     bf4:	f9c78713          	addi	a4,a5,-100
     bf8:	82e1a023          	sw	a4,-2016(gp) # 10000020 <now_cmp>
     bfc:	0000c7b7          	lui	a5,0xc
     c00:	35078513          	addi	a0,a5,848 # c350 <__stack_size+0xa350>
     c04:	158000ef          	jal	ra,d5c <busy_wait>
     c08:	81d1c783          	lbu	a5,-2019(gp) # 1000001d <led_on>
     c0c:	0017b793          	seqz	a5,a5
     c10:	0ff7f793          	andi	a5,a5,255
     c14:	00078713          	mv	a4,a5
     c18:	80e18ea3          	sb	a4,-2019(gp) # 1000001d <led_on>
     c1c:	f5dff06f          	j	b78 <main+0x110>

00000c20 <_init>:
     c20:	ff010113          	addi	sp,sp,-16
     c24:	00812623          	sw	s0,12(sp)
     c28:	01010413          	addi	s0,sp,16
     c2c:	000017b7          	lui	a5,0x1
     c30:	86078793          	addi	a5,a5,-1952 # 860 <trap_entry>
     c34:	30579073          	csrw	mtvec,a5
     c38:	000027b7          	lui	a5,0x2
     c3c:	88878793          	addi	a5,a5,-1912 # 1888 <_data_lma+0x434>
     c40:	30079073          	csrw	mstatus,a5
     c44:	00000013          	nop
     c48:	00c12403          	lw	s0,12(sp)
     c4c:	01010113          	addi	sp,sp,16
     c50:	00008067          	ret

00000c54 <trap_handler>:
     c54:	fe010113          	addi	sp,sp,-32
     c58:	00112e23          	sw	ra,28(sp)
     c5c:	00812c23          	sw	s0,24(sp)
     c60:	02010413          	addi	s0,sp,32
     c64:	fea42623          	sw	a0,-20(s0)
     c68:	feb42423          	sw	a1,-24(s0)
     c6c:	fec42703          	lw	a4,-20(s0)
     c70:	800007b7          	lui	a5,0x80000
     c74:	00778793          	addi	a5,a5,7 # 80000007 <__freertos_irq_stack_top+0x6fff8007>
     c78:	02f70863          	beq	a4,a5,ca8 <trap_handler+0x54>
     c7c:	fec42703          	lw	a4,-20(s0)
     c80:	800007b7          	lui	a5,0x80000
     c84:	00b78793          	addi	a5,a5,11 # 8000000b <__freertos_irq_stack_top+0x6fff800b>
     c88:	02f70663          	beq	a4,a5,cb4 <trap_handler+0x60>
     c8c:	fec42703          	lw	a4,-20(s0)
     c90:	800007b7          	lui	a5,0x80000
     c94:	00378793          	addi	a5,a5,3 # 80000003 <__freertos_irq_stack_top+0x6fff8003>
     c98:	02f71263          	bne	a4,a5,cbc <trap_handler+0x68>
     c9c:	00000097          	auipc	ra,0x0
     ca0:	000000e7          	jalr	zero # 0 <_start-0x800>
     ca4:	01c0006f          	j	cc0 <trap_handler+0x6c>
     ca8:	00000097          	auipc	ra,0x0
     cac:	000000e7          	jalr	zero # 0 <_start-0x800>
     cb0:	0100006f          	j	cc0 <trap_handler+0x6c>
     cb4:	cd5ff0ef          	jal	ra,988 <ext_irq_handler>
     cb8:	0080006f          	j	cc0 <trap_handler+0x6c>
     cbc:	00000013          	nop
     cc0:	00000013          	nop
     cc4:	01c12083          	lw	ra,28(sp)
     cc8:	01812403          	lw	s0,24(sp)
     ccc:	02010113          	addi	sp,sp,32
     cd0:	00008067          	ret

00000cd4 <serr_handler>:
     cd4:	fe010113          	addi	sp,sp,-32
     cd8:	00812e23          	sw	s0,28(sp)
     cdc:	02010413          	addi	s0,sp,32
     ce0:	fea42623          	sw	a0,-20(s0)
     ce4:	feb42423          	sw	a1,-24(s0)
     ce8:	0000006f          	j	ce8 <serr_handler+0x14>

00000cec <get_cycle_value>:
     cec:	fd010113          	addi	sp,sp,-48
     cf0:	02812623          	sw	s0,44(sp)
     cf4:	03010413          	addi	s0,sp,48
     cf8:	b0002673          	csrr	a2,mcycle
     cfc:	fec42623          	sw	a2,-20(s0)
     d00:	fec42603          	lw	a2,-20(s0)
     d04:	fec42023          	sw	a2,-32(s0)
     d08:	fe042223          	sw	zero,-28(s0)
     d0c:	b8002673          	csrr	a2,mcycleh
     d10:	fcc42e23          	sw	a2,-36(s0)
     d14:	fdc42603          	lw	a2,-36(s0)
     d18:	00060693          	mv	a3,a2
     d1c:	00000713          	li	a4,0
     d20:	00069813          	slli	a6,a3,0x0
     d24:	00000793          	li	a5,0
     d28:	fe042703          	lw	a4,-32(s0)
     d2c:	00f76733          	or	a4,a4,a5
     d30:	fee42023          	sw	a4,-32(s0)
     d34:	fe442703          	lw	a4,-28(s0)
     d38:	010767b3          	or	a5,a4,a6
     d3c:	fef42223          	sw	a5,-28(s0)
     d40:	fe042783          	lw	a5,-32(s0)
     d44:	fe442803          	lw	a6,-28(s0)
     d48:	00078513          	mv	a0,a5
     d4c:	00080593          	mv	a1,a6
     d50:	02c12403          	lw	s0,44(sp)
     d54:	03010113          	addi	sp,sp,48
     d58:	00008067          	ret

00000d5c <busy_wait>:
     d5c:	fc010113          	addi	sp,sp,-64
     d60:	02112e23          	sw	ra,60(sp)
     d64:	02812c23          	sw	s0,56(sp)
     d68:	03212a23          	sw	s2,52(sp)
     d6c:	03312823          	sw	s3,48(sp)
     d70:	04010413          	addi	s0,sp,64
     d74:	fca42623          	sw	a0,-52(s0)
     d78:	fcc42703          	lw	a4,-52(s0)
     d7c:	03200793          	li	a5,50
     d80:	02f707b3          	mul	a5,a4,a5
     d84:	fef42623          	sw	a5,-20(s0)
     d88:	f65ff0ef          	jal	ra,cec <get_cycle_value>
     d8c:	fea42023          	sw	a0,-32(s0)
     d90:	feb42223          	sw	a1,-28(s0)
     d94:	fec42783          	lw	a5,-20(s0)
     d98:	00078913          	mv	s2,a5
     d9c:	00000993          	li	s3,0
     da0:	fe042683          	lw	a3,-32(s0)
     da4:	fe442703          	lw	a4,-28(s0)
     da8:	012687b3          	add	a5,a3,s2
     dac:	00078613          	mv	a2,a5
     db0:	00d63633          	sltu	a2,a2,a3
     db4:	01370833          	add	a6,a4,s3
     db8:	01060733          	add	a4,a2,a6
     dbc:	00070813          	mv	a6,a4
     dc0:	fcf42c23          	sw	a5,-40(s0)
     dc4:	fd042e23          	sw	a6,-36(s0)
     dc8:	00000013          	nop
     dcc:	f21ff0ef          	jal	ra,cec <get_cycle_value>
     dd0:	00050793          	mv	a5,a0
     dd4:	00058813          	mv	a6,a1
     dd8:	fdc42703          	lw	a4,-36(s0)
     ddc:	00080693          	mv	a3,a6
     de0:	fee6e6e3          	bltu	a3,a4,dcc <busy_wait+0x70>
     de4:	fdc42703          	lw	a4,-36(s0)
     de8:	00080693          	mv	a3,a6
     dec:	00d71663          	bne	a4,a3,df8 <busy_wait+0x9c>
     df0:	fd842703          	lw	a4,-40(s0)
     df4:	fce7ece3          	bltu	a5,a4,dcc <busy_wait+0x70>
     df8:	00000013          	nop
     dfc:	03c12083          	lw	ra,60(sp)
     e00:	03812403          	lw	s0,56(sp)
     e04:	03412903          	lw	s2,52(sp)
     e08:	03012983          	lw	s3,48(sp)
     e0c:	04010113          	addi	sp,sp,64
     e10:	00008067          	ret

00000e14 <plic_init>:
     e14:	fe010113          	addi	sp,sp,-32
     e18:	00812e23          	sw	s0,28(sp)
     e1c:	02010413          	addi	s0,sp,32
     e20:	fea42623          	sw	a0,-20(s0)
     e24:	feb42423          	sw	a1,-24(s0)
     e28:	fec42783          	lw	a5,-20(s0)
     e2c:	fe842703          	lw	a4,-24(s0)
     e30:	00e7a023          	sw	a4,0(a5)
     e34:	00000013          	nop
     e38:	01c12403          	lw	s0,28(sp)
     e3c:	02010113          	addi	sp,sp,32
     e40:	00008067          	ret

00000e44 <plic_set_threshold>:
     e44:	fd010113          	addi	sp,sp,-48
     e48:	02812623          	sw	s0,44(sp)
     e4c:	03010413          	addi	s0,sp,48
     e50:	fca42e23          	sw	a0,-36(s0)
     e54:	fcb42c23          	sw	a1,-40(s0)
     e58:	f14027f3          	csrr	a5,mhartid
     e5c:	fef42623          	sw	a5,-20(s0)
     e60:	fec42783          	lw	a5,-20(s0)
     e64:	fef42423          	sw	a5,-24(s0)
     e68:	fdc42783          	lw	a5,-36(s0)
     e6c:	0007a703          	lw	a4,0(a5)
     e70:	fe842783          	lw	a5,-24(s0)
     e74:	00c79793          	slli	a5,a5,0xc
     e78:	00f70733          	add	a4,a4,a5
     e7c:	002007b7          	lui	a5,0x200
     e80:	00f707b3          	add	a5,a4,a5
     e84:	fef42223          	sw	a5,-28(s0)
     e88:	fe442783          	lw	a5,-28(s0)
     e8c:	fd842703          	lw	a4,-40(s0)
     e90:	00e7a023          	sw	a4,0(a5) # 200000 <__stack_size+0x1fe000>
     e94:	00000013          	nop
     e98:	02c12403          	lw	s0,44(sp)
     e9c:	03010113          	addi	sp,sp,48
     ea0:	00008067          	ret

00000ea4 <plic_enable_interrupt>:
     ea4:	fd010113          	addi	sp,sp,-48
     ea8:	02812623          	sw	s0,44(sp)
     eac:	03010413          	addi	s0,sp,48
     eb0:	fca42e23          	sw	a0,-36(s0)
     eb4:	fcb42c23          	sw	a1,-40(s0)
     eb8:	f14027f3          	csrr	a5,mhartid
     ebc:	fef42623          	sw	a5,-20(s0)
     ec0:	fec42783          	lw	a5,-20(s0)
     ec4:	fef42423          	sw	a5,-24(s0)
     ec8:	fdc42783          	lw	a5,-36(s0)
     ecc:	0007a703          	lw	a4,0(a5)
     ed0:	fe842783          	lw	a5,-24(s0)
     ed4:	00779793          	slli	a5,a5,0x7
     ed8:	00f70733          	add	a4,a4,a5
     edc:	fd842783          	lw	a5,-40(s0)
     ee0:	0037d793          	srli	a5,a5,0x3
     ee4:	00f70733          	add	a4,a4,a5
     ee8:	000027b7          	lui	a5,0x2
     eec:	00f707b3          	add	a5,a4,a5
     ef0:	fef42223          	sw	a5,-28(s0)
     ef4:	fe442783          	lw	a5,-28(s0)
     ef8:	0007c783          	lbu	a5,0(a5) # 2000 <__stack_size>
     efc:	fef401a3          	sb	a5,-29(s0)
     f00:	fd842783          	lw	a5,-40(s0)
     f04:	0077f793          	andi	a5,a5,7
     f08:	00100713          	li	a4,1
     f0c:	00f717b3          	sll	a5,a4,a5
     f10:	01879713          	slli	a4,a5,0x18
     f14:	41875713          	srai	a4,a4,0x18
     f18:	fe340783          	lb	a5,-29(s0)
     f1c:	00f767b3          	or	a5,a4,a5
     f20:	01879793          	slli	a5,a5,0x18
     f24:	4187d793          	srai	a5,a5,0x18
     f28:	fef401a3          	sb	a5,-29(s0)
     f2c:	fe442783          	lw	a5,-28(s0)
     f30:	fe344703          	lbu	a4,-29(s0)
     f34:	00e78023          	sb	a4,0(a5)
     f38:	00000013          	nop
     f3c:	02c12403          	lw	s0,44(sp)
     f40:	03010113          	addi	sp,sp,48
     f44:	00008067          	ret

00000f48 <plic_set_priority>:
     f48:	fd010113          	addi	sp,sp,-48
     f4c:	02812623          	sw	s0,44(sp)
     f50:	03010413          	addi	s0,sp,48
     f54:	fca42e23          	sw	a0,-36(s0)
     f58:	fcb42c23          	sw	a1,-40(s0)
     f5c:	fcc42a23          	sw	a2,-44(s0)
     f60:	fdc42783          	lw	a5,-36(s0)
     f64:	0007a703          	lw	a4,0(a5)
     f68:	fd842783          	lw	a5,-40(s0)
     f6c:	00279793          	slli	a5,a5,0x2
     f70:	00f707b3          	add	a5,a4,a5
     f74:	fef42623          	sw	a5,-20(s0)
     f78:	fec42783          	lw	a5,-20(s0)
     f7c:	fd442703          	lw	a4,-44(s0)
     f80:	00e7a023          	sw	a4,0(a5)
     f84:	00000013          	nop
     f88:	02c12403          	lw	s0,44(sp)
     f8c:	03010113          	addi	sp,sp,48
     f90:	00008067          	ret

00000f94 <plic_claim_interrupt>:
     f94:	fd010113          	addi	sp,sp,-48
     f98:	02812623          	sw	s0,44(sp)
     f9c:	03010413          	addi	s0,sp,48
     fa0:	fca42e23          	sw	a0,-36(s0)
     fa4:	f14027f3          	csrr	a5,mhartid
     fa8:	fef42623          	sw	a5,-20(s0)
     fac:	fec42783          	lw	a5,-20(s0)
     fb0:	fef42423          	sw	a5,-24(s0)
     fb4:	fdc42783          	lw	a5,-36(s0)
     fb8:	0007a703          	lw	a4,0(a5)
     fbc:	fe842783          	lw	a5,-24(s0)
     fc0:	00c79793          	slli	a5,a5,0xc
     fc4:	00f70733          	add	a4,a4,a5
     fc8:	002007b7          	lui	a5,0x200
     fcc:	00478793          	addi	a5,a5,4 # 200004 <__stack_size+0x1fe004>
     fd0:	00f707b3          	add	a5,a4,a5
     fd4:	fef42223          	sw	a5,-28(s0)
     fd8:	fe442783          	lw	a5,-28(s0)
     fdc:	0007a783          	lw	a5,0(a5)
     fe0:	00078513          	mv	a0,a5
     fe4:	02c12403          	lw	s0,44(sp)
     fe8:	03010113          	addi	sp,sp,48
     fec:	00008067          	ret

00000ff0 <plic_complete_interrupt>:
     ff0:	fd010113          	addi	sp,sp,-48
     ff4:	02812623          	sw	s0,44(sp)
     ff8:	03010413          	addi	s0,sp,48
     ffc:	fca42e23          	sw	a0,-36(s0)
    1000:	fcb42c23          	sw	a1,-40(s0)
    1004:	f14027f3          	csrr	a5,mhartid
    1008:	fef42623          	sw	a5,-20(s0)
    100c:	fec42783          	lw	a5,-20(s0)
    1010:	fef42423          	sw	a5,-24(s0)
    1014:	fdc42783          	lw	a5,-36(s0)
    1018:	0007a703          	lw	a4,0(a5)
    101c:	fe842783          	lw	a5,-24(s0)
    1020:	00c79793          	slli	a5,a5,0xc
    1024:	00f70733          	add	a4,a4,a5
    1028:	002007b7          	lui	a5,0x200
    102c:	00478793          	addi	a5,a5,4 # 200004 <__stack_size+0x1fe004>
    1030:	00f707b3          	add	a5,a4,a5
    1034:	fef42223          	sw	a5,-28(s0)
    1038:	fe442783          	lw	a5,-28(s0)
    103c:	fd842703          	lw	a4,-40(s0)
    1040:	00e7a023          	sw	a4,0(a5)
    1044:	00000013          	nop
    1048:	02c12403          	lw	s0,44(sp)
    104c:	03010113          	addi	sp,sp,48
    1050:	00008067          	ret

00001054 <apb_gpio_init>:
    1054:	fe010113          	addi	sp,sp,-32
    1058:	00812e23          	sw	s0,28(sp)
    105c:	02010413          	addi	s0,sp,32
    1060:	fea42623          	sw	a0,-20(s0)
    1064:	feb42423          	sw	a1,-24(s0)
    1068:	fe842703          	lw	a4,-24(s0)
    106c:	fec42783          	lw	a5,-20(s0)
    1070:	00e7a023          	sw	a4,0(a5)
    1074:	00000013          	nop
    1078:	01c12403          	lw	s0,28(sp)
    107c:	02010113          	addi	sp,sp,32
    1080:	00008067          	ret

00001084 <apb_gpio_write_pin>:
    1084:	fe010113          	addi	sp,sp,-32
    1088:	00812e23          	sw	s0,28(sp)
    108c:	02010413          	addi	s0,sp,32
    1090:	fea42623          	sw	a0,-20(s0)
    1094:	feb42423          	sw	a1,-24(s0)
    1098:	fec42223          	sw	a2,-28(s0)
    109c:	fec42783          	lw	a5,-20(s0)
    10a0:	0007a783          	lw	a5,0(a5)
    10a4:	fe842703          	lw	a4,-24(s0)
    10a8:	00e7a223          	sw	a4,4(a5)
    10ac:	fec42783          	lw	a5,-20(s0)
    10b0:	0007a783          	lw	a5,0(a5)
    10b4:	fe442703          	lw	a4,-28(s0)
    10b8:	00e7a023          	sw	a4,0(a5)
    10bc:	00000013          	nop
    10c0:	01c12403          	lw	s0,28(sp)
    10c4:	02010113          	addi	sp,sp,32
    10c8:	00008067          	ret

000010cc <apb_gpio_set_direction>:
    10cc:	fe010113          	addi	sp,sp,-32
    10d0:	00812e23          	sw	s0,28(sp)
    10d4:	02010413          	addi	s0,sp,32
    10d8:	fea42623          	sw	a0,-20(s0)
    10dc:	feb42423          	sw	a1,-24(s0)
    10e0:	fec42783          	lw	a5,-20(s0)
    10e4:	fe842703          	lw	a4,-24(s0)
    10e8:	00e7a223          	sw	a4,4(a5)
    10ec:	fec42783          	lw	a5,-20(s0)
    10f0:	0007a783          	lw	a5,0(a5)
    10f4:	fe842703          	lw	a4,-24(s0)
    10f8:	00e7a423          	sw	a4,8(a5)
    10fc:	00000013          	nop
    1100:	01c12403          	lw	s0,28(sp)
    1104:	02010113          	addi	sp,sp,32
    1108:	00008067          	ret

0000110c <init_apb_timer>:
    110c:	fd010113          	addi	sp,sp,-48
    1110:	02812623          	sw	s0,44(sp)
    1114:	03010413          	addi	s0,sp,48
    1118:	fca42e23          	sw	a0,-36(s0)
    111c:	fcb42c23          	sw	a1,-40(s0)
    1120:	fcc42a23          	sw	a2,-44(s0)
    1124:	fd842703          	lw	a4,-40(s0)
    1128:	fdc42783          	lw	a5,-36(s0)
    112c:	00e7a023          	sw	a4,0(a5)
    1130:	fd442783          	lw	a5,-44(s0)
    1134:	0047a703          	lw	a4,4(a5)
    1138:	fdc42783          	lw	a5,-36(s0)
    113c:	00e7a223          	sw	a4,4(a5)
    1140:	fd442783          	lw	a5,-44(s0)
    1144:	0087a703          	lw	a4,8(a5)
    1148:	fdc42783          	lw	a5,-36(s0)
    114c:	00e7a423          	sw	a4,8(a5)
    1150:	fd442783          	lw	a5,-44(s0)
    1154:	0007c703          	lbu	a4,0(a5)
    1158:	fdc42783          	lw	a5,-36(s0)
    115c:	00e78623          	sb	a4,12(a5)
    1160:	fd442783          	lw	a5,-44(s0)
    1164:	0017c703          	lbu	a4,1(a5)
    1168:	fdc42783          	lw	a5,-36(s0)
    116c:	00e786a3          	sb	a4,13(a5)
    1170:	fdc42783          	lw	a5,-36(s0)
    1174:	0007a783          	lw	a5,0(a5)
    1178:	fd442703          	lw	a4,-44(s0)
    117c:	00472703          	lw	a4,4(a4)
    1180:	00e7a023          	sw	a4,0(a5)
    1184:	fdc42783          	lw	a5,-36(s0)
    1188:	0007a783          	lw	a5,0(a5)
    118c:	fd442703          	lw	a4,-44(s0)
    1190:	00872703          	lw	a4,8(a4)
    1194:	00e7a223          	sw	a4,4(a5)
    1198:	fdc42783          	lw	a5,-36(s0)
    119c:	0007a783          	lw	a5,0(a5)
    11a0:	fd442703          	lw	a4,-44(s0)
    11a4:	00472703          	lw	a4,4(a4)
    11a8:	00e7a423          	sw	a4,8(a5)
    11ac:	fd442783          	lw	a5,-44(s0)
    11b0:	0007c783          	lbu	a5,0(a5)
    11b4:	00078713          	mv	a4,a5
    11b8:	fdc42783          	lw	a5,-36(s0)
    11bc:	0007a783          	lw	a5,0(a5)
    11c0:	00871713          	slli	a4,a4,0x8
    11c4:	00e7a623          	sw	a4,12(a5)
    11c8:	fe0407a3          	sb	zero,-17(s0)
    11cc:	0a80006f          	j	1274 <init_apb_timer+0x168>
    11d0:	fd442783          	lw	a5,-44(s0)
    11d4:	0007c783          	lbu	a5,0(a5)
    11d8:	00078713          	mv	a4,a5
    11dc:	fef44783          	lbu	a5,-17(s0)
    11e0:	40f757b3          	sra	a5,a4,a5
    11e4:	0017f793          	andi	a5,a5,1
    11e8:	04079863          	bnez	a5,1238 <init_apb_timer+0x12c>
    11ec:	fef44783          	lbu	a5,-17(s0)
    11f0:	fd442703          	lw	a4,-44(s0)
    11f4:	00f707b3          	add	a5,a4,a5
    11f8:	0207c783          	lbu	a5,32(a5)
    11fc:	00078613          	mv	a2,a5
    1200:	fef44783          	lbu	a5,-17(s0)
    1204:	fd442703          	lw	a4,-44(s0)
    1208:	00f707b3          	add	a5,a4,a5
    120c:	01c7c783          	lbu	a5,28(a5)
    1210:	00879713          	slli	a4,a5,0x8
    1214:	fdc42783          	lw	a5,-36(s0)
    1218:	0007a683          	lw	a3,0(a5)
    121c:	fef44783          	lbu	a5,-17(s0)
    1220:	00e66733          	or	a4,a2,a4
    1224:	00278793          	addi	a5,a5,2
    1228:	00379793          	slli	a5,a5,0x3
    122c:	00f687b3          	add	a5,a3,a5
    1230:	00e7a623          	sw	a4,12(a5)
    1234:	0340006f          	j	1268 <init_apb_timer+0x15c>
    1238:	fef44783          	lbu	a5,-17(s0)
    123c:	fdc42703          	lw	a4,-36(s0)
    1240:	00072683          	lw	a3,0(a4)
    1244:	fef44603          	lbu	a2,-17(s0)
    1248:	fd442703          	lw	a4,-44(s0)
    124c:	00279793          	slli	a5,a5,0x2
    1250:	00f707b3          	add	a5,a4,a5
    1254:	00c7a703          	lw	a4,12(a5)
    1258:	00260793          	addi	a5,a2,2
    125c:	00379793          	slli	a5,a5,0x3
    1260:	00f687b3          	add	a5,a3,a5
    1264:	00e7a423          	sw	a4,8(a5)
    1268:	fef44783          	lbu	a5,-17(s0)
    126c:	00178793          	addi	a5,a5,1
    1270:	fef407a3          	sb	a5,-17(s0)
    1274:	fef44703          	lbu	a4,-17(s0)
    1278:	00300793          	li	a5,3
    127c:	f4e7fae3          	bgeu	a5,a4,11d0 <init_apb_timer+0xc4>
    1280:	00000013          	nop
    1284:	02c12403          	lw	s0,44(sp)
    1288:	03010113          	addi	sp,sp,48
    128c:	00008067          	ret

00001290 <apb_timer_get_itr_status>:
    1290:	fe010113          	addi	sp,sp,-32
    1294:	00812e23          	sw	s0,28(sp)
    1298:	02010413          	addi	s0,sp,32
    129c:	fea42623          	sw	a0,-20(s0)
    12a0:	fec42783          	lw	a5,-20(s0)
    12a4:	0007a783          	lw	a5,0(a5)
    12a8:	0147a783          	lw	a5,20(a5)
    12ac:	0087d793          	srli	a5,a5,0x8
    12b0:	0ff7f793          	andi	a5,a5,255
    12b4:	00078513          	mv	a0,a5
    12b8:	01c12403          	lw	s0,28(sp)
    12bc:	02010113          	addi	sp,sp,32
    12c0:	00008067          	ret

000012c4 <apb_timer_clear_itr_flag>:
    12c4:	fe010113          	addi	sp,sp,-32
    12c8:	00812e23          	sw	s0,28(sp)
    12cc:	02010413          	addi	s0,sp,32
    12d0:	fea42623          	sw	a0,-20(s0)
    12d4:	fec42783          	lw	a5,-20(s0)
    12d8:	0007a783          	lw	a5,0(a5)
    12dc:	0007aa23          	sw	zero,20(a5)
    12e0:	00000013          	nop
    12e4:	01c12403          	lw	s0,28(sp)
    12e8:	02010113          	addi	sp,sp,32
    12ec:	00008067          	ret

000012f0 <apb_timer_set_cmp>:
    12f0:	fe010113          	addi	sp,sp,-32
    12f4:	00812e23          	sw	s0,28(sp)
    12f8:	02010413          	addi	s0,sp,32
    12fc:	fea42623          	sw	a0,-20(s0)
    1300:	00058793          	mv	a5,a1
    1304:	fec42223          	sw	a2,-28(s0)
    1308:	fef405a3          	sb	a5,-21(s0)
    130c:	fec42783          	lw	a5,-20(s0)
    1310:	00d7c783          	lbu	a5,13(a5)
    1314:	feb44703          	lbu	a4,-21(s0)
    1318:	04f77463          	bgeu	a4,a5,1360 <apb_timer_set_cmp+0x70>
    131c:	fec42783          	lw	a5,-20(s0)
    1320:	00c7c783          	lbu	a5,12(a5)
    1324:	00078713          	mv	a4,a5
    1328:	feb44783          	lbu	a5,-21(s0)
    132c:	40f757b3          	sra	a5,a4,a5
    1330:	0017f793          	andi	a5,a5,1
    1334:	02078663          	beqz	a5,1360 <apb_timer_set_cmp+0x70>
    1338:	fec42783          	lw	a5,-20(s0)
    133c:	0007a703          	lw	a4,0(a5)
    1340:	feb44783          	lbu	a5,-21(s0)
    1344:	00278793          	addi	a5,a5,2
    1348:	00379793          	slli	a5,a5,0x3
    134c:	00f707b3          	add	a5,a4,a5
    1350:	fe442703          	lw	a4,-28(s0)
    1354:	00e7a423          	sw	a4,8(a5)
    1358:	00000793          	li	a5,0
    135c:	0080006f          	j	1364 <apb_timer_set_cmp+0x74>
    1360:	fff00793          	li	a5,-1
    1364:	00078513          	mv	a0,a5
    1368:	01c12403          	lw	s0,28(sp)
    136c:	02010113          	addi	sp,sp,32
    1370:	00008067          	ret

00001374 <apb_uart_init>:
    1374:	fe010113          	addi	sp,sp,-32
    1378:	00812e23          	sw	s0,28(sp)
    137c:	02010413          	addi	s0,sp,32
    1380:	fea42623          	sw	a0,-20(s0)
    1384:	feb42423          	sw	a1,-24(s0)
    1388:	fe842703          	lw	a4,-24(s0)
    138c:	fec42783          	lw	a5,-20(s0)
    1390:	00e7a023          	sw	a4,0(a5)
    1394:	fec42783          	lw	a5,-20(s0)
    1398:	00078223          	sb	zero,4(a5)
    139c:	00000013          	nop
    13a0:	01c12403          	lw	s0,28(sp)
    13a4:	02010113          	addi	sp,sp,32
    13a8:	00008067          	ret

000013ac <apb_uart_send_byte>:
    13ac:	fd010113          	addi	sp,sp,-48
    13b0:	02812623          	sw	s0,44(sp)
    13b4:	03010413          	addi	s0,sp,48
    13b8:	fca42e23          	sw	a0,-36(s0)
    13bc:	00058793          	mv	a5,a1
    13c0:	fcf40da3          	sb	a5,-37(s0)
    13c4:	fdc42783          	lw	a5,-36(s0)
    13c8:	0007a783          	lw	a5,0(a5)
    13cc:	0007a783          	lw	a5,0(a5)
    13d0:	fef42623          	sw	a5,-20(s0)
    13d4:	fec42783          	lw	a5,-20(s0)
    13d8:	0017f793          	andi	a5,a5,1
    13dc:	00078663          	beqz	a5,13e8 <apb_uart_send_byte+0x3c>
    13e0:	fff00793          	li	a5,-1
    13e4:	0600006f          	j	1444 <apb_uart_send_byte+0x98>
    13e8:	fdc42783          	lw	a5,-36(s0)
    13ec:	0007a783          	lw	a5,0(a5)
    13f0:	fef42423          	sw	a5,-24(s0)
    13f4:	fec42783          	lw	a5,-20(s0)
    13f8:	c037f793          	andi	a5,a5,-1021
    13fc:	fef42623          	sw	a5,-20(s0)
    1400:	fdb44783          	lbu	a5,-37(s0)
    1404:	00279793          	slli	a5,a5,0x2
    1408:	fec42703          	lw	a4,-20(s0)
    140c:	00f767b3          	or	a5,a4,a5
    1410:	fef42623          	sw	a5,-20(s0)
    1414:	fe842783          	lw	a5,-24(s0)
    1418:	fec42703          	lw	a4,-20(s0)
    141c:	00e7a023          	sw	a4,0(a5)
    1420:	fec42783          	lw	a5,-20(s0)
    1424:	0027e713          	ori	a4,a5,2
    1428:	fe842783          	lw	a5,-24(s0)
    142c:	00e7a023          	sw	a4,0(a5)
    1430:	fec42783          	lw	a5,-20(s0)
    1434:	ffd7f713          	andi	a4,a5,-3
    1438:	fe842783          	lw	a5,-24(s0)
    143c:	00e7a023          	sw	a4,0(a5)
    1440:	00000793          	li	a5,0
    1444:	00078513          	mv	a0,a5
    1448:	02c12403          	lw	s0,44(sp)
    144c:	03010113          	addi	sp,sp,48
    1450:	00008067          	ret
