
tube_scan:     file format elf32-littleriscv


Disassembly of section .init:

00000800 <_start>:
 800:	10000197          	auipc	gp,0x10000
 804:	01818193          	addi	gp,gp,24 # 10000818 <__global_pointer$>
 808:	10007117          	auipc	sp,0x10007
 80c:	7f810113          	addi	sp,sp,2040 # 10008000 <__freertos_irq_stack_top>
 810:	00001517          	auipc	a0,0x1
 814:	ba050513          	addi	a0,a0,-1120 # 13b0 <_data_lma>
 818:	0ffff597          	auipc	a1,0xffff
 81c:	7e858593          	addi	a1,a1,2024 # 10000000 <_data>
 820:	0ffff617          	auipc	a2,0xffff
 824:	7f860613          	addi	a2,a2,2040 # 10000018 <__bss_start>
 828:	00c5fc63          	bgeu	a1,a2,840 <_start+0x40>
 82c:	00052283          	lw	t0,0(a0)
 830:	0055a023          	sw	t0,0(a1)
 834:	00450513          	addi	a0,a0,4
 838:	00458593          	addi	a1,a1,4
 83c:	fec5e8e3          	bltu	a1,a2,82c <_start+0x2c>
 840:	0ffff517          	auipc	a0,0xffff
 844:	7d850513          	addi	a0,a0,2008 # 10000018 <__bss_start>
 848:	83018593          	addi	a1,gp,-2000 # 10000048 <_end>
 84c:	00b57863          	bgeu	a0,a1,85c <_start+0x5c>
 850:	00052023          	sw	zero,0(a0)
 854:	00450513          	addi	a0,a0,4
 858:	feb56ce3          	bltu	a0,a1,850 <_start+0x50>
 85c:	540000ef          	jal	ra,d9c <_init>
 860:	290000ef          	jal	ra,af0 <main>

00000864 <loop>:
 864:	0000006f          	j	864 <loop>

Disassembly of section .text:

00000868 <trap_entry>:
     868:	f8010113          	addi	sp,sp,-128
     86c:	00112223          	sw	ra,4(sp)
     870:	00212423          	sw	sp,8(sp)
     874:	00312623          	sw	gp,12(sp)
     878:	00412823          	sw	tp,16(sp)
     87c:	00512a23          	sw	t0,20(sp)
     880:	00612c23          	sw	t1,24(sp)
     884:	00712e23          	sw	t2,28(sp)
     888:	02812023          	sw	s0,32(sp)
     88c:	02912223          	sw	s1,36(sp)
     890:	02a12423          	sw	a0,40(sp)
     894:	02b12623          	sw	a1,44(sp)
     898:	02c12823          	sw	a2,48(sp)
     89c:	02d12a23          	sw	a3,52(sp)
     8a0:	02e12c23          	sw	a4,56(sp)
     8a4:	02f12e23          	sw	a5,60(sp)
     8a8:	05012023          	sw	a6,64(sp)
     8ac:	05112223          	sw	a7,68(sp)
     8b0:	05212423          	sw	s2,72(sp)
     8b4:	05312623          	sw	s3,76(sp)
     8b8:	05412823          	sw	s4,80(sp)
     8bc:	05512a23          	sw	s5,84(sp)
     8c0:	05612c23          	sw	s6,88(sp)
     8c4:	05712e23          	sw	s7,92(sp)
     8c8:	07812023          	sw	s8,96(sp)
     8cc:	07912223          	sw	s9,100(sp)
     8d0:	07a12423          	sw	s10,104(sp)
     8d4:	07b12623          	sw	s11,108(sp)
     8d8:	07c12823          	sw	t3,112(sp)
     8dc:	07d12a23          	sw	t4,116(sp)
     8e0:	07e12c23          	sw	t5,120(sp)
     8e4:	07f12e23          	sw	t6,124(sp)
     8e8:	34202573          	csrr	a0,mcause
     8ec:	341025f3          	csrr	a1,mepc

000008f0 <test_if_asynchronous>:
     8f0:	01f55613          	srli	a2,a0,0x1f
     8f4:	00060663          	beqz	a2,900 <handle_synchronous>
     8f8:	4d8000ef          	jal	ra,dd0 <trap_handler>
     8fc:	0080006f          	j	904 <asynchronous_return>

00000900 <handle_synchronous>:
     900:	550000ef          	jal	ra,e50 <serr_handler>

00000904 <asynchronous_return>:
     904:	00412083          	lw	ra,4(sp)
     908:	00812103          	lw	sp,8(sp)
     90c:	00c12183          	lw	gp,12(sp)
     910:	01012203          	lw	tp,16(sp)
     914:	01412283          	lw	t0,20(sp)
     918:	01812303          	lw	t1,24(sp)
     91c:	01c12383          	lw	t2,28(sp)
     920:	02012403          	lw	s0,32(sp)
     924:	02412483          	lw	s1,36(sp)
     928:	02812503          	lw	a0,40(sp)
     92c:	02c12583          	lw	a1,44(sp)
     930:	03012603          	lw	a2,48(sp)
     934:	03412683          	lw	a3,52(sp)
     938:	03812703          	lw	a4,56(sp)
     93c:	03c12783          	lw	a5,60(sp)
     940:	04012803          	lw	a6,64(sp)
     944:	04412883          	lw	a7,68(sp)
     948:	04812903          	lw	s2,72(sp)
     94c:	04c12983          	lw	s3,76(sp)
     950:	05012a03          	lw	s4,80(sp)
     954:	05412a83          	lw	s5,84(sp)
     958:	05812b03          	lw	s6,88(sp)
     95c:	05c12b83          	lw	s7,92(sp)
     960:	06012c03          	lw	s8,96(sp)
     964:	06412c83          	lw	s9,100(sp)
     968:	06812d03          	lw	s10,104(sp)
     96c:	06c12d83          	lw	s11,108(sp)
     970:	07012e03          	lw	t3,112(sp)
     974:	07412e83          	lw	t4,116(sp)
     978:	07812f03          	lw	t5,120(sp)
     97c:	07c12f83          	lw	t6,124(sp)
     980:	08010113          	addi	sp,sp,128
     984:	30200073          	mret
     988:	0000006f          	j	988 <asynchronous_return+0x84>
     98c:	0000006f          	j	98c <asynchronous_return+0x88>

00000990 <ext_irq_handler>:
     990:	fe010113          	addi	sp,sp,-32
     994:	00112e23          	sw	ra,28(sp)
     998:	00812c23          	sw	s0,24(sp)
     99c:	02010413          	addi	s0,sp,32
     9a0:	100007b7          	lui	a5,0x10000
     9a4:	02078513          	addi	a0,a5,32 # 10000020 <plic>
     9a8:	640000ef          	jal	ra,fe8 <plic_claim_interrupt>
     9ac:	fea42623          	sw	a0,-20(s0)
     9b0:	fec42703          	lw	a4,-20(s0)
     9b4:	00200793          	li	a5,2
     9b8:	00f70463          	beq	a4,a5,9c0 <ext_irq_handler+0x30>
     9bc:	00c0006f          	j	9c8 <ext_irq_handler+0x38>
     9c0:	02c000ef          	jal	ra,9ec <timer0_itr_handler>
     9c4:	00000013          	nop
     9c8:	fec42583          	lw	a1,-20(s0)
     9cc:	100007b7          	lui	a5,0x10000
     9d0:	02078513          	addi	a0,a5,32 # 10000020 <plic>
     9d4:	670000ef          	jal	ra,1044 <plic_complete_interrupt>
     9d8:	00000013          	nop
     9dc:	01c12083          	lw	ra,28(sp)
     9e0:	01812403          	lw	s0,24(sp)
     9e4:	02010113          	addi	sp,sp,32
     9e8:	00008067          	ret

000009ec <timer0_itr_handler>:
     9ec:	fe010113          	addi	sp,sp,-32
     9f0:	00112e23          	sw	ra,28(sp)
     9f4:	00812c23          	sw	s0,24(sp)
     9f8:	02010413          	addi	s0,sp,32
     9fc:	81c18513          	addi	a0,gp,-2020 # 10000034 <timer0>
     a00:	151000ef          	jal	ra,1350 <apb_timer_get_itr_status>
     a04:	00050793          	mv	a5,a0
     a08:	fef407a3          	sb	a5,-17(s0)
     a0c:	fef44783          	lbu	a5,-17(s0)
     a10:	0017f793          	andi	a5,a5,1
     a14:	00078663          	beqz	a5,a20 <timer0_itr_handler+0x34>
     a18:	00100713          	li	a4,1
     a1c:	80e18c23          	sb	a4,-2024(gp) # 10000030 <timer0_period_elapsed>
     a20:	81c18513          	addi	a0,gp,-2020 # 10000034 <timer0>
     a24:	161000ef          	jal	ra,1384 <apb_timer_clear_itr_flag>
     a28:	00000013          	nop
     a2c:	01c12083          	lw	ra,28(sp)
     a30:	01812403          	lw	s0,24(sp)
     a34:	02010113          	addi	sp,sp,32
     a38:	00008067          	ret

00000a3c <tube_scan_disp>:
     a3c:	ff010113          	addi	sp,sp,-16
     a40:	00112623          	sw	ra,12(sp)
     a44:	00812423          	sw	s0,8(sp)
     a48:	01010413          	addi	s0,sp,16
     a4c:	8141c783          	lbu	a5,-2028(gp) # 1000002c <tube_dig_sel>
     a50:	00078713          	mv	a4,a5
     a54:	40000793          	li	a5,1024
     a58:	00e797b3          	sll	a5,a5,a4
     a5c:	fff7c793          	not	a5,a5
     a60:	00078613          	mv	a2,a5
     a64:	000047b7          	lui	a5,0x4
     a68:	c0078593          	addi	a1,a5,-1024 # 3c00 <__stack_size+0x1c00>
     a6c:	100007b7          	lui	a5,0x10000
     a70:	01878513          	addi	a0,a5,24 # 10000018 <__bss_start>
     a74:	664000ef          	jal	ra,10d8 <apb_gpio_write_pin>
     a78:	8141c783          	lbu	a5,-2028(gp) # 1000002c <tube_dig_sel>
     a7c:	00078713          	mv	a4,a5
     a80:	81018793          	addi	a5,gp,-2032 # 10000028 <tube_disp_num>
     a84:	00f707b3          	add	a5,a4,a5
     a88:	0007c783          	lbu	a5,0(a5)
     a8c:	00078713          	mv	a4,a5
     a90:	100007b7          	lui	a5,0x10000
     a94:	00c78793          	addi	a5,a5,12 # 1000000c <tube_seg_code>
     a98:	00f707b3          	add	a5,a4,a5
     a9c:	0007c783          	lbu	a5,0(a5)
     aa0:	00e79793          	slli	a5,a5,0xe
     aa4:	00078613          	mv	a2,a5
     aa8:	003fc5b7          	lui	a1,0x3fc
     aac:	100007b7          	lui	a5,0x10000
     ab0:	01878513          	addi	a0,a5,24 # 10000018 <__bss_start>
     ab4:	624000ef          	jal	ra,10d8 <apb_gpio_write_pin>
     ab8:	8141c703          	lbu	a4,-2028(gp) # 1000002c <tube_dig_sel>
     abc:	00300793          	li	a5,3
     ac0:	00f71663          	bne	a4,a5,acc <tube_scan_disp+0x90>
     ac4:	80018a23          	sb	zero,-2028(gp) # 1000002c <tube_dig_sel>
     ac8:	0140006f          	j	adc <tube_scan_disp+0xa0>
     acc:	8141c783          	lbu	a5,-2028(gp) # 1000002c <tube_dig_sel>
     ad0:	00178793          	addi	a5,a5,1
     ad4:	0ff7f713          	andi	a4,a5,255
     ad8:	80e18a23          	sb	a4,-2028(gp) # 1000002c <tube_dig_sel>
     adc:	00000013          	nop
     ae0:	00c12083          	lw	ra,12(sp)
     ae4:	00812403          	lw	s0,8(sp)
     ae8:	01010113          	addi	sp,sp,16
     aec:	00008067          	ret

00000af0 <main>:
     af0:	fc010113          	addi	sp,sp,-64
     af4:	02112e23          	sw	ra,60(sp)
     af8:	02812c23          	sw	s0,56(sp)
     afc:	04010413          	addi	s0,sp,64
     b00:	000017b7          	lui	a5,0x1
     b04:	80078793          	addi	a5,a5,-2048 # 800 <_start>
     b08:	30479073          	csrw	mie,a5
     b0c:	f00005b7          	lui	a1,0xf0000
     b10:	100007b7          	lui	a5,0x10000
     b14:	02078513          	addi	a0,a5,32 # 10000020 <plic>
     b18:	350000ef          	jal	ra,e68 <plic_init>
     b1c:	00000593          	li	a1,0
     b20:	100007b7          	lui	a5,0x10000
     b24:	02078513          	addi	a0,a5,32 # 10000020 <plic>
     b28:	370000ef          	jal	ra,e98 <plic_set_threshold>
     b2c:	00100613          	li	a2,1
     b30:	00200593          	li	a1,2
     b34:	100007b7          	lui	a5,0x10000
     b38:	02078513          	addi	a0,a5,32 # 10000020 <plic>
     b3c:	460000ef          	jal	ra,f9c <plic_set_priority>
     b40:	00200593          	li	a1,2
     b44:	100007b7          	lui	a5,0x10000
     b48:	02078513          	addi	a0,a5,32 # 10000020 <plic>
     b4c:	3ac000ef          	jal	ra,ef8 <plic_enable_interrupt>
     b50:	400005b7          	lui	a1,0x40000
     b54:	100007b7          	lui	a5,0x10000
     b58:	01878513          	addi	a0,a5,24 # 10000018 <__bss_start>
     b5c:	54c000ef          	jal	ra,10a8 <apb_gpio_init>
     b60:	30000593          	li	a1,768
     b64:	100007b7          	lui	a5,0x10000
     b68:	01878513          	addi	a0,a5,24 # 10000018 <__bss_start>
     b6c:	5e0000ef          	jal	ra,114c <apb_gpio_set_direction>
     b70:	04000793          	li	a5,64
     b74:	fcf42823          	sw	a5,-48(s0)
     b78:	7cf00793          	li	a5,1999
     b7c:	fcf42a23          	sw	a5,-44(s0)
     b80:	fc0406a3          	sb	zero,-51(s0)
     b84:	fc040623          	sb	zero,-52(s0)
     b88:	fc042c23          	sw	zero,-40(s0)
     b8c:	fc042e23          	sw	zero,-36(s0)
     b90:	fe042023          	sw	zero,-32(s0)
     b94:	fe042223          	sw	zero,-28(s0)
     b98:	fe040423          	sb	zero,-24(s0)
     b9c:	fe0404a3          	sb	zero,-23(s0)
     ba0:	fe040523          	sb	zero,-22(s0)
     ba4:	fe0405a3          	sb	zero,-21(s0)
     ba8:	fe040623          	sb	zero,-20(s0)
     bac:	fe0406a3          	sb	zero,-19(s0)
     bb0:	fe040723          	sb	zero,-18(s0)
     bb4:	fe0407a3          	sb	zero,-17(s0)
     bb8:	fcc40793          	addi	a5,s0,-52
     bbc:	00078613          	mv	a2,a5
     bc0:	400025b7          	lui	a1,0x40002
     bc4:	81c18513          	addi	a0,gp,-2020 # 10000034 <timer0>
     bc8:	5c4000ef          	jal	ra,118c <init_apb_timer>
     bcc:	00100593          	li	a1,1
     bd0:	81c18513          	addi	a0,gp,-2020 # 10000034 <timer0>
     bd4:	73c000ef          	jal	ra,1310 <apb_timer_enable_itr>
     bd8:	81c1a783          	lw	a5,-2020(gp) # 10000034 <timer0>
     bdc:	7cf00713          	li	a4,1999
     be0:	00e7a423          	sw	a4,8(a5)
     be4:	81c18793          	addi	a5,gp,-2020 # 10000034 <timer0>
     be8:	00c7c783          	lbu	a5,12(a5)
     bec:	00879713          	slli	a4,a5,0x8
     bf0:	81c1a783          	lw	a5,-2020(gp) # 10000034 <timer0>
     bf4:	00176713          	ori	a4,a4,1
     bf8:	00e7a623          	sw	a4,12(a5)
     bfc:	8181c783          	lbu	a5,-2024(gp) # 10000030 <timer0_period_elapsed>
     c00:	fe078ee3          	beqz	a5,bfc <main+0x10c>
     c04:	100007b7          	lui	a5,0x10000
     c08:	01878513          	addi	a0,a5,24 # 10000018 <__bss_start>
     c0c:	514000ef          	jal	ra,1120 <apb_gpio_read_pin>
     c10:	00050793          	mv	a5,a0
     c14:	1007f793          	andi	a5,a5,256
     c18:	00078863          	beqz	a5,c28 <main+0x138>
     c1c:	00100713          	li	a4,1
     c20:	80e186a3          	sb	a4,-2035(gp) # 10000025 <flow_led_style_sel>
     c24:	0080006f          	j	c2c <main+0x13c>
     c28:	800186a3          	sb	zero,-2035(gp) # 10000025 <flow_led_style_sel>
     c2c:	e11ff0ef          	jal	ra,a3c <tube_scan_disp>
     c30:	80e1d783          	lhu	a5,-2034(gp) # 10000026 <flow_led_div_cnt>
     c34:	00178793          	addi	a5,a5,1
     c38:	01079713          	slli	a4,a5,0x10
     c3c:	01075713          	srli	a4,a4,0x10
     c40:	80e19723          	sh	a4,-2034(gp) # 10000026 <flow_led_div_cnt>
     c44:	80e1d703          	lhu	a4,-2034(gp) # 10000026 <flow_led_div_cnt>
     c48:	1f400793          	li	a5,500
     c4c:	14f71463          	bne	a4,a5,d94 <main+0x2a4>
     c50:	100007b7          	lui	a5,0x10000
     c54:	01878513          	addi	a0,a5,24 # 10000018 <__bss_start>
     c58:	4c8000ef          	jal	ra,1120 <apb_gpio_read_pin>
     c5c:	00050793          	mv	a5,a0
     c60:	2007f793          	andi	a5,a5,512
     c64:	00078c63          	beqz	a5,c7c <main+0x18c>
     c68:	8161d783          	lhu	a5,-2026(gp) # 1000002e <now_sec>
     c6c:	00178793          	addi	a5,a5,1
     c70:	01079713          	slli	a4,a5,0x10
     c74:	01075713          	srli	a4,a4,0x10
     c78:	80e19b23          	sh	a4,-2026(gp) # 1000002e <now_sec>
     c7c:	8161d703          	lhu	a4,-2026(gp) # 1000002e <now_sec>
     c80:	00a00793          	li	a5,10
     c84:	02f777b3          	remu	a5,a4,a5
     c88:	01079793          	slli	a5,a5,0x10
     c8c:	0107d793          	srli	a5,a5,0x10
     c90:	0ff7f713          	andi	a4,a5,255
     c94:	80e18823          	sb	a4,-2032(gp) # 10000028 <tube_disp_num>
     c98:	8161d703          	lhu	a4,-2026(gp) # 1000002e <now_sec>
     c9c:	00a00793          	li	a5,10
     ca0:	02f757b3          	divu	a5,a4,a5
     ca4:	01079713          	slli	a4,a5,0x10
     ca8:	01075713          	srli	a4,a4,0x10
     cac:	00a00793          	li	a5,10
     cb0:	02f777b3          	remu	a5,a4,a5
     cb4:	01079793          	slli	a5,a5,0x10
     cb8:	0107d793          	srli	a5,a5,0x10
     cbc:	0ff7f713          	andi	a4,a5,255
     cc0:	81018793          	addi	a5,gp,-2032 # 10000028 <tube_disp_num>
     cc4:	00e780a3          	sb	a4,1(a5)
     cc8:	8161d703          	lhu	a4,-2026(gp) # 1000002e <now_sec>
     ccc:	06400793          	li	a5,100
     cd0:	02f757b3          	divu	a5,a4,a5
     cd4:	01079713          	slli	a4,a5,0x10
     cd8:	01075713          	srli	a4,a4,0x10
     cdc:	00a00793          	li	a5,10
     ce0:	02f777b3          	remu	a5,a4,a5
     ce4:	01079793          	slli	a5,a5,0x10
     ce8:	0107d793          	srli	a5,a5,0x10
     cec:	0ff7f713          	andi	a4,a5,255
     cf0:	81018793          	addi	a5,gp,-2032 # 10000028 <tube_disp_num>
     cf4:	00e78123          	sb	a4,2(a5)
     cf8:	8161d703          	lhu	a4,-2026(gp) # 1000002e <now_sec>
     cfc:	3e800793          	li	a5,1000
     d00:	02f757b3          	divu	a5,a4,a5
     d04:	01079713          	slli	a4,a5,0x10
     d08:	01075713          	srli	a4,a4,0x10
     d0c:	00a00793          	li	a5,10
     d10:	02f777b3          	remu	a5,a4,a5
     d14:	01079793          	slli	a5,a5,0x10
     d18:	0107d793          	srli	a5,a5,0x10
     d1c:	0ff7f713          	andi	a4,a5,255
     d20:	81018793          	addi	a5,gp,-2032 # 10000028 <tube_disp_num>
     d24:	00e781a3          	sb	a4,3(a5)
     d28:	80d1c783          	lbu	a5,-2035(gp) # 10000025 <flow_led_style_sel>
     d2c:	00078c63          	beqz	a5,d44 <main+0x254>
     d30:	80c1c783          	lbu	a5,-2036(gp) # 10000024 <flow_led_id>
     d34:	00078713          	mv	a4,a5
     d38:	00800793          	li	a5,8
     d3c:	40e787b3          	sub	a5,a5,a4
     d40:	0080006f          	j	d48 <main+0x258>
     d44:	80c1c783          	lbu	a5,-2036(gp) # 10000024 <flow_led_id>
     d48:	10000737          	lui	a4,0x10000
     d4c:	00070713          	mv	a4,a4
     d50:	00e787b3          	add	a5,a5,a4
     d54:	0007c783          	lbu	a5,0(a5)
     d58:	00078613          	mv	a2,a5
     d5c:	0ff00593          	li	a1,255
     d60:	100007b7          	lui	a5,0x10000
     d64:	01878513          	addi	a0,a5,24 # 10000018 <__bss_start>
     d68:	370000ef          	jal	ra,10d8 <apb_gpio_write_pin>
     d6c:	80c1c703          	lbu	a4,-2036(gp) # 10000024 <flow_led_id>
     d70:	00800793          	li	a5,8
     d74:	00f71663          	bne	a4,a5,d80 <main+0x290>
     d78:	80018623          	sb	zero,-2036(gp) # 10000024 <flow_led_id>
     d7c:	0140006f          	j	d90 <main+0x2a0>
     d80:	80c1c783          	lbu	a5,-2036(gp) # 10000024 <flow_led_id>
     d84:	00178793          	addi	a5,a5,1
     d88:	0ff7f713          	andi	a4,a5,255
     d8c:	80e18623          	sb	a4,-2036(gp) # 10000024 <flow_led_id>
     d90:	80019723          	sh	zero,-2034(gp) # 10000026 <flow_led_div_cnt>
     d94:	80018c23          	sb	zero,-2024(gp) # 10000030 <timer0_period_elapsed>
     d98:	e65ff06f          	j	bfc <main+0x10c>

00000d9c <_init>:
     d9c:	ff010113          	addi	sp,sp,-16
     da0:	00812623          	sw	s0,12(sp)
     da4:	01010413          	addi	s0,sp,16
     da8:	000017b7          	lui	a5,0x1
     dac:	86878793          	addi	a5,a5,-1944 # 868 <trap_entry>
     db0:	30579073          	csrw	mtvec,a5
     db4:	000027b7          	lui	a5,0x2
     db8:	88878793          	addi	a5,a5,-1912 # 1888 <_data_lma+0x4d8>
     dbc:	30079073          	csrw	mstatus,a5
     dc0:	00000013          	nop
     dc4:	00c12403          	lw	s0,12(sp)
     dc8:	01010113          	addi	sp,sp,16
     dcc:	00008067          	ret

00000dd0 <trap_handler>:
     dd0:	fe010113          	addi	sp,sp,-32
     dd4:	00112e23          	sw	ra,28(sp)
     dd8:	00812c23          	sw	s0,24(sp)
     ddc:	02010413          	addi	s0,sp,32
     de0:	fea42623          	sw	a0,-20(s0)
     de4:	feb42423          	sw	a1,-24(s0)
     de8:	fec42703          	lw	a4,-20(s0)
     dec:	800007b7          	lui	a5,0x80000
     df0:	00778793          	addi	a5,a5,7 # 80000007 <__freertos_irq_stack_top+0x6fff8007>
     df4:	02f70863          	beq	a4,a5,e24 <trap_handler+0x54>
     df8:	fec42703          	lw	a4,-20(s0)
     dfc:	800007b7          	lui	a5,0x80000
     e00:	00b78793          	addi	a5,a5,11 # 8000000b <__freertos_irq_stack_top+0x6fff800b>
     e04:	02f70663          	beq	a4,a5,e30 <trap_handler+0x60>
     e08:	fec42703          	lw	a4,-20(s0)
     e0c:	800007b7          	lui	a5,0x80000
     e10:	00378793          	addi	a5,a5,3 # 80000003 <__freertos_irq_stack_top+0x6fff8003>
     e14:	02f71263          	bne	a4,a5,e38 <trap_handler+0x68>
     e18:	00000097          	auipc	ra,0x0
     e1c:	000000e7          	jalr	zero # 0 <_start-0x800>
     e20:	01c0006f          	j	e3c <trap_handler+0x6c>
     e24:	00000097          	auipc	ra,0x0
     e28:	000000e7          	jalr	zero # 0 <_start-0x800>
     e2c:	0100006f          	j	e3c <trap_handler+0x6c>
     e30:	b61ff0ef          	jal	ra,990 <ext_irq_handler>
     e34:	0080006f          	j	e3c <trap_handler+0x6c>
     e38:	00000013          	nop
     e3c:	00000013          	nop
     e40:	01c12083          	lw	ra,28(sp)
     e44:	01812403          	lw	s0,24(sp)
     e48:	02010113          	addi	sp,sp,32
     e4c:	00008067          	ret

00000e50 <serr_handler>:
     e50:	fe010113          	addi	sp,sp,-32
     e54:	00812e23          	sw	s0,28(sp)
     e58:	02010413          	addi	s0,sp,32
     e5c:	fea42623          	sw	a0,-20(s0)
     e60:	feb42423          	sw	a1,-24(s0)
     e64:	0000006f          	j	e64 <serr_handler+0x14>

00000e68 <plic_init>:
     e68:	fe010113          	addi	sp,sp,-32
     e6c:	00812e23          	sw	s0,28(sp)
     e70:	02010413          	addi	s0,sp,32
     e74:	fea42623          	sw	a0,-20(s0)
     e78:	feb42423          	sw	a1,-24(s0)
     e7c:	fec42783          	lw	a5,-20(s0)
     e80:	fe842703          	lw	a4,-24(s0)
     e84:	00e7a023          	sw	a4,0(a5)
     e88:	00000013          	nop
     e8c:	01c12403          	lw	s0,28(sp)
     e90:	02010113          	addi	sp,sp,32
     e94:	00008067          	ret

00000e98 <plic_set_threshold>:
     e98:	fd010113          	addi	sp,sp,-48
     e9c:	02812623          	sw	s0,44(sp)
     ea0:	03010413          	addi	s0,sp,48
     ea4:	fca42e23          	sw	a0,-36(s0)
     ea8:	fcb42c23          	sw	a1,-40(s0)
     eac:	f14027f3          	csrr	a5,mhartid
     eb0:	fef42623          	sw	a5,-20(s0)
     eb4:	fec42783          	lw	a5,-20(s0)
     eb8:	fef42423          	sw	a5,-24(s0)
     ebc:	fdc42783          	lw	a5,-36(s0)
     ec0:	0007a703          	lw	a4,0(a5)
     ec4:	fe842783          	lw	a5,-24(s0)
     ec8:	00c79793          	slli	a5,a5,0xc
     ecc:	00f70733          	add	a4,a4,a5
     ed0:	002007b7          	lui	a5,0x200
     ed4:	00f707b3          	add	a5,a4,a5
     ed8:	fef42223          	sw	a5,-28(s0)
     edc:	fe442783          	lw	a5,-28(s0)
     ee0:	fd842703          	lw	a4,-40(s0)
     ee4:	00e7a023          	sw	a4,0(a5) # 200000 <__stack_size+0x1fe000>
     ee8:	00000013          	nop
     eec:	02c12403          	lw	s0,44(sp)
     ef0:	03010113          	addi	sp,sp,48
     ef4:	00008067          	ret

00000ef8 <plic_enable_interrupt>:
     ef8:	fd010113          	addi	sp,sp,-48
     efc:	02812623          	sw	s0,44(sp)
     f00:	03010413          	addi	s0,sp,48
     f04:	fca42e23          	sw	a0,-36(s0)
     f08:	fcb42c23          	sw	a1,-40(s0)
     f0c:	f14027f3          	csrr	a5,mhartid
     f10:	fef42623          	sw	a5,-20(s0)
     f14:	fec42783          	lw	a5,-20(s0)
     f18:	fef42423          	sw	a5,-24(s0)
     f1c:	fdc42783          	lw	a5,-36(s0)
     f20:	0007a703          	lw	a4,0(a5)
     f24:	fe842783          	lw	a5,-24(s0)
     f28:	00779793          	slli	a5,a5,0x7
     f2c:	00f70733          	add	a4,a4,a5
     f30:	fd842783          	lw	a5,-40(s0)
     f34:	0037d793          	srli	a5,a5,0x3
     f38:	00f70733          	add	a4,a4,a5
     f3c:	000027b7          	lui	a5,0x2
     f40:	00f707b3          	add	a5,a4,a5
     f44:	fef42223          	sw	a5,-28(s0)
     f48:	fe442783          	lw	a5,-28(s0)
     f4c:	0007c783          	lbu	a5,0(a5) # 2000 <__stack_size>
     f50:	fef401a3          	sb	a5,-29(s0)
     f54:	fd842783          	lw	a5,-40(s0)
     f58:	0077f793          	andi	a5,a5,7
     f5c:	00100713          	li	a4,1
     f60:	00f717b3          	sll	a5,a4,a5
     f64:	01879713          	slli	a4,a5,0x18
     f68:	41875713          	srai	a4,a4,0x18
     f6c:	fe340783          	lb	a5,-29(s0)
     f70:	00f767b3          	or	a5,a4,a5
     f74:	01879793          	slli	a5,a5,0x18
     f78:	4187d793          	srai	a5,a5,0x18
     f7c:	fef401a3          	sb	a5,-29(s0)
     f80:	fe442783          	lw	a5,-28(s0)
     f84:	fe344703          	lbu	a4,-29(s0)
     f88:	00e78023          	sb	a4,0(a5)
     f8c:	00000013          	nop
     f90:	02c12403          	lw	s0,44(sp)
     f94:	03010113          	addi	sp,sp,48
     f98:	00008067          	ret

00000f9c <plic_set_priority>:
     f9c:	fd010113          	addi	sp,sp,-48
     fa0:	02812623          	sw	s0,44(sp)
     fa4:	03010413          	addi	s0,sp,48
     fa8:	fca42e23          	sw	a0,-36(s0)
     fac:	fcb42c23          	sw	a1,-40(s0)
     fb0:	fcc42a23          	sw	a2,-44(s0)
     fb4:	fdc42783          	lw	a5,-36(s0)
     fb8:	0007a703          	lw	a4,0(a5)
     fbc:	fd842783          	lw	a5,-40(s0)
     fc0:	00279793          	slli	a5,a5,0x2
     fc4:	00f707b3          	add	a5,a4,a5
     fc8:	fef42623          	sw	a5,-20(s0)
     fcc:	fec42783          	lw	a5,-20(s0)
     fd0:	fd442703          	lw	a4,-44(s0)
     fd4:	00e7a023          	sw	a4,0(a5)
     fd8:	00000013          	nop
     fdc:	02c12403          	lw	s0,44(sp)
     fe0:	03010113          	addi	sp,sp,48
     fe4:	00008067          	ret

00000fe8 <plic_claim_interrupt>:
     fe8:	fd010113          	addi	sp,sp,-48
     fec:	02812623          	sw	s0,44(sp)
     ff0:	03010413          	addi	s0,sp,48
     ff4:	fca42e23          	sw	a0,-36(s0)
     ff8:	f14027f3          	csrr	a5,mhartid
     ffc:	fef42623          	sw	a5,-20(s0)
    1000:	fec42783          	lw	a5,-20(s0)
    1004:	fef42423          	sw	a5,-24(s0)
    1008:	fdc42783          	lw	a5,-36(s0)
    100c:	0007a703          	lw	a4,0(a5)
    1010:	fe842783          	lw	a5,-24(s0)
    1014:	00c79793          	slli	a5,a5,0xc
    1018:	00f70733          	add	a4,a4,a5
    101c:	002007b7          	lui	a5,0x200
    1020:	00478793          	addi	a5,a5,4 # 200004 <__stack_size+0x1fe004>
    1024:	00f707b3          	add	a5,a4,a5
    1028:	fef42223          	sw	a5,-28(s0)
    102c:	fe442783          	lw	a5,-28(s0)
    1030:	0007a783          	lw	a5,0(a5)
    1034:	00078513          	mv	a0,a5
    1038:	02c12403          	lw	s0,44(sp)
    103c:	03010113          	addi	sp,sp,48
    1040:	00008067          	ret

00001044 <plic_complete_interrupt>:
    1044:	fd010113          	addi	sp,sp,-48
    1048:	02812623          	sw	s0,44(sp)
    104c:	03010413          	addi	s0,sp,48
    1050:	fca42e23          	sw	a0,-36(s0)
    1054:	fcb42c23          	sw	a1,-40(s0)
    1058:	f14027f3          	csrr	a5,mhartid
    105c:	fef42623          	sw	a5,-20(s0)
    1060:	fec42783          	lw	a5,-20(s0)
    1064:	fef42423          	sw	a5,-24(s0)
    1068:	fdc42783          	lw	a5,-36(s0)
    106c:	0007a703          	lw	a4,0(a5)
    1070:	fe842783          	lw	a5,-24(s0)
    1074:	00c79793          	slli	a5,a5,0xc
    1078:	00f70733          	add	a4,a4,a5
    107c:	002007b7          	lui	a5,0x200
    1080:	00478793          	addi	a5,a5,4 # 200004 <__stack_size+0x1fe004>
    1084:	00f707b3          	add	a5,a4,a5
    1088:	fef42223          	sw	a5,-28(s0)
    108c:	fe442783          	lw	a5,-28(s0)
    1090:	fd842703          	lw	a4,-40(s0)
    1094:	00e7a023          	sw	a4,0(a5)
    1098:	00000013          	nop
    109c:	02c12403          	lw	s0,44(sp)
    10a0:	03010113          	addi	sp,sp,48
    10a4:	00008067          	ret

000010a8 <apb_gpio_init>:
    10a8:	fe010113          	addi	sp,sp,-32
    10ac:	00812e23          	sw	s0,28(sp)
    10b0:	02010413          	addi	s0,sp,32
    10b4:	fea42623          	sw	a0,-20(s0)
    10b8:	feb42423          	sw	a1,-24(s0)
    10bc:	fe842703          	lw	a4,-24(s0)
    10c0:	fec42783          	lw	a5,-20(s0)
    10c4:	00e7a023          	sw	a4,0(a5)
    10c8:	00000013          	nop
    10cc:	01c12403          	lw	s0,28(sp)
    10d0:	02010113          	addi	sp,sp,32
    10d4:	00008067          	ret

000010d8 <apb_gpio_write_pin>:
    10d8:	fe010113          	addi	sp,sp,-32
    10dc:	00812e23          	sw	s0,28(sp)
    10e0:	02010413          	addi	s0,sp,32
    10e4:	fea42623          	sw	a0,-20(s0)
    10e8:	feb42423          	sw	a1,-24(s0)
    10ec:	fec42223          	sw	a2,-28(s0)
    10f0:	fec42783          	lw	a5,-20(s0)
    10f4:	0007a783          	lw	a5,0(a5)
    10f8:	fe842703          	lw	a4,-24(s0)
    10fc:	00e7a223          	sw	a4,4(a5)
    1100:	fec42783          	lw	a5,-20(s0)
    1104:	0007a783          	lw	a5,0(a5)
    1108:	fe442703          	lw	a4,-28(s0)
    110c:	00e7a023          	sw	a4,0(a5)
    1110:	00000013          	nop
    1114:	01c12403          	lw	s0,28(sp)
    1118:	02010113          	addi	sp,sp,32
    111c:	00008067          	ret

00001120 <apb_gpio_read_pin>:
    1120:	fe010113          	addi	sp,sp,-32
    1124:	00812e23          	sw	s0,28(sp)
    1128:	02010413          	addi	s0,sp,32
    112c:	fea42623          	sw	a0,-20(s0)
    1130:	fec42783          	lw	a5,-20(s0)
    1134:	0007a783          	lw	a5,0(a5)
    1138:	00c7a783          	lw	a5,12(a5)
    113c:	00078513          	mv	a0,a5
    1140:	01c12403          	lw	s0,28(sp)
    1144:	02010113          	addi	sp,sp,32
    1148:	00008067          	ret

0000114c <apb_gpio_set_direction>:
    114c:	fe010113          	addi	sp,sp,-32
    1150:	00812e23          	sw	s0,28(sp)
    1154:	02010413          	addi	s0,sp,32
    1158:	fea42623          	sw	a0,-20(s0)
    115c:	feb42423          	sw	a1,-24(s0)
    1160:	fec42783          	lw	a5,-20(s0)
    1164:	fe842703          	lw	a4,-24(s0)
    1168:	00e7a223          	sw	a4,4(a5)
    116c:	fec42783          	lw	a5,-20(s0)
    1170:	0007a783          	lw	a5,0(a5)
    1174:	fe842703          	lw	a4,-24(s0)
    1178:	00e7a423          	sw	a4,8(a5)
    117c:	00000013          	nop
    1180:	01c12403          	lw	s0,28(sp)
    1184:	02010113          	addi	sp,sp,32
    1188:	00008067          	ret

0000118c <init_apb_timer>:
    118c:	fd010113          	addi	sp,sp,-48
    1190:	02812623          	sw	s0,44(sp)
    1194:	03010413          	addi	s0,sp,48
    1198:	fca42e23          	sw	a0,-36(s0)
    119c:	fcb42c23          	sw	a1,-40(s0)
    11a0:	fcc42a23          	sw	a2,-44(s0)
    11a4:	fd842703          	lw	a4,-40(s0)
    11a8:	fdc42783          	lw	a5,-36(s0)
    11ac:	00e7a023          	sw	a4,0(a5)
    11b0:	fd442783          	lw	a5,-44(s0)
    11b4:	0047a703          	lw	a4,4(a5)
    11b8:	fdc42783          	lw	a5,-36(s0)
    11bc:	00e7a223          	sw	a4,4(a5)
    11c0:	fd442783          	lw	a5,-44(s0)
    11c4:	0087a703          	lw	a4,8(a5)
    11c8:	fdc42783          	lw	a5,-36(s0)
    11cc:	00e7a423          	sw	a4,8(a5)
    11d0:	fd442783          	lw	a5,-44(s0)
    11d4:	0007c703          	lbu	a4,0(a5)
    11d8:	fdc42783          	lw	a5,-36(s0)
    11dc:	00e78623          	sb	a4,12(a5)
    11e0:	fd442783          	lw	a5,-44(s0)
    11e4:	0017c703          	lbu	a4,1(a5)
    11e8:	fdc42783          	lw	a5,-36(s0)
    11ec:	00e786a3          	sb	a4,13(a5)
    11f0:	fdc42783          	lw	a5,-36(s0)
    11f4:	0007a783          	lw	a5,0(a5)
    11f8:	fd442703          	lw	a4,-44(s0)
    11fc:	00472703          	lw	a4,4(a4) # 10000004 <_data+0x4>
    1200:	00e7a023          	sw	a4,0(a5)
    1204:	fdc42783          	lw	a5,-36(s0)
    1208:	0007a783          	lw	a5,0(a5)
    120c:	fd442703          	lw	a4,-44(s0)
    1210:	00872703          	lw	a4,8(a4)
    1214:	00e7a223          	sw	a4,4(a5)
    1218:	fdc42783          	lw	a5,-36(s0)
    121c:	0007a783          	lw	a5,0(a5)
    1220:	fd442703          	lw	a4,-44(s0)
    1224:	00472703          	lw	a4,4(a4)
    1228:	00e7a423          	sw	a4,8(a5)
    122c:	fd442783          	lw	a5,-44(s0)
    1230:	0007c783          	lbu	a5,0(a5)
    1234:	00078713          	mv	a4,a5
    1238:	fdc42783          	lw	a5,-36(s0)
    123c:	0007a783          	lw	a5,0(a5)
    1240:	00871713          	slli	a4,a4,0x8
    1244:	00e7a623          	sw	a4,12(a5)
    1248:	fe0407a3          	sb	zero,-17(s0)
    124c:	0a80006f          	j	12f4 <init_apb_timer+0x168>
    1250:	fd442783          	lw	a5,-44(s0)
    1254:	0007c783          	lbu	a5,0(a5)
    1258:	00078713          	mv	a4,a5
    125c:	fef44783          	lbu	a5,-17(s0)
    1260:	40f757b3          	sra	a5,a4,a5
    1264:	0017f793          	andi	a5,a5,1
    1268:	04079863          	bnez	a5,12b8 <init_apb_timer+0x12c>
    126c:	fef44783          	lbu	a5,-17(s0)
    1270:	fd442703          	lw	a4,-44(s0)
    1274:	00f707b3          	add	a5,a4,a5
    1278:	0207c783          	lbu	a5,32(a5)
    127c:	00078613          	mv	a2,a5
    1280:	fef44783          	lbu	a5,-17(s0)
    1284:	fd442703          	lw	a4,-44(s0)
    1288:	00f707b3          	add	a5,a4,a5
    128c:	01c7c783          	lbu	a5,28(a5)
    1290:	00879713          	slli	a4,a5,0x8
    1294:	fdc42783          	lw	a5,-36(s0)
    1298:	0007a683          	lw	a3,0(a5)
    129c:	fef44783          	lbu	a5,-17(s0)
    12a0:	00e66733          	or	a4,a2,a4
    12a4:	00278793          	addi	a5,a5,2
    12a8:	00379793          	slli	a5,a5,0x3
    12ac:	00f687b3          	add	a5,a3,a5
    12b0:	00e7a623          	sw	a4,12(a5)
    12b4:	0340006f          	j	12e8 <init_apb_timer+0x15c>
    12b8:	fef44783          	lbu	a5,-17(s0)
    12bc:	fdc42703          	lw	a4,-36(s0)
    12c0:	00072683          	lw	a3,0(a4)
    12c4:	fef44603          	lbu	a2,-17(s0)
    12c8:	fd442703          	lw	a4,-44(s0)
    12cc:	00279793          	slli	a5,a5,0x2
    12d0:	00f707b3          	add	a5,a4,a5
    12d4:	00c7a703          	lw	a4,12(a5)
    12d8:	00260793          	addi	a5,a2,2
    12dc:	00379793          	slli	a5,a5,0x3
    12e0:	00f687b3          	add	a5,a3,a5
    12e4:	00e7a423          	sw	a4,8(a5)
    12e8:	fef44783          	lbu	a5,-17(s0)
    12ec:	00178793          	addi	a5,a5,1
    12f0:	fef407a3          	sb	a5,-17(s0)
    12f4:	fef44703          	lbu	a4,-17(s0)
    12f8:	00300793          	li	a5,3
    12fc:	f4e7fae3          	bgeu	a5,a4,1250 <init_apb_timer+0xc4>
    1300:	00000013          	nop
    1304:	02c12403          	lw	s0,44(sp)
    1308:	03010113          	addi	sp,sp,48
    130c:	00008067          	ret

00001310 <apb_timer_enable_itr>:
    1310:	fe010113          	addi	sp,sp,-32
    1314:	00812e23          	sw	s0,28(sp)
    1318:	02010413          	addi	s0,sp,32
    131c:	fea42623          	sw	a0,-20(s0)
    1320:	00058793          	mv	a5,a1
    1324:	fef405a3          	sb	a5,-21(s0)
    1328:	feb44783          	lbu	a5,-21(s0)
    132c:	00879713          	slli	a4,a5,0x8
    1330:	fec42783          	lw	a5,-20(s0)
    1334:	0007a783          	lw	a5,0(a5)
    1338:	00176713          	ori	a4,a4,1
    133c:	00e7a823          	sw	a4,16(a5)
    1340:	00000013          	nop
    1344:	01c12403          	lw	s0,28(sp)
    1348:	02010113          	addi	sp,sp,32
    134c:	00008067          	ret

00001350 <apb_timer_get_itr_status>:
    1350:	fe010113          	addi	sp,sp,-32
    1354:	00812e23          	sw	s0,28(sp)
    1358:	02010413          	addi	s0,sp,32
    135c:	fea42623          	sw	a0,-20(s0)
    1360:	fec42783          	lw	a5,-20(s0)
    1364:	0007a783          	lw	a5,0(a5)
    1368:	0147a783          	lw	a5,20(a5)
    136c:	0087d793          	srli	a5,a5,0x8
    1370:	0ff7f793          	andi	a5,a5,255
    1374:	00078513          	mv	a0,a5
    1378:	01c12403          	lw	s0,28(sp)
    137c:	02010113          	addi	sp,sp,32
    1380:	00008067          	ret

00001384 <apb_timer_clear_itr_flag>:
    1384:	fe010113          	addi	sp,sp,-32
    1388:	00812e23          	sw	s0,28(sp)
    138c:	02010413          	addi	s0,sp,32
    1390:	fea42623          	sw	a0,-20(s0)
    1394:	fec42783          	lw	a5,-20(s0)
    1398:	0007a783          	lw	a5,0(a5)
    139c:	0007aa23          	sw	zero,20(a5)
    13a0:	00000013          	nop
    13a4:	01c12403          	lw	s0,28(sp)
    13a8:	02010113          	addi	sp,sp,32
    13ac:	00008067          	ret

Disassembly of section .data:

10000000 <flow_led_out_value>:
10000000:	4080                	lw	s0,0(s1)
10000002:	1020                	addi	s0,sp,40
10000004:	0408                	addi	a0,sp,512
10000006:	0102                	c.slli64	sp
10000008:	0000                	unimp
	...

1000000c <tube_seg_code>:
1000000c:	4f5b063f 077d6d66 	0x77d6d664f5b063f
10000014:	6f7f                	0x6f7f
	...

Disassembly of section .bss:

10000018 <__bss_start>:
	...

10000020 <plic>:
10000020:	0000                	unimp
	...

10000024 <flow_led_id>:
	...

10000025 <flow_led_style_sel>:
	...

10000026 <flow_led_div_cnt>:
	...

10000028 <tube_disp_num>:
10000028:	0000                	unimp
	...

1000002c <tube_dig_sel>:
	...

1000002e <now_sec>:
	...

10000030 <timer0_period_elapsed>:
10000030:	0000                	unimp
	...

10000034 <timer0>:
	...

Disassembly of section .stack:

10006000 <__freertos_irq_stack_top-0x2000>:
	...

Disassembly of section .debug_line:

00000000 <.debug_line>:
       0:	00ac                	addi	a1,sp,72
       2:	0000                	unimp
       4:	00240003          	lb	zero,2(s0)
       8:	0000                	unimp
       a:	0101                	addi	sp,sp,0
       c:	000d0efb          	0xd0efb
      10:	0101                	addi	sp,sp,0
      12:	0101                	addi	sp,sp,0
      14:	0000                	unimp
      16:	0100                	addi	s0,sp,128
      18:	0000                	unimp
      1a:	2e01                	jal	32a <_start-0x4d6>
      1c:	2f2e                	fld	ft10,200(sp)
      1e:	2e2e                	fld	ft8,200(sp)
      20:	0000                	unimp
      22:	72617473          	csrrci	s0,0x726,2
      26:	2e74                	fld	fa3,216(a2)
      28:	00010053          	fadd.s	ft0,ft2,ft0,rne
      2c:	0000                	unimp
      2e:	0500                	addi	s0,sp,640
      30:	0002                	c.slli64	zero
      32:	0008                	0x8
      34:	0300                	addi	s0,sp,384
      36:	0109                	addi	sp,sp,2
      38:	08090203          	lb	tp,128(s2)
      3c:	0100                	addi	s0,sp,128
      3e:	08090303          	lb	t1,128(s2)
      42:	0100                	addi	s0,sp,128
      44:	08090103          	lb	sp,128(s2)
      48:	0100                	addi	s0,sp,128
      4a:	08090103          	lb	sp,128(s2)
      4e:	0100                	addi	s0,sp,128
      50:	08090103          	lb	sp,128(s2)
      54:	0100                	addi	s0,sp,128
      56:	04090203          	lb	tp,64(s2)
      5a:	0100                	addi	s0,sp,128
      5c:	04090103          	lb	sp,64(s2)
      60:	0100                	addi	s0,sp,128
      62:	04090103          	lb	sp,64(s2)
      66:	0100                	addi	s0,sp,128
      68:	04090103          	lb	sp,64(s2)
      6c:	0100                	addi	s0,sp,128
      6e:	04090103          	lb	sp,64(s2)
      72:	0100                	addi	s0,sp,128
      74:	04090403          	lb	s0,64(s2)
      78:	0100                	addi	s0,sp,128
      7a:	08090103          	lb	sp,128(s2)
      7e:	0100                	addi	s0,sp,128
      80:	04090103          	lb	sp,64(s2)
      84:	0100                	addi	s0,sp,128
      86:	04090203          	lb	tp,64(s2)
      8a:	0100                	addi	s0,sp,128
      8c:	04090103          	lb	sp,64(s2)
      90:	0100                	addi	s0,sp,128
      92:	04090103          	lb	sp,64(s2)
      96:	0100                	addi	s0,sp,128
      98:	04090303          	lb	t1,64(s2)
      9c:	0100                	addi	s0,sp,128
      9e:	04090103          	lb	sp,64(s2)
      a2:	0100                	addi	s0,sp,128
      a4:	04090303          	lb	t1,64(s2)
      a8:	0100                	addi	s0,sp,128
      aa:	0409                	addi	s0,s0,2
      ac:	0000                	unimp
      ae:	0101                	addi	sp,sp,0
      b0:	000001f3          	0x1f3
      b4:	00290003          	lb	zero,2(s2)
      b8:	0000                	unimp
      ba:	0101                	addi	sp,sp,0
      bc:	000d0efb          	0xd0efb
      c0:	0101                	addi	sp,sp,0
      c2:	0101                	addi	sp,sp,0
      c4:	0000                	unimp
      c6:	0100                	addi	s0,sp,128
      c8:	0000                	unimp
      ca:	2e01                	jal	3da <_start-0x426>
      cc:	2f2e                	fld	ft10,200(sp)
      ce:	2e2e                	fld	ft8,200(sp)
      d0:	0000                	unimp
      d2:	7274                	flw	fa3,100(a2)
      d4:	7061                	c.lui	zero,0xffff8
      d6:	655f 746e 7972      	0x7972746e655f
      dc:	532e                	lw	t1,232(sp)
      de:	0100                	addi	s0,sp,128
      e0:	0000                	unimp
      e2:	0000                	unimp
      e4:	0205                	addi	tp,tp,1
      e6:	0868                	addi	a0,sp,28
      e8:	0000                	unimp
      ea:	0318                	addi	a4,sp,384
      ec:	0902                	c.slli64	s2
      ee:	0004                	0x4
      f0:	0301                	addi	t1,t1,0
      f2:	0901                	addi	s2,s2,0
      f4:	0004                	0x4
      f6:	0301                	addi	t1,t1,0
      f8:	0901                	addi	s2,s2,0
      fa:	0004                	0x4
      fc:	0301                	addi	t1,t1,0
      fe:	0901                	addi	s2,s2,0
     100:	0004                	0x4
     102:	0301                	addi	t1,t1,0
     104:	0901                	addi	s2,s2,0
     106:	0004                	0x4
     108:	0301                	addi	t1,t1,0
     10a:	0901                	addi	s2,s2,0
     10c:	0004                	0x4
     10e:	0301                	addi	t1,t1,0
     110:	0901                	addi	s2,s2,0
     112:	0004                	0x4
     114:	0301                	addi	t1,t1,0
     116:	0901                	addi	s2,s2,0
     118:	0004                	0x4
     11a:	0301                	addi	t1,t1,0
     11c:	0901                	addi	s2,s2,0
     11e:	0004                	0x4
     120:	0301                	addi	t1,t1,0
     122:	0901                	addi	s2,s2,0
     124:	0004                	0x4
     126:	0301                	addi	t1,t1,0
     128:	0901                	addi	s2,s2,0
     12a:	0004                	0x4
     12c:	0301                	addi	t1,t1,0
     12e:	0901                	addi	s2,s2,0
     130:	0004                	0x4
     132:	0301                	addi	t1,t1,0
     134:	0901                	addi	s2,s2,0
     136:	0004                	0x4
     138:	0301                	addi	t1,t1,0
     13a:	0901                	addi	s2,s2,0
     13c:	0004                	0x4
     13e:	0301                	addi	t1,t1,0
     140:	0901                	addi	s2,s2,0
     142:	0004                	0x4
     144:	0301                	addi	t1,t1,0
     146:	0901                	addi	s2,s2,0
     148:	0004                	0x4
     14a:	0301                	addi	t1,t1,0
     14c:	0901                	addi	s2,s2,0
     14e:	0004                	0x4
     150:	0301                	addi	t1,t1,0
     152:	0901                	addi	s2,s2,0
     154:	0004                	0x4
     156:	0301                	addi	t1,t1,0
     158:	0901                	addi	s2,s2,0
     15a:	0004                	0x4
     15c:	0301                	addi	t1,t1,0
     15e:	0901                	addi	s2,s2,0
     160:	0004                	0x4
     162:	0301                	addi	t1,t1,0
     164:	0901                	addi	s2,s2,0
     166:	0004                	0x4
     168:	0301                	addi	t1,t1,0
     16a:	0901                	addi	s2,s2,0
     16c:	0004                	0x4
     16e:	0301                	addi	t1,t1,0
     170:	0901                	addi	s2,s2,0
     172:	0004                	0x4
     174:	0301                	addi	t1,t1,0
     176:	0901                	addi	s2,s2,0
     178:	0004                	0x4
     17a:	0301                	addi	t1,t1,0
     17c:	0901                	addi	s2,s2,0
     17e:	0004                	0x4
     180:	0301                	addi	t1,t1,0
     182:	0901                	addi	s2,s2,0
     184:	0004                	0x4
     186:	0301                	addi	t1,t1,0
     188:	0901                	addi	s2,s2,0
     18a:	0004                	0x4
     18c:	0301                	addi	t1,t1,0
     18e:	0901                	addi	s2,s2,0
     190:	0004                	0x4
     192:	0301                	addi	t1,t1,0
     194:	0901                	addi	s2,s2,0
     196:	0004                	0x4
     198:	0301                	addi	t1,t1,0
     19a:	0901                	addi	s2,s2,0
     19c:	0004                	0x4
     19e:	0301                	addi	t1,t1,0
     1a0:	0901                	addi	s2,s2,0
     1a2:	0004                	0x4
     1a4:	0301                	addi	t1,t1,0
     1a6:	0902                	c.slli64	s2
     1a8:	0004                	0x4
     1aa:	0301                	addi	t1,t1,0
     1ac:	0901                	addi	s2,s2,0
     1ae:	0004                	0x4
     1b0:	0301                	addi	t1,t1,0
     1b2:	0902                	c.slli64	s2
     1b4:	0004                	0x4
     1b6:	0301                	addi	t1,t1,0
     1b8:	0901                	addi	s2,s2,0
     1ba:	0004                	0x4
     1bc:	0301                	addi	t1,t1,0
     1be:	0902                	c.slli64	s2
     1c0:	0004                	0x4
     1c2:	0301                	addi	t1,t1,0
     1c4:	0901                	addi	s2,s2,0
     1c6:	0004                	0x4
     1c8:	0301                	addi	t1,t1,0
     1ca:	00040903          	lb	s2,0(s0)
     1ce:	0301                	addi	t1,t1,0
     1d0:	00040903          	lb	s2,0(s0)
     1d4:	0301                	addi	t1,t1,0
     1d6:	0901                	addi	s2,s2,0
     1d8:	0004                	0x4
     1da:	0301                	addi	t1,t1,0
     1dc:	0901                	addi	s2,s2,0
     1de:	0004                	0x4
     1e0:	0301                	addi	t1,t1,0
     1e2:	0901                	addi	s2,s2,0
     1e4:	0004                	0x4
     1e6:	0301                	addi	t1,t1,0
     1e8:	0901                	addi	s2,s2,0
     1ea:	0004                	0x4
     1ec:	0301                	addi	t1,t1,0
     1ee:	0901                	addi	s2,s2,0
     1f0:	0004                	0x4
     1f2:	0301                	addi	t1,t1,0
     1f4:	0901                	addi	s2,s2,0
     1f6:	0004                	0x4
     1f8:	0301                	addi	t1,t1,0
     1fa:	0901                	addi	s2,s2,0
     1fc:	0004                	0x4
     1fe:	0301                	addi	t1,t1,0
     200:	0901                	addi	s2,s2,0
     202:	0004                	0x4
     204:	0301                	addi	t1,t1,0
     206:	0901                	addi	s2,s2,0
     208:	0004                	0x4
     20a:	0301                	addi	t1,t1,0
     20c:	0901                	addi	s2,s2,0
     20e:	0004                	0x4
     210:	0301                	addi	t1,t1,0
     212:	0901                	addi	s2,s2,0
     214:	0004                	0x4
     216:	0301                	addi	t1,t1,0
     218:	0901                	addi	s2,s2,0
     21a:	0004                	0x4
     21c:	0301                	addi	t1,t1,0
     21e:	0901                	addi	s2,s2,0
     220:	0004                	0x4
     222:	0301                	addi	t1,t1,0
     224:	0901                	addi	s2,s2,0
     226:	0004                	0x4
     228:	0301                	addi	t1,t1,0
     22a:	0901                	addi	s2,s2,0
     22c:	0004                	0x4
     22e:	0301                	addi	t1,t1,0
     230:	0901                	addi	s2,s2,0
     232:	0004                	0x4
     234:	0301                	addi	t1,t1,0
     236:	0901                	addi	s2,s2,0
     238:	0004                	0x4
     23a:	0301                	addi	t1,t1,0
     23c:	0901                	addi	s2,s2,0
     23e:	0004                	0x4
     240:	0301                	addi	t1,t1,0
     242:	0901                	addi	s2,s2,0
     244:	0004                	0x4
     246:	0301                	addi	t1,t1,0
     248:	0901                	addi	s2,s2,0
     24a:	0004                	0x4
     24c:	0301                	addi	t1,t1,0
     24e:	0901                	addi	s2,s2,0
     250:	0004                	0x4
     252:	0301                	addi	t1,t1,0
     254:	0901                	addi	s2,s2,0
     256:	0004                	0x4
     258:	0301                	addi	t1,t1,0
     25a:	0901                	addi	s2,s2,0
     25c:	0004                	0x4
     25e:	0301                	addi	t1,t1,0
     260:	0901                	addi	s2,s2,0
     262:	0004                	0x4
     264:	0301                	addi	t1,t1,0
     266:	0901                	addi	s2,s2,0
     268:	0004                	0x4
     26a:	0301                	addi	t1,t1,0
     26c:	0901                	addi	s2,s2,0
     26e:	0004                	0x4
     270:	0301                	addi	t1,t1,0
     272:	0901                	addi	s2,s2,0
     274:	0004                	0x4
     276:	0301                	addi	t1,t1,0
     278:	0901                	addi	s2,s2,0
     27a:	0004                	0x4
     27c:	0301                	addi	t1,t1,0
     27e:	0901                	addi	s2,s2,0
     280:	0004                	0x4
     282:	0301                	addi	t1,t1,0
     284:	0901                	addi	s2,s2,0
     286:	0004                	0x4
     288:	0301                	addi	t1,t1,0
     28a:	0902                	c.slli64	s2
     28c:	0004                	0x4
     28e:	0301                	addi	t1,t1,0
     290:	0902                	c.slli64	s2
     292:	0004                	0x4
     294:	0301                	addi	t1,t1,0
     296:	0906                	slli	s2,s2,0x1
     298:	0004                	0x4
     29a:	0301                	addi	t1,t1,0
     29c:	0905                	addi	s2,s2,1
     29e:	0004                	0x4
     2a0:	0901                	addi	s2,s2,0
     2a2:	0004                	0x4
     2a4:	0100                	addi	s0,sp,128
     2a6:	3a01                	jal	fffffbb6 <__freertos_irq_stack_top+0xefff7bb6>
     2a8:	0005                	c.nop	1
     2aa:	0300                	addi	s0,sp,384
     2ac:	5b00                	lw	s0,48(a4)
     2ae:	0002                	c.slli64	zero
     2b0:	0100                	addi	s0,sp,128
     2b2:	fb01                	bnez	a4,1c2 <_start-0x63e>
     2b4:	0d0e                	slli	s10,s10,0x3
     2b6:	0100                	addi	s0,sp,128
     2b8:	0101                	addi	sp,sp,0
     2ba:	0001                	nop
     2bc:	0000                	unimp
     2be:	0001                	nop
     2c0:	0100                	addi	s0,sp,128
     2c2:	3a65                	jal	fffffc7a <__freertos_irq_stack_top+0xefff7c7a>
     2c4:	735c                	flw	fa5,36(a4)
     2c6:	6e656963          	bltu	a0,t1,9b8 <ext_irq_handler+0x28>
     2ca:	6974                	flw	fa3,84(a0)
     2cc:	6966                	flw	fs2,88(sp)
     2ce:	65725f63          	bge	tp,s7,92c <asynchronous_return+0x28>
     2d2:	72616573          	csrrsi	a0,0x726,2
     2d6:	725c6863          	bltu	s8,t0,a06 <timer0_itr_handler+0x1a>
     2da:	7369                	lui	t1,0xffffa
     2dc:	5c762d63          	0x5c762d63
     2e0:	a1d0                	fsd	fa2,128(a1)
     2e2:	d6c5                	beqz	a3,28a <_start-0x576>
     2e4:	efb4                	fsw	fa3,88(a5)
     2e6:	6972                	flw	fs2,28(sp)
     2e8:	762d6373          	csrrsi	t1,0x762,26
     2ec:	745c                	flw	fa5,44(s0)
     2ee:	736c6f6f          	jal	t5,c6a24 <__stack_size+0xc4a24>
     2f2:	675c                	flw	fa5,12(a4)
     2f4:	756e                	flw	fa0,248(sp)
     2f6:	6d2d                	lui	s10,0xb
     2f8:	652d7563          	bgeu	s10,s2,942 <asynchronous_return+0x3e>
     2fc:	70696c63          	bltu	s2,t1,a14 <timer0_itr_handler+0x28>
     300:	722d6573          	csrrsi	a0,0x722,26
     304:	7369                	lui	t1,0xffffa
     306:	6e2d7663          	bgeu	s10,sp,9f2 <timer0_itr_handler+0x6>
     30a:	2d656e6f          	jal	t3,565e0 <__stack_size+0x545e0>
     30e:	2d636367          	0x2d636367
     312:	2e38                	fld	fa4,88(a2)
     314:	2e32                	fld	ft8,264(sp)
     316:	2d30                	fld	fa2,88(a0)
     318:	2e32                	fld	ft8,264(sp)
     31a:	2d32                	fld	fs10,264(sp)
     31c:	3032                	fld	ft0,296(sp)
     31e:	3931                	jal	ffffff3a <__freertos_irq_stack_top+0xefff7f3a>
     320:	3530                	fld	fa2,104(a0)
     322:	3132                	fld	ft2,296(sp)
     324:	302d                	jal	fffffb4e <__freertos_irq_stack_top+0xefff7b4e>
     326:	3030                	fld	fa2,96(s0)
     328:	2d34                	fld	fa3,88(a0)
     32a:	366e6977          	0x366e6977
     32e:	5c34                	lw	a3,120(s0)
     330:	6972                	flw	fs2,28(sp)
     332:	2d766373          	csrrsi	t1,0x2d7,12
     336:	6f6e                	flw	ft10,216(sp)
     338:	656e                	flw	fa0,216(sp)
     33a:	652d                	lui	a0,0xb
     33c:	626d                	lui	tp,0x1b
     33e:	6465                	lui	s0,0x19
     340:	695c                	flw	fa5,20(a0)
     342:	636e                	flw	ft6,216(sp)
     344:	756c                	flw	fa1,108(a0)
     346:	6564                	flw	fs1,76(a0)
     348:	6d5c                	flw	fa5,28(a0)
     34a:	6361                	lui	t1,0x18
     34c:	6968                	flw	fa0,84(a0)
     34e:	656e                	flw	fa0,216(sp)
     350:	6500                	flw	fs0,8(a0)
     352:	5c3a                	lw	s8,172(sp)
     354:	65696373          	csrrsi	t1,0x656,18
     358:	746e                	flw	fs0,248(sp)
     35a:	6669                	lui	a2,0x1a
     35c:	6369                	lui	t1,0x1a
     35e:	725f 7365 6165      	0x61657365725f
     364:	6372                	flw	ft6,28(sp)
     366:	5c68                	lw	a0,124(s0)
     368:	6972                	flw	fs2,28(sp)
     36a:	762d6373          	csrrsi	t1,0x762,26
     36e:	d05c                	sw	a5,36(s0)
     370:	c5a1                	beqz	a1,3b8 <_start-0x448>
     372:	b4d6                	fsd	fs5,104(sp)
     374:	736972ef          	jal	t0,97aaa <__stack_size+0x95aaa>
     378:	5c762d63          	0x5c762d63
     37c:	6f74                	flw	fa3,92(a4)
     37e:	5c736c6f          	jal	s8,37144 <__stack_size+0x35144>
     382:	2d756e67          	0x2d756e67
     386:	636d                	lui	t1,0x1b
     388:	2d75                	jal	a44 <tube_scan_disp+0x8>
     38a:	6365                	lui	t1,0x19
     38c:	696c                	flw	fa1,84(a0)
     38e:	7370                	flw	fa2,100(a4)
     390:	2d65                	jal	a48 <tube_scan_disp+0xc>
     392:	6972                	flw	fs2,28(sp)
     394:	2d766373          	csrrsi	t1,0x2d7,12
     398:	6f6e                	flw	ft10,216(sp)
     39a:	656e                	flw	fa0,216(sp)
     39c:	672d                	lui	a4,0xb
     39e:	382d6363          	bltu	s10,sp,724 <_start-0xdc>
     3a2:	322e                	fld	ft4,232(sp)
     3a4:	302e                	fld	ft0,232(sp)
     3a6:	322d                	jal	fffffcd0 <__freertos_irq_stack_top+0xefff7cd0>
     3a8:	322e                	fld	ft4,232(sp)
     3aa:	322d                	jal	fffffcd4 <__freertos_irq_stack_top+0xefff7cd4>
     3ac:	3130                	fld	fa2,96(a0)
     3ae:	3039                	jal	fffffbbc <__freertos_irq_stack_top+0xefff7bbc>
     3b0:	3235                	jal	fffffcdc <__freertos_irq_stack_top+0xefff7cdc>
     3b2:	2d31                	jal	9ce <ext_irq_handler+0x3e>
     3b4:	3030                	fld	fa2,96(s0)
     3b6:	3430                	fld	fa2,104(s0)
     3b8:	772d                	lui	a4,0xfffeb
     3ba:	6e69                	lui	t3,0x1a
     3bc:	3436                	fld	fs0,360(sp)
     3be:	725c                	flw	fa5,36(a2)
     3c0:	7369                	lui	t1,0xffffa
     3c2:	6e2d7663          	bgeu	s10,sp,aae <tube_scan_disp+0x72>
     3c6:	2d656e6f          	jal	t3,5669c <__stack_size+0x5469c>
     3ca:	6d65                	lui	s10,0x19
     3cc:	6562                	flw	fa0,24(sp)
     3ce:	5c64                	lw	s1,124(s0)
     3d0:	6e69                	lui	t3,0x1a
     3d2:	64756c63          	bltu	a0,t2,a2a <timer0_itr_handler+0x3e>
     3d6:	5c65                	li	s8,-7
     3d8:	00737973          	csrrci	s2,0x7,6
     3dc:	2e2e                	fld	ft8,200(sp)
     3de:	2f2e2e2f          	0x2f2e2e2f
     3e2:	6e69                	lui	t3,0x1a
     3e4:	64756c63          	bltu	a0,t2,a3c <tube_scan_disp>
     3e8:	0065                	c.nop	25
     3ea:	3a65                	jal	fffffda2 <__freertos_irq_stack_top+0xefff7da2>
     3ec:	735c                	flw	fa5,36(a4)
     3ee:	6e656963          	bltu	a0,t1,ae0 <tube_scan_disp+0xa4>
     3f2:	6974                	flw	fa3,84(a0)
     3f4:	6966                	flw	fs2,88(sp)
     3f6:	65725f63          	bge	tp,s7,a54 <tube_scan_disp+0x18>
     3fa:	72616573          	csrrsi	a0,0x726,2
     3fe:	725c6863          	bltu	s8,t0,b2e <main+0x3e>
     402:	7369                	lui	t1,0xffffa
     404:	5c762d63          	0x5c762d63
     408:	a1d0                	fsd	fa2,128(a1)
     40a:	d6c5                	beqz	a3,3b2 <_start-0x44e>
     40c:	efb4                	fsw	fa3,88(a5)
     40e:	6972                	flw	fs2,28(sp)
     410:	762d6373          	csrrsi	t1,0x762,26
     414:	745c                	flw	fa5,44(s0)
     416:	736c6f6f          	jal	t5,c6b4c <__stack_size+0xc4b4c>
     41a:	675c                	flw	fa5,12(a4)
     41c:	756e                	flw	fa0,248(sp)
     41e:	6d2d                	lui	s10,0xb
     420:	652d7563          	bgeu	s10,s2,a6a <tube_scan_disp+0x2e>
     424:	70696c63          	bltu	s2,t1,b3c <main+0x4c>
     428:	722d6573          	csrrsi	a0,0x722,26
     42c:	7369                	lui	t1,0xffffa
     42e:	6e2d7663          	bgeu	s10,sp,b1a <main+0x2a>
     432:	2d656e6f          	jal	t3,56708 <__stack_size+0x54708>
     436:	2d636367          	0x2d636367
     43a:	2e38                	fld	fa4,88(a2)
     43c:	2e32                	fld	ft8,264(sp)
     43e:	2d30                	fld	fa2,88(a0)
     440:	2e32                	fld	ft8,264(sp)
     442:	2d32                	fld	fs10,264(sp)
     444:	3032                	fld	ft0,296(sp)
     446:	3931                	jal	62 <_start-0x79e>
     448:	3530                	fld	fa2,104(a0)
     44a:	3132                	fld	ft2,296(sp)
     44c:	302d                	jal	fffffc76 <__freertos_irq_stack_top+0xefff7c76>
     44e:	3030                	fld	fa2,96(s0)
     450:	2d34                	fld	fa3,88(a0)
     452:	366e6977          	0x366e6977
     456:	5c34                	lw	a3,120(s0)
     458:	6972                	flw	fs2,28(sp)
     45a:	2d766373          	csrrsi	t1,0x2d7,12
     45e:	6f6e                	flw	ft10,216(sp)
     460:	656e                	flw	fa0,216(sp)
     462:	652d                	lui	a0,0xb
     464:	626d                	lui	tp,0x1b
     466:	6465                	lui	s0,0x19
     468:	695c                	flw	fa5,20(a0)
     46a:	636e                	flw	ft6,216(sp)
     46c:	756c                	flw	fa1,108(a0)
     46e:	6564                	flw	fs1,76(a0)
     470:	0000                	unimp
     472:	616d                	addi	sp,sp,240
     474:	6e69                	lui	t3,0x1a
     476:	632e                	flw	ft6,200(sp)
     478:	0000                	unimp
     47a:	0000                	unimp
     47c:	645f 6665 7561      	0x75616665645f
     482:	746c                	flw	fa1,108(s0)
     484:	745f 7079 7365      	0x73657079745f
     48a:	682e                	flw	fa6,200(sp)
     48c:	0100                	addi	s0,sp,128
     48e:	0000                	unimp
     490:	735f 6474 6e69      	0x6e696474735f
     496:	2e74                	fld	fa3,216(a2)
     498:	0068                	addi	a0,sp,12
     49a:	0002                	c.slli64	zero
     49c:	6100                	flw	fs0,0(a0)
     49e:	6270                	flw	fa2,68(a2)
     4a0:	675f 6970 2e6f      	0x2e6f6970675f
     4a6:	0068                	addi	a0,sp,12
     4a8:	61000003          	lb	zero,1552(zero) # 610 <_start-0x1f0>
     4ac:	6270                	flw	fa2,68(a2)
     4ae:	745f 6d69 7265      	0x72656d69745f
     4b4:	682e                	flw	fa6,200(sp)
     4b6:	0300                	addi	s0,sp,384
     4b8:	0000                	unimp
     4ba:	6c70                	flw	fa2,92(s0)
     4bc:	6369                	lui	t1,0x1a
     4be:	682e                	flw	fa6,200(sp)
     4c0:	0300                	addi	s0,sp,384
     4c2:	0000                	unimp
     4c4:	69647473          	csrrci	s0,0x696,8
     4c8:	746e                	flw	fs0,248(sp)
     4ca:	682e                	flw	fa6,200(sp)
     4cc:	0400                	addi	s0,sp,512
     4ce:	0000                	unimp
     4d0:	6566                	flw	fa0,88(sp)
     4d2:	7461                	lui	s0,0xffff8
     4d4:	7275                	lui	tp,0xffffd
     4d6:	7365                	lui	t1,0xffff9
     4d8:	682e                	flw	fa6,200(sp)
     4da:	0200                	addi	s0,sp,256
     4dc:	0000                	unimp
     4de:	6e5f 7765 696c      	0x696c77656e5f
     4e4:	5f62                	lw	t5,56(sp)
     4e6:	6576                	flw	fa0,92(sp)
     4e8:	7372                	flw	ft6,60(sp)
     4ea:	6f69                	lui	t5,0x1a
     4ec:	2e6e                	fld	ft8,216(sp)
     4ee:	0068                	addi	a0,sp,12
     4f0:	0004                	0x4
     4f2:	5f00                	lw	s0,56(a4)
     4f4:	6e69                	lui	t3,0x1a
     4f6:	7374                	flw	fa3,100(a4)
     4f8:	7075                	c.lui	zero,0xffffd
     4fa:	682e                	flw	fa6,200(sp)
     4fc:	0200                	addi	s0,sp,256
     4fe:	0000                	unimp
     500:	7475                	lui	s0,0xffffd
     502:	6c69                	lui	s8,0x1a
     504:	00682e73          	csrrs	t3,0x6,a6
     508:	00000003          	lb	zero,0(zero) # 0 <_start-0x800>
     50c:	1705                	addi	a4,a4,-31
     50e:	0500                	addi	s0,sp,640
     510:	9002                	ebreak
     512:	0009                	c.nop	2
     514:	0300                	addi	s0,sp,384
     516:	013e                	slli	sp,sp,0xf
     518:	1805                	addi	a6,a6,-31
     51a:	10090103          	lb	sp,256(s2)
     51e:	0100                	addi	s0,sp,128
     520:	0405                	addi	s0,s0,1
     522:	1c090903          	lb	s2,448(s2)
     526:	0100                	addi	s0,sp,128
     528:	04097d03          	0x4097d03
     52c:	0100                	addi	s0,sp,128
     52e:	04090103          	lb	sp,64(s2)
     532:	0100                	addi	s0,sp,128
     534:	0205                	addi	tp,tp,1
     536:	04090703          	lb	a4,64(s2)
     53a:	0100                	addi	s0,sp,128
     53c:	0105                	addi	sp,sp,1
     53e:	10090103          	lb	sp,256(s2)
     542:	0100                	addi	s0,sp,128
     544:	1409                	addi	s0,s0,-30
     546:	0000                	unimp
     548:	0101                	addi	sp,sp,0
     54a:	2105                	jal	96a <asynchronous_return+0x66>
     54c:	0500                	addi	s0,sp,640
     54e:	ec02                	fsw	ft0,24(sp)
     550:	0009                	c.nop	2
     552:	0300                	addi	s0,sp,384
     554:	00d0                	addi	a2,sp,68
     556:	0501                	addi	a0,a0,0
     558:	0314                	addi	a3,sp,384
     55a:	0901                	addi	s2,s2,0
     55c:	0010                	0x10
     55e:	0501                	addi	a0,a0,0
     560:	030d                	addi	t1,t1,3
     562:	0902                	c.slli64	s2
     564:	0010                	0x10
     566:	0501                	addi	a0,a0,0
     568:	0304                	addi	s1,sp,384
     56a:	0900                	addi	s0,sp,144
     56c:	0008                	0x8
     56e:	0501                	addi	a0,a0,0
     570:	0319                	addi	t1,t1,6
     572:	0901                	addi	s2,s2,0
     574:	0004                	0x4
     576:	0501                	addi	a0,a0,0
     578:	0302                	c.slli64	t1
     57a:	00080903          	lb	s2,0(a6)
     57e:	0501                	addi	a0,a0,0
     580:	0301                	addi	t1,t1,0
     582:	0901                	addi	s2,s2,0
     584:	0008                	0x8
     586:	0901                	addi	s2,s2,0
     588:	0014                	0x14
     58a:	0100                	addi	s0,sp,128
     58c:	0501                	addi	a0,a0,0
     58e:	0021                	c.nop	8
     590:	0205                	addi	tp,tp,1
     592:	0a3c                	addi	a5,sp,280
     594:	0000                	unimp
     596:	0100dc03          	lhu	s8,16(ra) # e34 <trap_handler+0x64>
     59a:	3705                	jal	4ba <_start-0x346>
     59c:	10090803          	lb	a6,256(s2)
     5a0:	0100                	addi	s0,sp,128
     5a2:	2a05                	jal	6d2 <_start-0x12e>
     5a4:	10090003          	lb	zero,256(s2)
     5a8:	0100                	addi	s0,sp,128
     5aa:	0305                	addi	t1,t1,1
     5ac:	04090003          	lb	zero,64(s2)
     5b0:	0100                	addi	s0,sp,128
     5b2:	5005                	c.li	zero,-31
     5b4:	18090303          	lb	t1,384(s2)
     5b8:	0100                	addi	s0,sp,128
     5ba:	4205                	li	tp,1
     5bc:	18090003          	lb	zero,384(s2)
     5c0:	0100                	addi	s0,sp,128
     5c2:	0305                	addi	t1,t1,1
     5c4:	10090003          	lb	zero,256(s2)
     5c8:	0100                	addi	s0,sp,128
     5ca:	1305                	addi	t1,t1,-31
     5cc:	18090c03          	lb	s8,384(s2)
     5d0:	0100                	addi	s0,sp,128
     5d2:	0505                	addi	a0,a0,1
     5d4:	04090003          	lb	zero,64(s2)
     5d8:	0100                	addi	s0,sp,128
     5da:	1105                	addi	sp,sp,-31
     5dc:	08090103          	lb	sp,128(s2)
     5e0:	0100                	addi	s0,sp,128
     5e2:	0105                	addi	sp,sp,1
     5e4:	04090803          	lb	a6,64(s2)
     5e8:	0100                	addi	s0,sp,128
     5ea:	1005                	c.nop	-31
     5ec:	04097a03          	0x4097a03
     5f0:	0100                	addi	s0,sp,128
     5f2:	0105                	addi	sp,sp,1
     5f4:	10090603          	lb	a2,256(s2)
     5f8:	0100                	addi	s0,sp,128
     5fa:	1409                	addi	s0,s0,-30
     5fc:	0000                	unimp
     5fe:	0101                	addi	sp,sp,0
     600:	0b05                	addi	s6,s6,1
     602:	0500                	addi	s0,sp,640
     604:	f002                	fsw	ft0,32(sp)
     606:	000a                	c.slli	zero,0x2
     608:	0300                	addi	s0,sp,384
     60a:	0180                	addi	s0,sp,192
     60c:	0501                	addi	a0,a0,0
     60e:	0305                	addi	t1,t1,1
     610:	00100903          	lb	s2,1(zero) # 1 <_start-0x7ff>
     614:	0501                	addi	a0,a0,0
     616:	0302                	c.slli64	t1
     618:	000c0903          	lb	s2,0(s8) # 1a000 <__stack_size+0x18000>
     61c:	0301                	addi	t1,t1,0
     61e:	0901                	addi	s2,s2,0
     620:	0010                	0x10
     622:	0301                	addi	t1,t1,0
     624:	0901                	addi	s2,s2,0
     626:	0010                	0x10
     628:	0301                	addi	t1,t1,0
     62a:	0901                	addi	s2,s2,0
     62c:	0014                	0x14
     62e:	0301                	addi	t1,t1,0
     630:	00100903          	lb	s2,1(zero) # 1 <_start-0x7ff>
     634:	0301                	addi	t1,t1,0
     636:	0901                	addi	s2,s2,0
     638:	0010                	0x10
     63a:	0501                	addi	a0,a0,0
     63c:	0318                	addi	a4,sp,384
     63e:	0905                	addi	s2,s2,1
     640:	0010                	0x10
     642:	0501                	addi	a0,a0,0
     644:	0319                	addi	t1,t1,6
     646:	0901                	addi	s2,s2,0
     648:	0008                	0x8
     64a:	0501                	addi	a0,a0,0
     64c:	0315                	addi	t1,t1,5
     64e:	0901                	addi	s2,s2,0
     650:	0008                	0x8
     652:	0501                	addi	a0,a0,0
     654:	0901031b          	0x901031b
     658:	0004                	0x4
     65a:	0501                	addi	a0,a0,0
     65c:	0316                	slli	t1,t1,0x5
     65e:	0902                	c.slli64	s2
     660:	0004                	0x4
     662:	0301                	addi	t1,t1,0
     664:	0901                	addi	s2,s2,0
     666:	0004                	0x4
     668:	0301                	addi	t1,t1,0
     66a:	0901                	addi	s2,s2,0
     66c:	0004                	0x4
     66e:	0301                	addi	t1,t1,0
     670:	0901                	addi	s2,s2,0
     672:	0004                	0x4
     674:	0501                	addi	a0,a0,0
     676:	09020323          	sb	a6,134(tp) # ffffd086 <__freertos_irq_stack_top+0xefff5086>
     67a:	0004                	0x4
     67c:	0301                	addi	t1,t1,0
     67e:	0901                	addi	s2,s2,0
     680:	0004                	0x4
     682:	0301                	addi	t1,t1,0
     684:	0901                	addi	s2,s2,0
     686:	0004                	0x4
     688:	0301                	addi	t1,t1,0
     68a:	0901                	addi	s2,s2,0
     68c:	0004                	0x4
     68e:	0501                	addi	a0,a0,0
     690:	0321                	addi	t1,t1,8
     692:	0902                	c.slli64	s2
     694:	0004                	0x4
     696:	0301                	addi	t1,t1,0
     698:	0901                	addi	s2,s2,0
     69a:	0004                	0x4
     69c:	0301                	addi	t1,t1,0
     69e:	0901                	addi	s2,s2,0
     6a0:	0004                	0x4
     6a2:	0301                	addi	t1,t1,0
     6a4:	0901                	addi	s2,s2,0
     6a6:	0004                	0x4
     6a8:	0501                	addi	a0,a0,0
     6aa:	0302                	c.slli64	t1
     6ac:	0902                	c.slli64	s2
     6ae:	0004                	0x4
     6b0:	0301                	addi	t1,t1,0
     6b2:	00140903          	lb	s2,1(s0) # ffffd001 <__freertos_irq_stack_top+0xefff5001>
     6b6:	0301                	addi	t1,t1,0
     6b8:	000c0903          	lb	s2,0(s8)
     6bc:	0301                	addi	t1,t1,0
     6be:	0901                	addi	s2,s2,0
     6c0:	000c                	0xc
     6c2:	0501                	addi	a0,a0,0
     6c4:	0306                	slli	t1,t1,0x1
     6c6:	00180903          	lb	s2,1(a6)
     6ca:	0501                	addi	a0,a0,0
     6cc:	0305                	addi	t1,t1,1
     6ce:	0900                	addi	s0,sp,144
     6d0:	0004                	0x4
     6d2:	0501                	addi	a0,a0,0
     6d4:	09020307          	0x9020307
     6d8:	0004                	0x4
     6da:	0501                	addi	a0,a0,0
     6dc:	0321                	addi	t1,t1,8
     6de:	0900                	addi	s0,sp,144
     6e0:	0010                	0x10
     6e2:	0501                	addi	a0,a0,0
     6e4:	0306                	slli	t1,t1,0x1
     6e6:	0900                	addi	s0,sp,144
     6e8:	0004                	0x4
     6ea:	0501                	addi	a0,a0,0
     6ec:	0318                	addi	a4,sp,384
     6ee:	0901                	addi	s2,s2,0
     6f0:	0004                	0x4
     6f2:	0301                	addi	t1,t1,0
     6f4:	0902                	c.slli64	s2
     6f6:	000c                	0xc
     6f8:	0501                	addi	a0,a0,0
     6fa:	0304                	addi	s1,sp,384
     6fc:	0904                	addi	s1,sp,144
     6fe:	0004                	0x4
     700:	0501                	addi	a0,a0,0
     702:	0314                	addi	a3,sp,384
     704:	00040903          	lb	s2,0(s0)
     708:	0501                	addi	a0,a0,0
     70a:	0318                	addi	a4,sp,384
     70c:	0902                	c.slli64	s2
     70e:	0014                	0x14
     710:	0501                	addi	a0,a0,0
     712:	0306                	slli	t1,t1,0x1
     714:	0900                	addi	s0,sp,144
     716:	0004                	0x4
     718:	0501                	addi	a0,a0,0
     71a:	0308                	addi	a0,sp,384
     71c:	00080903          	lb	s2,0(a6)
     720:	0501                	addi	a0,a0,0
     722:	0322                	slli	t1,t1,0x8
     724:	0900                	addi	s0,sp,144
     726:	0010                	0x10
     728:	0501                	addi	a0,a0,0
     72a:	09000307          	0x9000307
     72e:	0004                	0x4
     730:	0501                	addi	a0,a0,0
     732:	030d                	addi	t1,t1,3
     734:	0901                	addi	s2,s2,0
     736:	0004                	0x4
     738:	0501                	addi	a0,a0,0
     73a:	0316                	slli	t1,t1,0x5
     73c:	00140903          	lb	s2,1(s0)
     740:	0301                	addi	t1,t1,0
     742:	0901                	addi	s2,s2,0
     744:	001c                	0x1c
     746:	0301                	addi	t1,t1,0
     748:	0901                	addi	s2,s2,0
     74a:	0030                	addi	a2,sp,8
     74c:	0301                	addi	t1,t1,0
     74e:	0901                	addi	s2,s2,0
     750:	0030                	addi	a2,sp,8
     752:	0501                	addi	a0,a0,0
     754:	035c                	addi	a5,sp,388
     756:	00300903          	lb	s2,3(zero) # 3 <_start-0x7fd>
     75a:	0501                	addi	a0,a0,0
     75c:	0900036f          	jal	t1,7ec <_start-0x14>
     760:	0004                	0x4
     762:	0501                	addi	a0,a0,0
     764:	0061                	c.nop	24
     766:	0402                	c.slli64	s0
     768:	0301                	addi	t1,t1,0
     76a:	0900                	addi	s0,sp,144
     76c:	0004                	0x4
     76e:	0501                	addi	a0,a0,0
     770:	0402006f          	j	207b0 <__stack_size+0x1e7b0>
     774:	0301                	addi	t1,t1,0
     776:	0900                	addi	s0,sp,144
     778:	0008                	0x8
     77a:	0001                	nop
     77c:	0402                	c.slli64	s0
     77e:	0602                	c.slli64	a2
     780:	0c090003          	lb	zero,192(s2)
     784:	0100                	addi	s0,sp,128
     786:	4805                	li	a6,1
     788:	0200                	addi	s0,sp,256
     78a:	0404                	addi	s1,sp,512
     78c:	0306                	slli	t1,t1,0x1
     78e:	0900                	addi	s0,sp,144
     790:	0004                	0x4
     792:	0501                	addi	a0,a0,0
     794:	0005                	c.nop	1
     796:	0402                	c.slli64	s0
     798:	0304                	addi	s1,sp,384
     79a:	0900                	addi	s0,sp,144
     79c:	0010                	0x10
     79e:	0501                	addi	a0,a0,0
     7a0:	0014                	0x14
     7a2:	0402                	c.slli64	s0
     7a4:	0304                	addi	s1,sp,384
     7a6:	0902                	c.slli64	s2
     7a8:	0014                	0x14
     7aa:	0501                	addi	a0,a0,0
     7ac:	04020007          	0x4020007
     7b0:	0304                	addi	s1,sp,384
     7b2:	0900                	addi	s0,sp,144
     7b4:	0004                	0x4
     7b6:	0501                	addi	a0,a0,0
     7b8:	0312                	slli	t1,t1,0x4
     7ba:	0901                	addi	s2,s2,0
     7bc:	0008                	0x8
     7be:	0501                	addi	a0,a0,0
     7c0:	0311                	addi	t1,t1,4
     7c2:	0902                	c.slli64	s2
     7c4:	0008                	0x8
     7c6:	0501                	addi	a0,a0,0
     7c8:	0316                	slli	t1,t1,0x5
     7ca:	00100903          	lb	s2,1(zero) # 1 <_start-0x7ff>
     7ce:	0501                	addi	a0,a0,0
     7d0:	031a                	slli	t1,t1,0x6
     7d2:	00040903          	lb	s2,0(s0)
     7d6:	0501                	addi	a0,a0,0
     7d8:	0305                	addi	t1,t1,1
     7da:	095a                	slli	s2,s2,0x16
     7dc:	0004                	0x4
     7de:	0901                	addi	s2,s2,0
     7e0:	0004                	0x4
     7e2:	0100                	addi	s0,sp,128
     7e4:	6801                	0x6801
     7e6:	0002                	c.slli64	zero
     7e8:	0300                	addi	s0,sp,384
     7ea:	3a00                	fld	fs0,48(a2)
     7ec:	0002                	c.slli64	zero
     7ee:	0100                	addi	s0,sp,128
     7f0:	fb01                	bnez	a4,700 <_start-0x100>
     7f2:	0d0e                	slli	s10,s10,0x3
     7f4:	0100                	addi	s0,sp,128
     7f6:	0101                	addi	sp,sp,0
     7f8:	0001                	nop
     7fa:	0000                	unimp
     7fc:	0001                	nop
     7fe:	0100                	addi	s0,sp,128
     800:	2e2e                	fld	ft8,200(sp)
     802:	002e2e2f          	amoadd.w	t3,sp,(t3)
     806:	3a65                	jal	1be <_start-0x642>
     808:	735c                	flw	fa5,36(a4)
     80a:	6e656963          	bltu	a0,t1,efc <plic_enable_interrupt+0x4>
     80e:	6974                	flw	fa3,84(a0)
     810:	6966                	flw	fs2,88(sp)
     812:	65725f63          	bge	tp,s7,e70 <plic_init+0x8>
     816:	72616573          	csrrsi	a0,0x726,2
     81a:	725c6863          	bltu	s8,t0,f4a <plic_enable_interrupt+0x52>
     81e:	7369                	lui	t1,0xffffa
     820:	5c762d63          	0x5c762d63
     824:	a1d0                	fsd	fa2,128(a1)
     826:	d6c5                	beqz	a3,7ce <_start-0x32>
     828:	efb4                	fsw	fa3,88(a5)
     82a:	6972                	flw	fs2,28(sp)
     82c:	762d6373          	csrrsi	t1,0x762,26
     830:	745c                	flw	fa5,44(s0)
     832:	736c6f6f          	jal	t5,c6f68 <__stack_size+0xc4f68>
     836:	675c                	flw	fa5,12(a4)
     838:	756e                	flw	fa0,248(sp)
     83a:	6d2d                	lui	s10,0xb
     83c:	652d7563          	bgeu	s10,s2,e86 <plic_init+0x1e>
     840:	70696c63          	bltu	s2,t1,f58 <plic_enable_interrupt+0x60>
     844:	722d6573          	csrrsi	a0,0x722,26
     848:	7369                	lui	t1,0xffffa
     84a:	6e2d7663          	bgeu	s10,sp,f36 <plic_enable_interrupt+0x3e>
     84e:	2d656e6f          	jal	t3,56b24 <__stack_size+0x54b24>
     852:	2d636367          	0x2d636367
     856:	2e38                	fld	fa4,88(a2)
     858:	2e32                	fld	ft8,264(sp)
     85a:	2d30                	fld	fa2,88(a0)
     85c:	2e32                	fld	ft8,264(sp)
     85e:	2d32                	fld	fs10,264(sp)
     860:	3032                	fld	ft0,296(sp)
     862:	3931                	jal	47e <_start-0x382>
     864:	3530                	fld	fa2,104(a0)
     866:	3132                	fld	ft2,296(sp)
     868:	302d                	jal	92 <_start-0x76e>
     86a:	3030                	fld	fa2,96(s0)
     86c:	2d34                	fld	fa3,88(a0)
     86e:	366e6977          	0x366e6977
     872:	5c34                	lw	a3,120(s0)
     874:	6972                	flw	fs2,28(sp)
     876:	2d766373          	csrrsi	t1,0x2d7,12
     87a:	6f6e                	flw	ft10,216(sp)
     87c:	656e                	flw	fa0,216(sp)
     87e:	652d                	lui	a0,0xb
     880:	626d                	lui	tp,0x1b
     882:	6465                	lui	s0,0x19
     884:	695c                	flw	fa5,20(a0)
     886:	636e                	flw	ft6,216(sp)
     888:	756c                	flw	fa1,108(a0)
     88a:	6564                	flw	fs1,76(a0)
     88c:	6500                	flw	fs0,8(a0)
     88e:	5c3a                	lw	s8,172(sp)
     890:	65696373          	csrrsi	t1,0x656,18
     894:	746e                	flw	fs0,248(sp)
     896:	6669                	lui	a2,0x1a
     898:	6369                	lui	t1,0x1a
     89a:	725f 7365 6165      	0x61657365725f
     8a0:	6372                	flw	ft6,28(sp)
     8a2:	5c68                	lw	a0,124(s0)
     8a4:	6972                	flw	fs2,28(sp)
     8a6:	762d6373          	csrrsi	t1,0x762,26
     8aa:	d05c                	sw	a5,36(s0)
     8ac:	c5a1                	beqz	a1,8f4 <test_if_asynchronous+0x4>
     8ae:	b4d6                	fsd	fs5,104(sp)
     8b0:	736972ef          	jal	t0,97fe6 <__stack_size+0x95fe6>
     8b4:	5c762d63          	0x5c762d63
     8b8:	6f74                	flw	fa3,92(a4)
     8ba:	5c736c6f          	jal	s8,37680 <__stack_size+0x35680>
     8be:	2d756e67          	0x2d756e67
     8c2:	636d                	lui	t1,0x1b
     8c4:	2d75                	jal	f80 <plic_enable_interrupt+0x88>
     8c6:	6365                	lui	t1,0x19
     8c8:	696c                	flw	fa1,84(a0)
     8ca:	7370                	flw	fa2,100(a4)
     8cc:	2d65                	jal	f84 <plic_enable_interrupt+0x8c>
     8ce:	6972                	flw	fs2,28(sp)
     8d0:	2d766373          	csrrsi	t1,0x2d7,12
     8d4:	6f6e                	flw	ft10,216(sp)
     8d6:	656e                	flw	fa0,216(sp)
     8d8:	672d                	lui	a4,0xb
     8da:	382d6363          	bltu	s10,sp,c60 <main+0x170>
     8de:	322e                	fld	ft4,232(sp)
     8e0:	302e                	fld	ft0,232(sp)
     8e2:	322d                	jal	20c <_start-0x5f4>
     8e4:	322e                	fld	ft4,232(sp)
     8e6:	322d                	jal	210 <_start-0x5f0>
     8e8:	3130                	fld	fa2,96(a0)
     8ea:	3039                	jal	f8 <_start-0x708>
     8ec:	3235                	jal	218 <_start-0x5e8>
     8ee:	2d31                	jal	f0a <plic_enable_interrupt+0x12>
     8f0:	3030                	fld	fa2,96(s0)
     8f2:	3430                	fld	fa2,104(s0)
     8f4:	772d                	lui	a4,0xfffeb
     8f6:	6e69                	lui	t3,0x1a
     8f8:	3436                	fld	fs0,360(sp)
     8fa:	725c                	flw	fa5,36(a2)
     8fc:	7369                	lui	t1,0xffffa
     8fe:	6e2d7663          	bgeu	s10,sp,fea <plic_claim_interrupt+0x2>
     902:	2d656e6f          	jal	t3,56bd8 <__stack_size+0x54bd8>
     906:	6d65                	lui	s10,0x19
     908:	6562                	flw	fa0,24(sp)
     90a:	5c64                	lw	s1,124(s0)
     90c:	6e69                	lui	t3,0x1a
     90e:	64756c63          	bltu	a0,t2,f66 <plic_enable_interrupt+0x6e>
     912:	5c65                	li	s8,-7
     914:	616d                	addi	sp,sp,240
     916:	6e696863          	bltu	s2,t1,1006 <plic_claim_interrupt+0x1e>
     91a:	0065                	c.nop	25
     91c:	3a65                	jal	2d4 <_start-0x52c>
     91e:	735c                	flw	fa5,36(a4)
     920:	6e656963          	bltu	a0,t1,1012 <plic_claim_interrupt+0x2a>
     924:	6974                	flw	fa3,84(a0)
     926:	6966                	flw	fs2,88(sp)
     928:	65725f63          	bge	tp,s7,f86 <plic_enable_interrupt+0x8e>
     92c:	72616573          	csrrsi	a0,0x726,2
     930:	725c6863          	bltu	s8,t0,1060 <plic_complete_interrupt+0x1c>
     934:	7369                	lui	t1,0xffffa
     936:	5c762d63          	0x5c762d63
     93a:	a1d0                	fsd	fa2,128(a1)
     93c:	d6c5                	beqz	a3,8e4 <trap_entry+0x7c>
     93e:	efb4                	fsw	fa3,88(a5)
     940:	6972                	flw	fs2,28(sp)
     942:	762d6373          	csrrsi	t1,0x762,26
     946:	745c                	flw	fa5,44(s0)
     948:	736c6f6f          	jal	t5,c707e <__stack_size+0xc507e>
     94c:	675c                	flw	fa5,12(a4)
     94e:	756e                	flw	fa0,248(sp)
     950:	6d2d                	lui	s10,0xb
     952:	652d7563          	bgeu	s10,s2,f9c <plic_set_priority>
     956:	70696c63          	bltu	s2,t1,106e <plic_complete_interrupt+0x2a>
     95a:	722d6573          	csrrsi	a0,0x722,26
     95e:	7369                	lui	t1,0xffffa
     960:	6e2d7663          	bgeu	s10,sp,104c <plic_complete_interrupt+0x8>
     964:	2d656e6f          	jal	t3,56c3a <__stack_size+0x54c3a>
     968:	2d636367          	0x2d636367
     96c:	2e38                	fld	fa4,88(a2)
     96e:	2e32                	fld	ft8,264(sp)
     970:	2d30                	fld	fa2,88(a0)
     972:	2e32                	fld	ft8,264(sp)
     974:	2d32                	fld	fs10,264(sp)
     976:	3032                	fld	ft0,296(sp)
     978:	3931                	jal	594 <_start-0x26c>
     97a:	3530                	fld	fa2,104(a0)
     97c:	3132                	fld	ft2,296(sp)
     97e:	302d                	jal	1a8 <_start-0x658>
     980:	3030                	fld	fa2,96(s0)
     982:	2d34                	fld	fa3,88(a0)
     984:	366e6977          	0x366e6977
     988:	5c34                	lw	a3,120(s0)
     98a:	6972                	flw	fs2,28(sp)
     98c:	2d766373          	csrrsi	t1,0x2d7,12
     990:	6f6e                	flw	ft10,216(sp)
     992:	656e                	flw	fa0,216(sp)
     994:	652d                	lui	a0,0xb
     996:	626d                	lui	tp,0x1b
     998:	6465                	lui	s0,0x19
     99a:	695c                	flw	fa5,20(a0)
     99c:	636e                	flw	ft6,216(sp)
     99e:	756c                	flw	fa1,108(a0)
     9a0:	6564                	flw	fs1,76(a0)
     9a2:	735c                	flw	fa5,36(a4)
     9a4:	7379                	lui	t1,0xffffe
     9a6:	2e00                	fld	fs0,24(a2)
     9a8:	2f2e                	fld	ft10,200(sp)
     9aa:	2e2e                	fld	ft8,200(sp)
     9ac:	636e692f          	0x636e692f
     9b0:	756c                	flw	fa1,108(a0)
     9b2:	6564                	flw	fs1,76(a0)
     9b4:	0000                	unimp
     9b6:	6e69                	lui	t3,0x1a
     9b8:	7469                	lui	s0,0xffffa
     9ba:	632e                	flw	ft6,200(sp)
     9bc:	0100                	addi	s0,sp,128
     9be:	0000                	unimp
     9c0:	69647473          	csrrci	s0,0x696,8
     9c4:	746e                	flw	fs0,248(sp)
     9c6:	682e                	flw	fa6,200(sp)
     9c8:	0200                	addi	s0,sp,256
     9ca:	0000                	unimp
     9cc:	645f 6665 7561      	0x75616665645f
     9d2:	746c                	flw	fa1,108(s0)
     9d4:	745f 7079 7365      	0x73657079745f
     9da:	682e                	flw	fa6,200(sp)
     9dc:	0300                	addi	s0,sp,384
     9de:	0000                	unimp
     9e0:	6566                	flw	fa0,88(sp)
     9e2:	7461                	lui	s0,0xffff8
     9e4:	7275                	lui	tp,0xffffd
     9e6:	7365                	lui	t1,0xffff9
     9e8:	682e                	flw	fa6,200(sp)
     9ea:	0400                	addi	s0,sp,512
     9ec:	0000                	unimp
     9ee:	6e5f 7765 696c      	0x696c77656e5f
     9f4:	5f62                	lw	t5,56(sp)
     9f6:	6576                	flw	fa0,92(sp)
     9f8:	7372                	flw	ft6,60(sp)
     9fa:	6f69                	lui	t5,0x1a
     9fc:	2e6e                	fld	ft8,216(sp)
     9fe:	0068                	addi	a0,sp,12
     a00:	0002                	c.slli64	zero
     a02:	5f00                	lw	s0,56(a4)
     a04:	6e69                	lui	t3,0x1a
     a06:	7374                	flw	fa3,100(a4)
     a08:	7075                	c.lui	zero,0xffffd
     a0a:	682e                	flw	fa6,200(sp)
     a0c:	0400                	addi	s0,sp,512
     a0e:	0000                	unimp
     a10:	735f 6474 6e69      	0x6e696474735f
     a16:	2e74                	fld	fa3,216(a2)
     a18:	0068                	addi	a0,sp,12
     a1a:	0004                	0x4
     a1c:	7500                	flw	fs0,40(a0)
     a1e:	6974                	flw	fa3,84(a0)
     a20:	736c                	flw	fa1,100(a4)
     a22:	682e                	flw	fa6,200(sp)
     a24:	0500                	addi	s0,sp,640
     a26:	0000                	unimp
     a28:	0500                	addi	s0,sp,640
     a2a:	000d                	c.nop	3
     a2c:	0205                	addi	tp,tp,1
     a2e:	0d9c                	addi	a5,sp,720
     a30:	0000                	unimp
     a32:	05010a03          	lb	s4,80(sp)
     a36:	0305                	addi	t1,t1,1
     a38:	000c0903          	lb	s2,0(s8)
     a3c:	0301                	addi	t1,t1,0
     a3e:	0904                	addi	s1,sp,144
     a40:	000c                	0xc
     a42:	0501                	addi	a0,a0,0
     a44:	0301                	addi	t1,t1,0
     a46:	0901                	addi	s2,s2,0
     a48:	000c                	0xc
     a4a:	0901                	addi	s2,s2,0
     a4c:	0010                	0x10
     a4e:	0100                	addi	s0,sp,128
     a50:	9301                	srli	a4,a4,0x20
     a52:	0002                	c.slli64	zero
     a54:	0300                	addi	s0,sp,384
     a56:	2900                	fld	fs0,16(a0)
     a58:	0002                	c.slli64	zero
     a5a:	0100                	addi	s0,sp,128
     a5c:	fb01                	bnez	a4,96c <asynchronous_return+0x68>
     a5e:	0d0e                	slli	s10,s10,0x3
     a60:	0100                	addi	s0,sp,128
     a62:	0101                	addi	sp,sp,0
     a64:	0001                	nop
     a66:	0000                	unimp
     a68:	0001                	nop
     a6a:	0100                	addi	s0,sp,128
     a6c:	2e2e                	fld	ft8,200(sp)
     a6e:	002e2e2f          	amoadd.w	t3,sp,(t3)
     a72:	3a65                	jal	42a <_start-0x3d6>
     a74:	735c                	flw	fa5,36(a4)
     a76:	6e656963          	bltu	a0,t1,1168 <apb_gpio_set_direction+0x1c>
     a7a:	6974                	flw	fa3,84(a0)
     a7c:	6966                	flw	fs2,88(sp)
     a7e:	65725f63          	bge	tp,s7,10dc <apb_gpio_write_pin+0x4>
     a82:	72616573          	csrrsi	a0,0x726,2
     a86:	725c6863          	bltu	s8,t0,11b6 <init_apb_timer+0x2a>
     a8a:	7369                	lui	t1,0xffffa
     a8c:	5c762d63          	0x5c762d63
     a90:	a1d0                	fsd	fa2,128(a1)
     a92:	d6c5                	beqz	a3,a3a <timer0_itr_handler+0x4e>
     a94:	efb4                	fsw	fa3,88(a5)
     a96:	6972                	flw	fs2,28(sp)
     a98:	762d6373          	csrrsi	t1,0x762,26
     a9c:	745c                	flw	fa5,44(s0)
     a9e:	736c6f6f          	jal	t5,c71d4 <__stack_size+0xc51d4>
     aa2:	675c                	flw	fa5,12(a4)
     aa4:	756e                	flw	fa0,248(sp)
     aa6:	6d2d                	lui	s10,0xb
     aa8:	652d7563          	bgeu	s10,s2,10f2 <apb_gpio_write_pin+0x1a>
     aac:	70696c63          	bltu	s2,t1,11c4 <init_apb_timer+0x38>
     ab0:	722d6573          	csrrsi	a0,0x722,26
     ab4:	7369                	lui	t1,0xffffa
     ab6:	6e2d7663          	bgeu	s10,sp,11a2 <init_apb_timer+0x16>
     aba:	2d656e6f          	jal	t3,56d90 <__stack_size+0x54d90>
     abe:	2d636367          	0x2d636367
     ac2:	2e38                	fld	fa4,88(a2)
     ac4:	2e32                	fld	ft8,264(sp)
     ac6:	2d30                	fld	fa2,88(a0)
     ac8:	2e32                	fld	ft8,264(sp)
     aca:	2d32                	fld	fs10,264(sp)
     acc:	3032                	fld	ft0,296(sp)
     ace:	3931                	jal	6ea <_start-0x116>
     ad0:	3530                	fld	fa2,104(a0)
     ad2:	3132                	fld	ft2,296(sp)
     ad4:	302d                	jal	2fe <_start-0x502>
     ad6:	3030                	fld	fa2,96(s0)
     ad8:	2d34                	fld	fa3,88(a0)
     ada:	366e6977          	0x366e6977
     ade:	5c34                	lw	a3,120(s0)
     ae0:	6972                	flw	fs2,28(sp)
     ae2:	2d766373          	csrrsi	t1,0x2d7,12
     ae6:	6f6e                	flw	ft10,216(sp)
     ae8:	656e                	flw	fa0,216(sp)
     aea:	652d                	lui	a0,0xb
     aec:	626d                	lui	tp,0x1b
     aee:	6465                	lui	s0,0x19
     af0:	695c                	flw	fa5,20(a0)
     af2:	636e                	flw	ft6,216(sp)
     af4:	756c                	flw	fa1,108(a0)
     af6:	6564                	flw	fs1,76(a0)
     af8:	6d5c                	flw	fa5,28(a0)
     afa:	6361                	lui	t1,0x18
     afc:	6968                	flw	fa0,84(a0)
     afe:	656e                	flw	fa0,216(sp)
     b00:	6500                	flw	fs0,8(a0)
     b02:	5c3a                	lw	s8,172(sp)
     b04:	65696373          	csrrsi	t1,0x656,18
     b08:	746e                	flw	fs0,248(sp)
     b0a:	6669                	lui	a2,0x1a
     b0c:	6369                	lui	t1,0x1a
     b0e:	725f 7365 6165      	0x61657365725f
     b14:	6372                	flw	ft6,28(sp)
     b16:	5c68                	lw	a0,124(s0)
     b18:	6972                	flw	fs2,28(sp)
     b1a:	762d6373          	csrrsi	t1,0x762,26
     b1e:	d05c                	sw	a5,36(s0)
     b20:	c5a1                	beqz	a1,b68 <main+0x78>
     b22:	b4d6                	fsd	fs5,104(sp)
     b24:	736972ef          	jal	t0,9825a <__stack_size+0x9625a>
     b28:	5c762d63          	0x5c762d63
     b2c:	6f74                	flw	fa3,92(a4)
     b2e:	5c736c6f          	jal	s8,378f4 <__stack_size+0x358f4>
     b32:	2d756e67          	0x2d756e67
     b36:	636d                	lui	t1,0x1b
     b38:	2d75                	jal	11f4 <init_apb_timer+0x68>
     b3a:	6365                	lui	t1,0x19
     b3c:	696c                	flw	fa1,84(a0)
     b3e:	7370                	flw	fa2,100(a4)
     b40:	2d65                	jal	11f8 <init_apb_timer+0x6c>
     b42:	6972                	flw	fs2,28(sp)
     b44:	2d766373          	csrrsi	t1,0x2d7,12
     b48:	6f6e                	flw	ft10,216(sp)
     b4a:	656e                	flw	fa0,216(sp)
     b4c:	672d                	lui	a4,0xb
     b4e:	382d6363          	bltu	s10,sp,ed4 <plic_set_threshold+0x3c>
     b52:	322e                	fld	ft4,232(sp)
     b54:	302e                	fld	ft0,232(sp)
     b56:	322d                	jal	480 <_start-0x380>
     b58:	322e                	fld	ft4,232(sp)
     b5a:	322d                	jal	484 <_start-0x37c>
     b5c:	3130                	fld	fa2,96(a0)
     b5e:	3039                	jal	36c <_start-0x494>
     b60:	3235                	jal	48c <_start-0x374>
     b62:	2d31                	jal	117e <apb_gpio_set_direction+0x32>
     b64:	3030                	fld	fa2,96(s0)
     b66:	3430                	fld	fa2,104(s0)
     b68:	772d                	lui	a4,0xfffeb
     b6a:	6e69                	lui	t3,0x1a
     b6c:	3436                	fld	fs0,360(sp)
     b6e:	725c                	flw	fa5,36(a2)
     b70:	7369                	lui	t1,0xffffa
     b72:	6e2d7663          	bgeu	s10,sp,125e <init_apb_timer+0xd2>
     b76:	2d656e6f          	jal	t3,56e4c <__stack_size+0x54e4c>
     b7a:	6d65                	lui	s10,0x19
     b7c:	6562                	flw	fa0,24(sp)
     b7e:	5c64                	lw	s1,124(s0)
     b80:	6e69                	lui	t3,0x1a
     b82:	64756c63          	bltu	a0,t2,11da <init_apb_timer+0x4e>
     b86:	5c65                	li	s8,-7
     b88:	00737973          	csrrci	s2,0x7,6
     b8c:	3a65                	jal	544 <_start-0x2bc>
     b8e:	735c                	flw	fa5,36(a4)
     b90:	6e656963          	bltu	a0,t1,1282 <init_apb_timer+0xf6>
     b94:	6974                	flw	fa3,84(a0)
     b96:	6966                	flw	fs2,88(sp)
     b98:	65725f63          	bge	tp,s7,11f6 <init_apb_timer+0x6a>
     b9c:	72616573          	csrrsi	a0,0x726,2
     ba0:	725c6863          	bltu	s8,t0,12d0 <init_apb_timer+0x144>
     ba4:	7369                	lui	t1,0xffffa
     ba6:	5c762d63          	0x5c762d63
     baa:	a1d0                	fsd	fa2,128(a1)
     bac:	d6c5                	beqz	a3,b54 <main+0x64>
     bae:	efb4                	fsw	fa3,88(a5)
     bb0:	6972                	flw	fs2,28(sp)
     bb2:	762d6373          	csrrsi	t1,0x762,26
     bb6:	745c                	flw	fa5,44(s0)
     bb8:	736c6f6f          	jal	t5,c72ee <__stack_size+0xc52ee>
     bbc:	675c                	flw	fa5,12(a4)
     bbe:	756e                	flw	fa0,248(sp)
     bc0:	6d2d                	lui	s10,0xb
     bc2:	652d7563          	bgeu	s10,s2,120c <init_apb_timer+0x80>
     bc6:	70696c63          	bltu	s2,t1,12de <init_apb_timer+0x152>
     bca:	722d6573          	csrrsi	a0,0x722,26
     bce:	7369                	lui	t1,0xffffa
     bd0:	6e2d7663          	bgeu	s10,sp,12bc <init_apb_timer+0x130>
     bd4:	2d656e6f          	jal	t3,56eaa <__stack_size+0x54eaa>
     bd8:	2d636367          	0x2d636367
     bdc:	2e38                	fld	fa4,88(a2)
     bde:	2e32                	fld	ft8,264(sp)
     be0:	2d30                	fld	fa2,88(a0)
     be2:	2e32                	fld	ft8,264(sp)
     be4:	2d32                	fld	fs10,264(sp)
     be6:	3032                	fld	ft0,296(sp)
     be8:	3931                	jal	804 <_start+0x4>
     bea:	3530                	fld	fa2,104(a0)
     bec:	3132                	fld	ft2,296(sp)
     bee:	302d                	jal	418 <_start-0x3e8>
     bf0:	3030                	fld	fa2,96(s0)
     bf2:	2d34                	fld	fa3,88(a0)
     bf4:	366e6977          	0x366e6977
     bf8:	5c34                	lw	a3,120(s0)
     bfa:	6972                	flw	fs2,28(sp)
     bfc:	2d766373          	csrrsi	t1,0x2d7,12
     c00:	6f6e                	flw	ft10,216(sp)
     c02:	656e                	flw	fa0,216(sp)
     c04:	652d                	lui	a0,0xb
     c06:	626d                	lui	tp,0x1b
     c08:	6465                	lui	s0,0x19
     c0a:	695c                	flw	fa5,20(a0)
     c0c:	636e                	flw	ft6,216(sp)
     c0e:	756c                	flw	fa1,108(a0)
     c10:	6564                	flw	fs1,76(a0)
     c12:	0000                	unimp
     c14:	7274                	flw	fa3,100(a2)
     c16:	7061                	c.lui	zero,0xffff8
     c18:	685f 6e61 6c64      	0x6c646e61685f
     c1e:	7265                	lui	tp,0xffff9
     c20:	632e                	flw	ft6,200(sp)
     c22:	0100                	addi	s0,sp,128
     c24:	0000                	unimp
     c26:	645f 6665 7561      	0x75616665645f
     c2c:	746c                	flw	fa1,108(s0)
     c2e:	745f 7079 7365      	0x73657079745f
     c34:	682e                	flw	fa6,200(sp)
     c36:	0200                	addi	s0,sp,256
     c38:	0000                	unimp
     c3a:	735f 6474 6e69      	0x6e696474735f
     c40:	2e74                	fld	fa3,216(a2)
     c42:	0068                	addi	a0,sp,12
     c44:	73000003          	lb	zero,1840(zero) # 730 <_start-0xd0>
     c48:	6474                	flw	fa3,76(s0)
     c4a:	6e69                	lui	t3,0x1a
     c4c:	2e74                	fld	fa3,216(a2)
     c4e:	0068                	addi	a0,sp,12
     c50:	0004                	0x4
     c52:	6600                	flw	fs0,8(a2)
     c54:	6165                	addi	sp,sp,112
     c56:	7574                	flw	fa3,108(a0)
     c58:	6572                	flw	fa0,28(sp)
     c5a:	00682e73          	csrrs	t3,0x6,a6
     c5e:	5f000003          	lb	zero,1520(zero) # 5f0 <_start-0x210>
     c62:	656e                	flw	fa0,216(sp)
     c64:	62696c77          	0x62696c77
     c68:	765f 7265 6973      	0x69737265765f
     c6e:	682e6e6f          	jal	t3,e72f0 <__stack_size+0xe52f0>
     c72:	0400                	addi	s0,sp,512
     c74:	0000                	unimp
     c76:	695f 746e 7573      	0x7573746e695f
     c7c:	2e70                	fld	fa2,216(a2)
     c7e:	0068                	addi	a0,sp,12
     c80:	00000003          	lb	zero,0(zero) # 0 <_start-0x800>
     c84:	3205                	jal	5a4 <_start-0x25c>
     c86:	0500                	addi	s0,sp,640
     c88:	d002                	sw	zero,32(sp)
     c8a:	000d                	c.nop	3
     c8c:	0300                	addi	s0,sp,384
     c8e:	0112                	slli	sp,sp,0x4
     c90:	0405                	addi	s0,s0,1
     c92:	48090303          	lb	t1,1152(s2)
     c96:	0100                	addi	s0,sp,128
     c98:	08090103          	lb	sp,128(s2)
     c9c:	0100                	addi	s0,sp,128
     c9e:	04090203          	lb	tp,64(s2)
     ca2:	0100                	addi	s0,sp,128
     ca4:	08090103          	lb	sp,128(s2)
     ca8:	0100                	addi	s0,sp,128
     caa:	04090203          	lb	tp,64(s2)
     cae:	0100                	addi	s0,sp,128
     cb0:	04090103          	lb	sp,64(s2)
     cb4:	0100                	addi	s0,sp,128
     cb6:	04090203          	lb	tp,64(s2)
     cba:	0100                	addi	s0,sp,128
     cbc:	0105                	addi	sp,sp,1
     cbe:	04090203          	lb	tp,64(s2)
     cc2:	0100                	addi	s0,sp,128
     cc4:	1409                	addi	s0,s0,-30
     cc6:	0000                	unimp
     cc8:	0101                	addi	sp,sp,0
     cca:	3205                	jal	5ea <_start-0x216>
     ccc:	0500                	addi	s0,sp,640
     cce:	5002                	0x5002
     cd0:	000e                	c.slli	zero,0x3
     cd2:	0300                	addi	s0,sp,384
     cd4:	0122                	slli	sp,sp,0x8
     cd6:	0705                	addi	a4,a4,1
     cd8:	0200                	addi	s0,sp,256
     cda:	0104                	addi	s1,sp,128
     cdc:	14090103          	lb	sp,320(s2)
     ce0:	0100                	addi	s0,sp,128
     ce2:	0409                	addi	s0,s0,2
     ce4:	0000                	unimp
     ce6:	0101                	addi	sp,sp,0
     ce8:	04c1                	addi	s1,s1,16
     cea:	0000                	unimp
     cec:	024f0003          	lb	zero,36(t5) # 1a024 <__stack_size+0x18024>
     cf0:	0000                	unimp
     cf2:	0101                	addi	sp,sp,0
     cf4:	000d0efb          	0xd0efb
     cf8:	0101                	addi	sp,sp,0
     cfa:	0101                	addi	sp,sp,0
     cfc:	0000                	unimp
     cfe:	0100                	addi	s0,sp,128
     d00:	0000                	unimp
     d02:	2e01                	jal	1012 <plic_claim_interrupt+0x2a>
     d04:	2f2e                	fld	ft10,200(sp)
     d06:	2e2e                	fld	ft8,200(sp)
     d08:	62696c2f          	0x62696c2f
     d0c:	6500                	flw	fs0,8(a0)
     d0e:	5c3a                	lw	s8,172(sp)
     d10:	65696373          	csrrsi	t1,0x656,18
     d14:	746e                	flw	fs0,248(sp)
     d16:	6669                	lui	a2,0x1a
     d18:	6369                	lui	t1,0x1a
     d1a:	725f 7365 6165      	0x61657365725f
     d20:	6372                	flw	ft6,28(sp)
     d22:	5c68                	lw	a0,124(s0)
     d24:	6972                	flw	fs2,28(sp)
     d26:	762d6373          	csrrsi	t1,0x762,26
     d2a:	d05c                	sw	a5,36(s0)
     d2c:	c5a1                	beqz	a1,d74 <main+0x284>
     d2e:	b4d6                	fsd	fs5,104(sp)
     d30:	736972ef          	jal	t0,98466 <__stack_size+0x96466>
     d34:	5c762d63          	0x5c762d63
     d38:	6f74                	flw	fa3,92(a4)
     d3a:	5c736c6f          	jal	s8,37b00 <__stack_size+0x35b00>
     d3e:	2d756e67          	0x2d756e67
     d42:	636d                	lui	t1,0x1b
     d44:	2d75                	jal	1400 <_data_lma+0x50>
     d46:	6365                	lui	t1,0x19
     d48:	696c                	flw	fa1,84(a0)
     d4a:	7370                	flw	fa2,100(a4)
     d4c:	2d65                	jal	1404 <_data_lma+0x54>
     d4e:	6972                	flw	fs2,28(sp)
     d50:	2d766373          	csrrsi	t1,0x2d7,12
     d54:	6f6e                	flw	ft10,216(sp)
     d56:	656e                	flw	fa0,216(sp)
     d58:	672d                	lui	a4,0xb
     d5a:	382d6363          	bltu	s10,sp,10e0 <apb_gpio_write_pin+0x8>
     d5e:	322e                	fld	ft4,232(sp)
     d60:	302e                	fld	ft0,232(sp)
     d62:	322d                	jal	68c <_start-0x174>
     d64:	322e                	fld	ft4,232(sp)
     d66:	322d                	jal	690 <_start-0x170>
     d68:	3130                	fld	fa2,96(a0)
     d6a:	3039                	jal	578 <_start-0x288>
     d6c:	3235                	jal	698 <_start-0x168>
     d6e:	2d31                	jal	138a <apb_timer_clear_itr_flag+0x6>
     d70:	3030                	fld	fa2,96(s0)
     d72:	3430                	fld	fa2,104(s0)
     d74:	772d                	lui	a4,0xfffeb
     d76:	6e69                	lui	t3,0x1a
     d78:	3436                	fld	fs0,360(sp)
     d7a:	725c                	flw	fa5,36(a2)
     d7c:	7369                	lui	t1,0xffffa
     d7e:	6e2d7663          	bgeu	s10,sp,146a <_data_lma+0xba>
     d82:	2d656e6f          	jal	t3,57058 <__stack_size+0x55058>
     d86:	6d65                	lui	s10,0x19
     d88:	6562                	flw	fa0,24(sp)
     d8a:	5c64                	lw	s1,124(s0)
     d8c:	6e69                	lui	t3,0x1a
     d8e:	64756c63          	bltu	a0,t2,13e6 <_data_lma+0x36>
     d92:	5c65                	li	s8,-7
     d94:	616d                	addi	sp,sp,240
     d96:	6e696863          	bltu	s2,t1,1486 <_data_lma+0xd6>
     d9a:	0065                	c.nop	25
     d9c:	3a65                	jal	754 <_start-0xac>
     d9e:	735c                	flw	fa5,36(a4)
     da0:	6e656963          	bltu	a0,t1,1492 <_data_lma+0xe2>
     da4:	6974                	flw	fa3,84(a0)
     da6:	6966                	flw	fs2,88(sp)
     da8:	65725f63          	bge	tp,s7,1406 <_data_lma+0x56>
     dac:	72616573          	csrrsi	a0,0x726,2
     db0:	725c6863          	bltu	s8,t0,14e0 <_data_lma+0x130>
     db4:	7369                	lui	t1,0xffffa
     db6:	5c762d63          	0x5c762d63
     dba:	a1d0                	fsd	fa2,128(a1)
     dbc:	d6c5                	beqz	a3,d64 <main+0x274>
     dbe:	efb4                	fsw	fa3,88(a5)
     dc0:	6972                	flw	fs2,28(sp)
     dc2:	762d6373          	csrrsi	t1,0x762,26
     dc6:	745c                	flw	fa5,44(s0)
     dc8:	736c6f6f          	jal	t5,c74fe <__stack_size+0xc54fe>
     dcc:	675c                	flw	fa5,12(a4)
     dce:	756e                	flw	fa0,248(sp)
     dd0:	6d2d                	lui	s10,0xb
     dd2:	652d7563          	bgeu	s10,s2,141c <_data_lma+0x6c>
     dd6:	70696c63          	bltu	s2,t1,14ee <_data_lma+0x13e>
     dda:	722d6573          	csrrsi	a0,0x722,26
     dde:	7369                	lui	t1,0xffffa
     de0:	6e2d7663          	bgeu	s10,sp,14cc <_data_lma+0x11c>
     de4:	2d656e6f          	jal	t3,570ba <__stack_size+0x550ba>
     de8:	2d636367          	0x2d636367
     dec:	2e38                	fld	fa4,88(a2)
     dee:	2e32                	fld	ft8,264(sp)
     df0:	2d30                	fld	fa2,88(a0)
     df2:	2e32                	fld	ft8,264(sp)
     df4:	2d32                	fld	fs10,264(sp)
     df6:	3032                	fld	ft0,296(sp)
     df8:	3931                	jal	a14 <timer0_itr_handler+0x28>
     dfa:	3530                	fld	fa2,104(a0)
     dfc:	3132                	fld	ft2,296(sp)
     dfe:	302d                	jal	628 <_start-0x1d8>
     e00:	3030                	fld	fa2,96(s0)
     e02:	2d34                	fld	fa3,88(a0)
     e04:	366e6977          	0x366e6977
     e08:	5c34                	lw	a3,120(s0)
     e0a:	6972                	flw	fs2,28(sp)
     e0c:	2d766373          	csrrsi	t1,0x2d7,12
     e10:	6f6e                	flw	ft10,216(sp)
     e12:	656e                	flw	fa0,216(sp)
     e14:	652d                	lui	a0,0xb
     e16:	626d                	lui	tp,0x1b
     e18:	6465                	lui	s0,0x19
     e1a:	695c                	flw	fa5,20(a0)
     e1c:	636e                	flw	ft6,216(sp)
     e1e:	756c                	flw	fa1,108(a0)
     e20:	6564                	flw	fs1,76(a0)
     e22:	735c                	flw	fa5,36(a4)
     e24:	7379                	lui	t1,0xffffe
     e26:	2e00                	fld	fs0,24(a2)
     e28:	2f2e                	fld	ft10,200(sp)
     e2a:	2e2e                	fld	ft8,200(sp)
     e2c:	62696c2f          	0x62696c2f
     e30:	2f2e2e2f          	0x2f2e2e2f
     e34:	6e69                	lui	t3,0x1a
     e36:	64756c63          	bltu	a0,t2,148e <_data_lma+0xde>
     e3a:	0065                	c.nop	25
     e3c:	3a65                	jal	7f4 <_start-0xc>
     e3e:	735c                	flw	fa5,36(a4)
     e40:	6e656963          	bltu	a0,t1,1532 <_data_lma+0x182>
     e44:	6974                	flw	fa3,84(a0)
     e46:	6966                	flw	fs2,88(sp)
     e48:	65725f63          	bge	tp,s7,14a6 <_data_lma+0xf6>
     e4c:	72616573          	csrrsi	a0,0x726,2
     e50:	725c6863          	bltu	s8,t0,1580 <_data_lma+0x1d0>
     e54:	7369                	lui	t1,0xffffa
     e56:	5c762d63          	0x5c762d63
     e5a:	a1d0                	fsd	fa2,128(a1)
     e5c:	d6c5                	beqz	a3,e04 <trap_handler+0x34>
     e5e:	efb4                	fsw	fa3,88(a5)
     e60:	6972                	flw	fs2,28(sp)
     e62:	762d6373          	csrrsi	t1,0x762,26
     e66:	745c                	flw	fa5,44(s0)
     e68:	736c6f6f          	jal	t5,c759e <__stack_size+0xc559e>
     e6c:	675c                	flw	fa5,12(a4)
     e6e:	756e                	flw	fa0,248(sp)
     e70:	6d2d                	lui	s10,0xb
     e72:	652d7563          	bgeu	s10,s2,14bc <_data_lma+0x10c>
     e76:	70696c63          	bltu	s2,t1,158e <_data_lma+0x1de>
     e7a:	722d6573          	csrrsi	a0,0x722,26
     e7e:	7369                	lui	t1,0xffffa
     e80:	6e2d7663          	bgeu	s10,sp,156c <_data_lma+0x1bc>
     e84:	2d656e6f          	jal	t3,5715a <__stack_size+0x5515a>
     e88:	2d636367          	0x2d636367
     e8c:	2e38                	fld	fa4,88(a2)
     e8e:	2e32                	fld	ft8,264(sp)
     e90:	2d30                	fld	fa2,88(a0)
     e92:	2e32                	fld	ft8,264(sp)
     e94:	2d32                	fld	fs10,264(sp)
     e96:	3032                	fld	ft0,296(sp)
     e98:	3931                	jal	ab4 <tube_scan_disp+0x78>
     e9a:	3530                	fld	fa2,104(a0)
     e9c:	3132                	fld	ft2,296(sp)
     e9e:	302d                	jal	6c8 <_start-0x138>
     ea0:	3030                	fld	fa2,96(s0)
     ea2:	2d34                	fld	fa3,88(a0)
     ea4:	366e6977          	0x366e6977
     ea8:	5c34                	lw	a3,120(s0)
     eaa:	6972                	flw	fs2,28(sp)
     eac:	2d766373          	csrrsi	t1,0x2d7,12
     eb0:	6f6e                	flw	ft10,216(sp)
     eb2:	656e                	flw	fa0,216(sp)
     eb4:	652d                	lui	a0,0xb
     eb6:	626d                	lui	tp,0x1b
     eb8:	6465                	lui	s0,0x19
     eba:	695c                	flw	fa5,20(a0)
     ebc:	636e                	flw	ft6,216(sp)
     ebe:	756c                	flw	fa1,108(a0)
     ec0:	6564                	flw	fs1,76(a0)
     ec2:	0000                	unimp
     ec4:	6c70                	flw	fa2,92(s0)
     ec6:	6369                	lui	t1,0x1a
     ec8:	632e                	flw	ft6,200(sp)
     eca:	0100                	addi	s0,sp,128
     ecc:	0000                	unimp
     ece:	645f 6665 7561      	0x75616665645f
     ed4:	746c                	flw	fa1,108(s0)
     ed6:	745f 7079 7365      	0x73657079745f
     edc:	682e                	flw	fa6,200(sp)
     ede:	0200                	addi	s0,sp,256
     ee0:	0000                	unimp
     ee2:	735f 6474 6e69      	0x6e696474735f
     ee8:	2e74                	fld	fa3,216(a2)
     eea:	0068                	addi	a0,sp,12
     eec:	70000003          	lb	zero,1792(zero) # 700 <_start-0x100>
     ef0:	696c                	flw	fa1,84(a0)
     ef2:	00682e63          	0x682e63
     ef6:	0004                	0x4
     ef8:	7300                	flw	fs0,32(a4)
     efa:	6474                	flw	fa3,76(s0)
     efc:	6e69                	lui	t3,0x1a
     efe:	2e74                	fld	fa3,216(a2)
     f00:	0068                	addi	a0,sp,12
     f02:	0005                	c.nop	1
     f04:	6600                	flw	fs0,8(a2)
     f06:	6165                	addi	sp,sp,112
     f08:	7574                	flw	fa3,108(a0)
     f0a:	6572                	flw	fa0,28(sp)
     f0c:	00682e73          	csrrs	t3,0x6,a6
     f10:	5f000003          	lb	zero,1520(zero) # 5f0 <_start-0x210>
     f14:	656e                	flw	fa0,216(sp)
     f16:	62696c77          	0x62696c77
     f1a:	765f 7265 6973      	0x69737265765f
     f20:	682e6e6f          	jal	t3,e75a2 <__stack_size+0xe55a2>
     f24:	0500                	addi	s0,sp,640
     f26:	0000                	unimp
     f28:	695f 746e 7573      	0x7573746e695f
     f2e:	2e70                	fld	fa2,216(a2)
     f30:	0068                	addi	a0,sp,12
     f32:	75000003          	lb	zero,1872(zero) # 750 <_start-0xb0>
     f36:	6974                	flw	fa3,84(a0)
     f38:	736c                	flw	fa1,100(a4)
     f3a:	682e                	flw	fa6,200(sp)
     f3c:	0400                	addi	s0,sp,512
     f3e:	0000                	unimp
     f40:	0500                	addi	s0,sp,640
     f42:	0205002f          	0x205002f
     f46:	0e68                	addi	a0,sp,796
     f48:	0000                	unimp
     f4a:	05011c03          	lh	s8,80(sp)
     f4e:	0312                	slli	t1,t1,0x4
     f50:	0901                	addi	s2,s2,0
     f52:	0014                	0x14
     f54:	0501                	addi	a0,a0,0
     f56:	0301                	addi	t1,t1,0
     f58:	0901                	addi	s2,s2,0
     f5a:	000c                	0xc
     f5c:	0901                	addi	s2,s2,0
     f5e:	0010                	0x10
     f60:	0100                	addi	s0,sp,128
     f62:	0501                	addi	a0,a0,0
     f64:	0038                	addi	a4,sp,8
     f66:	0205                	addi	tp,tp,1
     f68:	0e98                	addi	a4,sp,848
     f6a:	0000                	unimp
     f6c:	05012803          	lw	a6,80(sp)
     f70:	031a                	slli	t1,t1,0x6
     f72:	0901                	addi	s2,s2,0
     f74:	0014                	0x14
     f76:	0501                	addi	a0,a0,0
     f78:	0310                	addi	a2,sp,384
     f7a:	0900                	addi	s0,sp,144
     f7c:	000c                	0xc
     f7e:	0501                	addi	a0,a0,0
     f80:	033e                	slli	t1,t1,0xf
     f82:	0901                	addi	s2,s2,0
     f84:	0004                	0x4
     f86:	0501                	addi	a0,a0,0
     f88:	0324                	addi	s1,sp,392
     f8a:	0901                	addi	s2,s2,0
     f8c:	0008                	0x8
     f8e:	0501                	addi	a0,a0,0
     f90:	0319                	addi	t1,t1,6
     f92:	0900                	addi	s0,sp,144
     f94:	0008                	0x8
     f96:	0501                	addi	a0,a0,0
     f98:	0315                	addi	t1,t1,5
     f9a:	097f                	0x97f
     f9c:	000c                	0xc
     f9e:	0501                	addi	a0,a0,0
     fa0:	0311                	addi	t1,t1,4
     fa2:	00040903          	lb	s2,0(s0) # 19000 <__stack_size+0x17000>
     fa6:	0501                	addi	a0,a0,0
     fa8:	0301                	addi	t1,t1,0
     faa:	0901                	addi	s2,s2,0
     fac:	000c                	0xc
     fae:	0901                	addi	s2,s2,0
     fb0:	0010                	0x10
     fb2:	0100                	addi	s0,sp,128
     fb4:	0501                	addi	a0,a0,0
     fb6:	0038                	addi	a4,sp,8
     fb8:	0205                	addi	tp,tp,1
     fba:	0ef8                	addi	a4,sp,860
     fbc:	0000                	unimp
     fbe:	05013803          	0x5013803
     fc2:	031a                	slli	t1,t1,0x6
     fc4:	0901                	addi	s2,s2,0
     fc6:	0014                	0x14
     fc8:	0501                	addi	a0,a0,0
     fca:	0310                	addi	a2,sp,384
     fcc:	0900                	addi	s0,sp,144
     fce:	000c                	0xc
     fd0:	0501                	addi	a0,a0,0
     fd2:	033a                	slli	t1,t1,0xe
     fd4:	0901                	addi	s2,s2,0
     fd6:	0004                	0x4
     fd8:	0501                	addi	a0,a0,0
     fda:	0321                	addi	t1,t1,8
     fdc:	0901                	addi	s2,s2,0
     fde:	0008                	0x8
     fe0:	0501                	addi	a0,a0,0
     fe2:	0316                	slli	t1,t1,0x5
     fe4:	0900                	addi	s0,sp,144
     fe6:	0008                	0x8
     fe8:	0501                	addi	a0,a0,0
     fea:	034c                	addi	a1,sp,388
     fec:	0900                	addi	s0,sp,144
     fee:	0004                	0x4
     ff0:	0501                	addi	a0,a0,0
     ff2:	0342                	slli	t1,t1,0x10
     ff4:	0900                	addi	s0,sp,144
     ff6:	0008                	0x8
     ff8:	0501                	addi	a0,a0,0
     ffa:	0314                	addi	a3,sp,384
     ffc:	097f                	0x97f
     ffe:	000c                	0xc
    1000:	0501                	addi	a0,a0,0
    1002:	030a                	slli	t1,t1,0x2
    1004:	00040903          	lb	s2,0(s0)
    1008:	0501                	addi	a0,a0,0
    100a:	0325                	addi	t1,t1,9
    100c:	0902                	c.slli64	s2
    100e:	000c                	0xc
    1010:	0501                	addi	a0,a0,0
    1012:	031a                	slli	t1,t1,0x6
    1014:	0900                	addi	s0,sp,144
    1016:	0008                	0x8
    1018:	0501                	addi	a0,a0,0
    101a:	0314                	addi	a3,sp,384
    101c:	0900                	addi	s0,sp,144
    101e:	0008                	0x8
    1020:	0501                	addi	a0,a0,0
    1022:	030a                	slli	t1,t1,0x2
    1024:	0900                	addi	s0,sp,144
    1026:	0018                	0x18
    1028:	0501                	addi	a0,a0,0
    102a:	0902030f          	0x902030f
    102e:	0004                	0x4
    1030:	0501                	addi	a0,a0,0
    1032:	0301                	addi	t1,t1,0
    1034:	0901                	addi	s2,s2,0
    1036:	000c                	0xc
    1038:	0901                	addi	s2,s2,0
    103a:	0010                	0x10
    103c:	0100                	addi	s0,sp,128
    103e:	0501                	addi	a0,a0,0
    1040:	003a                	c.slli	zero,0xe
    1042:	0205                	addi	tp,tp,1
    1044:	0000                	unimp
    1046:	0000                	unimp
    1048:	0100cc03          	lbu	s8,16(ra)
    104c:	1a05                	addi	s4,s4,-31
    104e:	00090103          	lb	sp,0(s2)
    1052:	0100                	addi	s0,sp,128
    1054:	1005                	c.nop	-31
    1056:	00090003          	lb	zero,0(s2)
    105a:	0100                	addi	s0,sp,128
    105c:	3b05                	jal	d8c <main+0x29c>
    105e:	00090103          	lb	sp,0(s2)
    1062:	0100                	addi	s0,sp,128
    1064:	2105                	jal	1484 <_data_lma+0xd4>
    1066:	00090103          	lb	sp,0(s2)
    106a:	0100                	addi	s0,sp,128
    106c:	1605                	addi	a2,a2,-31
    106e:	00090003          	lb	zero,0(s2)
    1072:	0100                	addi	s0,sp,128
    1074:	4c05                	li	s8,1
    1076:	00090003          	lb	zero,0(s2)
    107a:	0100                	addi	s0,sp,128
    107c:	4205                	li	tp,1
    107e:	00090003          	lb	zero,0(s2)
    1082:	0100                	addi	s0,sp,128
    1084:	1505                	addi	a0,a0,-31
    1086:	00097f03          	0x97f03
    108a:	0100                	addi	s0,sp,128
    108c:	0a05                	addi	s4,s4,1
    108e:	00090303          	lb	t1,0(s2)
    1092:	0100                	addi	s0,sp,128
    1094:	2705                	jal	17b4 <_data_lma+0x404>
    1096:	00090203          	lb	tp,0(s2)
    109a:	0100                	addi	s0,sp,128
    109c:	1c05                	addi	s8,s8,-31
    109e:	00090003          	lb	zero,0(s2)
    10a2:	0100                	addi	s0,sp,128
    10a4:	1405                	addi	s0,s0,-31
    10a6:	00090003          	lb	zero,0(s2)
    10aa:	0100                	addi	s0,sp,128
    10ac:	0a05                	addi	s4,s4,1
    10ae:	00090003          	lb	zero,0(s2)
    10b2:	0100                	addi	s0,sp,128
    10b4:	0f05                	addi	t5,t5,1
    10b6:	00090203          	lb	tp,0(s2)
    10ba:	0100                	addi	s0,sp,128
    10bc:	0105                	addi	sp,sp,1
    10be:	00090103          	lb	sp,0(s2)
    10c2:	0100                	addi	s0,sp,128
    10c4:	0009                	c.nop	2
    10c6:	0000                	unimp
    10c8:	0101                	addi	sp,sp,0
    10ca:	4805                	li	a6,1
    10cc:	0500                	addi	s0,sp,640
    10ce:	9c02                	jalr	s8
    10d0:	0300000f          	fence	rw,unknown
    10d4:	00e2                	slli	ra,ra,0x18
    10d6:	0501                	addi	a0,a0,0
    10d8:	0340                	addi	s0,sp,388
    10da:	0901                	addi	s2,s2,0
    10dc:	0018                	0x18
    10de:	0501                	addi	a0,a0,0
    10e0:	0322                	slli	t1,t1,0x8
    10e2:	0901                	addi	s2,s2,0
    10e4:	0008                	0x8
    10e6:	0501                	addi	a0,a0,0
    10e8:	0318                	addi	a4,sp,384
    10ea:	0900                	addi	s0,sp,144
    10ec:	0008                	0x8
    10ee:	0301                	addi	t1,t1,0
    10f0:	097f                	0x97f
    10f2:	0004                	0x4
    10f4:	0501                	addi	a0,a0,0
    10f6:	09030313          	addi	t1,t1,144 # 1a090 <__stack_size+0x18090>
    10fa:	0004                	0x4
    10fc:	0501                	addi	a0,a0,0
    10fe:	0301                	addi	t1,t1,0
    1100:	0901                	addi	s2,s2,0
    1102:	000c                	0xc
    1104:	0901                	addi	s2,s2,0
    1106:	0010                	0x10
    1108:	0100                	addi	s0,sp,128
    110a:	0501                	addi	a0,a0,0
    110c:	002a                	c.slli	zero,0xa
    110e:	0205                	addi	tp,tp,1
    1110:	0fe8                	addi	a0,sp,988
    1112:	0000                	unimp
    1114:	0100f003          	0x100f003
    1118:	1a05                	addi	s4,s4,-31
    111a:	10090103          	lb	sp,256(s2)
    111e:	0100                	addi	s0,sp,128
    1120:	1005                	c.nop	-31
    1122:	0c090003          	lb	zero,192(s2)
    1126:	0100                	addi	s0,sp,128
    1128:	3b05                	jal	e58 <serr_handler+0x8>
    112a:	04090203          	lb	tp,64(s2)
    112e:	0100                	addi	s0,sp,128
    1130:	2005                	jal	1150 <apb_gpio_set_direction+0x4>
    1132:	08090103          	lb	sp,128(s2)
    1136:	0100                	addi	s0,sp,128
    1138:	1505                	addi	a0,a0,-31
    113a:	08090003          	lb	zero,128(s2)
    113e:	0100                	addi	s0,sp,128
    1140:	10097f03          	0x10097f03
    1144:	0100                	addi	s0,sp,128
    1146:	0905                	addi	s2,s2,1
    1148:	04090303          	lb	t1,64(s2)
    114c:	0100                	addi	s0,sp,128
    114e:	0105                	addi	sp,sp,1
    1150:	08090103          	lb	sp,128(s2)
    1154:	0100                	addi	s0,sp,128
    1156:	1009                	c.nop	-30
    1158:	0000                	unimp
    115a:	0101                	addi	sp,sp,0
    115c:	3a05                	jal	a8c <tube_scan_disp+0x50>
    115e:	0500                	addi	s0,sp,640
    1160:	4402                	lw	s0,0(sp)
    1162:	0010                	0x10
    1164:	0300                	addi	s0,sp,384
    1166:	0181                	addi	gp,gp,0
    1168:	0501                	addi	a0,a0,0
    116a:	031a                	slli	t1,t1,0x6
    116c:	0901                	addi	s2,s2,0
    116e:	0014                	0x14
    1170:	0501                	addi	a0,a0,0
    1172:	0310                	addi	a2,sp,384
    1174:	0900                	addi	s0,sp,144
    1176:	000c                	0xc
    1178:	0501                	addi	a0,a0,0
    117a:	0901033b          	0x901033b
    117e:	0004                	0x4
    1180:	0501                	addi	a0,a0,0
    1182:	0320                	addi	s0,sp,392
    1184:	0901                	addi	s2,s2,0
    1186:	0008                	0x8
    1188:	0501                	addi	a0,a0,0
    118a:	0315                	addi	t1,t1,5
    118c:	0900                	addi	s0,sp,144
    118e:	0008                	0x8
    1190:	0301                	addi	t1,t1,0
    1192:	097f                	0x97f
    1194:	0010                	0x10
    1196:	0501                	addi	a0,a0,0
    1198:	030e                	slli	t1,t1,0x3
    119a:	00040903          	lb	s2,0(s0)
    119e:	0501                	addi	a0,a0,0
    11a0:	0301                	addi	t1,t1,0
    11a2:	0901                	addi	s2,s2,0
    11a4:	000c                	0xc
    11a6:	0901                	addi	s2,s2,0
    11a8:	0010                	0x10
    11aa:	0100                	addi	s0,sp,128
    11ac:	ce01                	beqz	a2,11c4 <init_apb_timer+0x38>
    11ae:	03000003          	lb	zero,48(zero) # 30 <_start-0x7d0>
    11b2:	4c00                	lw	s0,24(s0)
    11b4:	0002                	c.slli64	zero
    11b6:	0100                	addi	s0,sp,128
    11b8:	fb01                	bnez	a4,10c8 <apb_gpio_init+0x20>
    11ba:	0d0e                	slli	s10,s10,0x3
    11bc:	0100                	addi	s0,sp,128
    11be:	0101                	addi	sp,sp,0
    11c0:	0001                	nop
    11c2:	0000                	unimp
    11c4:	0001                	nop
    11c6:	0100                	addi	s0,sp,128
    11c8:	2e2e                	fld	ft8,200(sp)
    11ca:	2f2e2e2f          	0x2f2e2e2f
    11ce:	696c                	flw	fa1,84(a0)
    11d0:	0062                	c.slli	zero,0x18
    11d2:	3a65                	jal	b8a <main+0x9a>
    11d4:	735c                	flw	fa5,36(a4)
    11d6:	6e656963          	bltu	a0,t1,18c8 <_data_lma+0x518>
    11da:	6974                	flw	fa3,84(a0)
    11dc:	6966                	flw	fs2,88(sp)
    11de:	65725f63          	bge	tp,s7,183c <_data_lma+0x48c>
    11e2:	72616573          	csrrsi	a0,0x726,2
    11e6:	725c6863          	bltu	s8,t0,1916 <_data_lma+0x566>
    11ea:	7369                	lui	t1,0xffffa
    11ec:	5c762d63          	0x5c762d63
    11f0:	a1d0                	fsd	fa2,128(a1)
    11f2:	d6c5                	beqz	a3,119a <init_apb_timer+0xe>
    11f4:	efb4                	fsw	fa3,88(a5)
    11f6:	6972                	flw	fs2,28(sp)
    11f8:	762d6373          	csrrsi	t1,0x762,26
    11fc:	745c                	flw	fa5,44(s0)
    11fe:	736c6f6f          	jal	t5,c7934 <__stack_size+0xc5934>
    1202:	675c                	flw	fa5,12(a4)
    1204:	756e                	flw	fa0,248(sp)
    1206:	6d2d                	lui	s10,0xb
    1208:	652d7563          	bgeu	s10,s2,1852 <_data_lma+0x4a2>
    120c:	70696c63          	bltu	s2,t1,1924 <_data_lma+0x574>
    1210:	722d6573          	csrrsi	a0,0x722,26
    1214:	7369                	lui	t1,0xffffa
    1216:	6e2d7663          	bgeu	s10,sp,1902 <_data_lma+0x552>
    121a:	2d656e6f          	jal	t3,574f0 <__stack_size+0x554f0>
    121e:	2d636367          	0x2d636367
    1222:	2e38                	fld	fa4,88(a2)
    1224:	2e32                	fld	ft8,264(sp)
    1226:	2d30                	fld	fa2,88(a0)
    1228:	2e32                	fld	ft8,264(sp)
    122a:	2d32                	fld	fs10,264(sp)
    122c:	3032                	fld	ft0,296(sp)
    122e:	3931                	jal	e4a <trap_handler+0x7a>
    1230:	3530                	fld	fa2,104(a0)
    1232:	3132                	fld	ft2,296(sp)
    1234:	302d                	jal	a5e <tube_scan_disp+0x22>
    1236:	3030                	fld	fa2,96(s0)
    1238:	2d34                	fld	fa3,88(a0)
    123a:	366e6977          	0x366e6977
    123e:	5c34                	lw	a3,120(s0)
    1240:	6972                	flw	fs2,28(sp)
    1242:	2d766373          	csrrsi	t1,0x2d7,12
    1246:	6f6e                	flw	ft10,216(sp)
    1248:	656e                	flw	fa0,216(sp)
    124a:	652d                	lui	a0,0xb
    124c:	626d                	lui	tp,0x1b
    124e:	6465                	lui	s0,0x19
    1250:	695c                	flw	fa5,20(a0)
    1252:	636e                	flw	ft6,216(sp)
    1254:	756c                	flw	fa1,108(a0)
    1256:	6564                	flw	fs1,76(a0)
    1258:	6d5c                	flw	fa5,28(a0)
    125a:	6361                	lui	t1,0x18
    125c:	6968                	flw	fa0,84(a0)
    125e:	656e                	flw	fa0,216(sp)
    1260:	6500                	flw	fs0,8(a0)
    1262:	5c3a                	lw	s8,172(sp)
    1264:	65696373          	csrrsi	t1,0x656,18
    1268:	746e                	flw	fs0,248(sp)
    126a:	6669                	lui	a2,0x1a
    126c:	6369                	lui	t1,0x1a
    126e:	725f 7365 6165      	0x61657365725f
    1274:	6372                	flw	ft6,28(sp)
    1276:	5c68                	lw	a0,124(s0)
    1278:	6972                	flw	fs2,28(sp)
    127a:	762d6373          	csrrsi	t1,0x762,26
    127e:	d05c                	sw	a5,36(s0)
    1280:	c5a1                	beqz	a1,12c8 <init_apb_timer+0x13c>
    1282:	b4d6                	fsd	fs5,104(sp)
    1284:	736972ef          	jal	t0,989ba <__stack_size+0x969ba>
    1288:	5c762d63          	0x5c762d63
    128c:	6f74                	flw	fa3,92(a4)
    128e:	5c736c6f          	jal	s8,38054 <__stack_size+0x36054>
    1292:	2d756e67          	0x2d756e67
    1296:	636d                	lui	t1,0x1b
    1298:	2d75                	jal	1954 <_data_lma+0x5a4>
    129a:	6365                	lui	t1,0x19
    129c:	696c                	flw	fa1,84(a0)
    129e:	7370                	flw	fa2,100(a4)
    12a0:	2d65                	jal	1958 <_data_lma+0x5a8>
    12a2:	6972                	flw	fs2,28(sp)
    12a4:	2d766373          	csrrsi	t1,0x2d7,12
    12a8:	6f6e                	flw	ft10,216(sp)
    12aa:	656e                	flw	fa0,216(sp)
    12ac:	672d                	lui	a4,0xb
    12ae:	382d6363          	bltu	s10,sp,1634 <_data_lma+0x284>
    12b2:	322e                	fld	ft4,232(sp)
    12b4:	302e                	fld	ft0,232(sp)
    12b6:	322d                	jal	be0 <main+0xf0>
    12b8:	322e                	fld	ft4,232(sp)
    12ba:	322d                	jal	be4 <main+0xf4>
    12bc:	3130                	fld	fa2,96(a0)
    12be:	3039                	jal	acc <tube_scan_disp+0x90>
    12c0:	3235                	jal	bec <main+0xfc>
    12c2:	2d31                	jal	18de <_data_lma+0x52e>
    12c4:	3030                	fld	fa2,96(s0)
    12c6:	3430                	fld	fa2,104(s0)
    12c8:	772d                	lui	a4,0xfffeb
    12ca:	6e69                	lui	t3,0x1a
    12cc:	3436                	fld	fs0,360(sp)
    12ce:	725c                	flw	fa5,36(a2)
    12d0:	7369                	lui	t1,0xffffa
    12d2:	6e2d7663          	bgeu	s10,sp,19be <_data_lma+0x60e>
    12d6:	2d656e6f          	jal	t3,575ac <__stack_size+0x555ac>
    12da:	6d65                	lui	s10,0x19
    12dc:	6562                	flw	fa0,24(sp)
    12de:	5c64                	lw	s1,124(s0)
    12e0:	6e69                	lui	t3,0x1a
    12e2:	64756c63          	bltu	a0,t2,193a <_data_lma+0x58a>
    12e6:	5c65                	li	s8,-7
    12e8:	00737973          	csrrci	s2,0x7,6
    12ec:	2e2e                	fld	ft8,200(sp)
    12ee:	2f2e2e2f          	0x2f2e2e2f
    12f2:	696c                	flw	fa1,84(a0)
    12f4:	2f62                	fld	ft10,24(sp)
    12f6:	2e2e                	fld	ft8,200(sp)
    12f8:	636e692f          	0x636e692f
    12fc:	756c                	flw	fa1,108(a0)
    12fe:	6564                	flw	fs1,76(a0)
    1300:	6500                	flw	fs0,8(a0)
    1302:	5c3a                	lw	s8,172(sp)
    1304:	65696373          	csrrsi	t1,0x656,18
    1308:	746e                	flw	fs0,248(sp)
    130a:	6669                	lui	a2,0x1a
    130c:	6369                	lui	t1,0x1a
    130e:	725f 7365 6165      	0x61657365725f
    1314:	6372                	flw	ft6,28(sp)
    1316:	5c68                	lw	a0,124(s0)
    1318:	6972                	flw	fs2,28(sp)
    131a:	762d6373          	csrrsi	t1,0x762,26
    131e:	d05c                	sw	a5,36(s0)
    1320:	c5a1                	beqz	a1,1368 <apb_timer_get_itr_status+0x18>
    1322:	b4d6                	fsd	fs5,104(sp)
    1324:	736972ef          	jal	t0,98a5a <__stack_size+0x96a5a>
    1328:	5c762d63          	0x5c762d63
    132c:	6f74                	flw	fa3,92(a4)
    132e:	5c736c6f          	jal	s8,380f4 <__stack_size+0x360f4>
    1332:	2d756e67          	0x2d756e67
    1336:	636d                	lui	t1,0x1b
    1338:	2d75                	jal	19f4 <_data_lma+0x644>
    133a:	6365                	lui	t1,0x19
    133c:	696c                	flw	fa1,84(a0)
    133e:	7370                	flw	fa2,100(a4)
    1340:	2d65                	jal	19f8 <_data_lma+0x648>
    1342:	6972                	flw	fs2,28(sp)
    1344:	2d766373          	csrrsi	t1,0x2d7,12
    1348:	6f6e                	flw	ft10,216(sp)
    134a:	656e                	flw	fa0,216(sp)
    134c:	672d                	lui	a4,0xb
    134e:	382d6363          	bltu	s10,sp,16d4 <_data_lma+0x324>
    1352:	322e                	fld	ft4,232(sp)
    1354:	302e                	fld	ft0,232(sp)
    1356:	322d                	jal	c80 <main+0x190>
    1358:	322e                	fld	ft4,232(sp)
    135a:	322d                	jal	c84 <main+0x194>
    135c:	3130                	fld	fa2,96(a0)
    135e:	3039                	jal	b6c <main+0x7c>
    1360:	3235                	jal	c8c <main+0x19c>
    1362:	2d31                	jal	197e <_data_lma+0x5ce>
    1364:	3030                	fld	fa2,96(s0)
    1366:	3430                	fld	fa2,104(s0)
    1368:	772d                	lui	a4,0xfffeb
    136a:	6e69                	lui	t3,0x1a
    136c:	3436                	fld	fs0,360(sp)
    136e:	725c                	flw	fa5,36(a2)
    1370:	7369                	lui	t1,0xffffa
    1372:	6e2d7663          	bgeu	s10,sp,1a5e <_data_lma+0x6ae>
    1376:	2d656e6f          	jal	t3,5764c <__stack_size+0x5564c>
    137a:	6d65                	lui	s10,0x19
    137c:	6562                	flw	fa0,24(sp)
    137e:	5c64                	lw	s1,124(s0)
    1380:	6e69                	lui	t3,0x1a
    1382:	64756c63          	bltu	a0,t2,19da <_data_lma+0x62a>
    1386:	0065                	c.nop	25
    1388:	6100                	flw	fs0,0(a0)
    138a:	6270                	flw	fa2,68(a2)
    138c:	675f 6970 2e6f      	0x2e6f6970675f
    1392:	00010063          	beqz	sp,1392 <apb_timer_clear_itr_flag+0xe>
    1396:	5f00                	lw	s0,56(a4)
    1398:	6564                	flw	fs1,76(a0)
    139a:	6166                	flw	ft2,88(sp)
    139c:	6c75                	lui	s8,0x1d
    139e:	5f74                	lw	a3,124(a4)
    13a0:	7974                	flw	fa3,116(a0)
    13a2:	6570                	flw	fa2,76(a0)
    13a4:	00682e73          	csrrs	t3,0x6,a6
    13a8:	0002                	c.slli64	zero
    13aa:	5f00                	lw	s0,56(a4)
    13ac:	69647473          	csrrci	s0,0x696,8
    13b0:	746e                	flw	fs0,248(sp)
    13b2:	682e                	flw	fa6,200(sp)
    13b4:	0300                	addi	s0,sp,384
    13b6:	0000                	unimp
    13b8:	7061                	c.lui	zero,0xffff8
    13ba:	5f62                	lw	t5,56(sp)
    13bc:	6f697067          	0x6f697067
    13c0:	682e                	flw	fa6,200(sp)
    13c2:	0400                	addi	s0,sp,512
    13c4:	0000                	unimp
    13c6:	69647473          	csrrci	s0,0x696,8
    13ca:	746e                	flw	fs0,248(sp)
    13cc:	682e                	flw	fa6,200(sp)
    13ce:	0500                	addi	s0,sp,640
    13d0:	0000                	unimp
    13d2:	6566                	flw	fa0,88(sp)
    13d4:	7461                	lui	s0,0xffff8
    13d6:	7275                	lui	tp,0xffffd
    13d8:	7365                	lui	t1,0xffff9
    13da:	682e                	flw	fa6,200(sp)
    13dc:	0300                	addi	s0,sp,384
    13de:	0000                	unimp
    13e0:	6e5f 7765 696c      	0x696c77656e5f
    13e6:	5f62                	lw	t5,56(sp)
    13e8:	6576                	flw	fa0,92(sp)
    13ea:	7372                	flw	ft6,60(sp)
    13ec:	6f69                	lui	t5,0x1a
    13ee:	2e6e                	fld	ft8,216(sp)
    13f0:	0068                	addi	a0,sp,12
    13f2:	0005                	c.nop	1
    13f4:	5f00                	lw	s0,56(a4)
    13f6:	6e69                	lui	t3,0x1a
    13f8:	7374                	flw	fa3,100(a4)
    13fa:	7075                	c.lui	zero,0xffffd
    13fc:	682e                	flw	fa6,200(sp)
    13fe:	0300                	addi	s0,sp,384
    1400:	0000                	unimp
    1402:	0500                	addi	s0,sp,640
    1404:	003a                	c.slli	zero,0xe
    1406:	0205                	addi	tp,tp,1
    1408:	10a8                	addi	a0,sp,104
    140a:	0000                	unimp
    140c:	05011403          	lh	s0,80(sp)
    1410:	09010317          	auipc	t1,0x9010
    1414:	0014                	0x14
    1416:	0501                	addi	a0,a0,0
    1418:	0315                	addi	t1,t1,5
    141a:	0900                	addi	s0,sp,144
    141c:	0004                	0x4
    141e:	0501                	addi	a0,a0,0
    1420:	0301                	addi	t1,t1,0
    1422:	0901                	addi	s2,s2,0
    1424:	0008                	0x8
    1426:	0901                	addi	s2,s2,0
    1428:	0010                	0x10
    142a:	0100                	addi	s0,sp,128
    142c:	0501                	addi	a0,a0,0
    142e:	004a                	c.slli	zero,0x12
    1430:	0205                	addi	tp,tp,1
    1432:	10d8                	addi	a4,sp,100
    1434:	0000                	unimp
    1436:	05012103          	lw	sp,80(sp)
    143a:	030a                	slli	t1,t1,0x2
    143c:	0901                	addi	s2,s2,0
    143e:	0018                	0x18
    1440:	0501                	addi	a0,a0,0
    1442:	031f 0900 0008      	0x80900031f
    1448:	0501                	addi	a0,a0,0
    144a:	030a                	slli	t1,t1,0x2
    144c:	0901                	addi	s2,s2,0
    144e:	0008                	0x8
    1450:	0501                	addi	a0,a0,0
    1452:	031c                	addi	a5,sp,384
    1454:	0900                	addi	s0,sp,144
    1456:	0008                	0x8
    1458:	0501                	addi	a0,a0,0
    145a:	0301                	addi	t1,t1,0
    145c:	0901                	addi	s2,s2,0
    145e:	0008                	0x8
    1460:	0901                	addi	s2,s2,0
    1462:	0010                	0x10
    1464:	0100                	addi	s0,sp,128
    1466:	0501                	addi	a0,a0,0
    1468:	002e                	c.slli	zero,0xb
    146a:	0205                	addi	tp,tp,1
    146c:	1120                	addi	s0,sp,168
    146e:	0000                	unimp
    1470:	05012d03          	lw	s10,80(sp)
    1474:	0311                	addi	t1,t1,4
    1476:	0901                	addi	s2,s2,0
    1478:	0010                	0x10
    147a:	0501                	addi	a0,a0,0
    147c:	0900031b          	0x900031b
    1480:	0008                	0x8
    1482:	0501                	addi	a0,a0,0
    1484:	0301                	addi	t1,t1,0
    1486:	0901                	addi	s2,s2,0
    1488:	0004                	0x4
    148a:	0901                	addi	s2,s2,0
    148c:	0010                	0x10
    148e:	0100                	addi	s0,sp,128
    1490:	0501                	addi	a0,a0,0
    1492:	003e                	c.slli	zero,0xf
    1494:	0205                	addi	tp,tp,1
    1496:	114c                	addi	a1,sp,164
    1498:	0000                	unimp
    149a:	05013903          	0x5013903
    149e:	0315                	addi	t1,t1,5
    14a0:	0901                	addi	s2,s2,0
    14a2:	0014                	0x14
    14a4:	0501                	addi	a0,a0,0
    14a6:	030a                	slli	t1,t1,0x2
    14a8:	0901                	addi	s2,s2,0
    14aa:	000c                	0xc
    14ac:	0501                	addi	a0,a0,0
    14ae:	0900031b          	0x900031b
    14b2:	0008                	0x8
    14b4:	0501                	addi	a0,a0,0
    14b6:	0301                	addi	t1,t1,0
    14b8:	0901                	addi	s2,s2,0
    14ba:	0008                	0x8
    14bc:	0901                	addi	s2,s2,0
    14be:	0010                	0x10
    14c0:	0100                	addi	s0,sp,128
    14c2:	0501                	addi	a0,a0,0
    14c4:	003d                	c.nop	15
    14c6:	0205                	addi	tp,tp,1
    14c8:	0000                	unimp
    14ca:	0000                	unimp
    14cc:	0100c603          	lbu	a2,16(ra)
    14d0:	0a05                	addi	s4,s4,1
    14d2:	00090103          	lb	sp,0(s2)
    14d6:	0100                	addi	s0,sp,128
    14d8:	2105                	jal	18f8 <_data_lma+0x548>
    14da:	00090003          	lb	zero,0(s2)
    14de:	0100                	addi	s0,sp,128
    14e0:	0a05                	addi	s4,s4,1
    14e2:	00090103          	lb	sp,0(s2)
    14e6:	0100                	addi	s0,sp,128
    14e8:	1d05                	addi	s10,s10,-31
    14ea:	00090003          	lb	zero,0(s2)
    14ee:	0100                	addi	s0,sp,128
    14f0:	0105                	addi	sp,sp,1
    14f2:	00090103          	lb	sp,0(s2)
    14f6:	0100                	addi	s0,sp,128
    14f8:	0009                	c.nop	2
    14fa:	0000                	unimp
    14fc:	0101                	addi	sp,sp,0
    14fe:	2d05                	jal	1b2e <_data_lma+0x77e>
    1500:	0500                	addi	s0,sp,640
    1502:	0002                	c.slli64	zero
    1504:	0000                	unimp
    1506:	0300                	addi	s0,sp,384
    1508:	00d2                	slli	ra,ra,0x14
    150a:	0501                	addi	a0,a0,0
    150c:	030a                	slli	t1,t1,0x2
    150e:	0901                	addi	s2,s2,0
    1510:	0000                	unimp
    1512:	0501                	addi	a0,a0,0
    1514:	0321                	addi	t1,t1,8
    1516:	0900                	addi	s0,sp,144
    1518:	0000                	unimp
    151a:	0501                	addi	a0,a0,0
    151c:	0301                	addi	t1,t1,0
    151e:	0901                	addi	s2,s2,0
    1520:	0000                	unimp
    1522:	0901                	addi	s2,s2,0
    1524:	0000                	unimp
    1526:	0100                	addi	s0,sp,128
    1528:	0501                	addi	a0,a0,0
    152a:	0034                	addi	a3,sp,8
    152c:	0205                	addi	tp,tp,1
    152e:	0000                	unimp
    1530:	0000                	unimp
    1532:	0100dd03          	lhu	s10,16(ra)
    1536:	1105                	addi	sp,sp,-31
    1538:	00090103          	lb	sp,0(s2)
    153c:	0100                	addi	s0,sp,128
    153e:	1b05                	addi	s6,s6,-31
    1540:	00090003          	lb	zero,0(s2)
    1544:	0100                	addi	s0,sp,128
    1546:	0105                	addi	sp,sp,1
    1548:	00090103          	lb	sp,0(s2)
    154c:	0100                	addi	s0,sp,128
    154e:	0009                	c.nop	2
    1550:	0000                	unimp
    1552:	0101                	addi	sp,sp,0
    1554:	3005                	jal	d74 <main+0x284>
    1556:	0500                	addi	s0,sp,640
    1558:	0002                	c.slli64	zero
    155a:	0000                	unimp
    155c:	0300                	addi	s0,sp,384
    155e:	00e8                	addi	a0,sp,76
    1560:	0501                	addi	a0,a0,0
    1562:	030a                	slli	t1,t1,0x2
    1564:	0901                	addi	s2,s2,0
    1566:	0000                	unimp
    1568:	0501                	addi	a0,a0,0
    156a:	0321                	addi	t1,t1,8
    156c:	0900                	addi	s0,sp,144
    156e:	0000                	unimp
    1570:	0501                	addi	a0,a0,0
    1572:	0301                	addi	t1,t1,0
    1574:	0901                	addi	s2,s2,0
    1576:	0000                	unimp
    1578:	0901                	addi	s2,s2,0
    157a:	0000                	unimp
    157c:	0100                	addi	s0,sp,128
    157e:	d101                	beqz	a0,147e <_data_lma+0xce>
    1580:	03000007          	0x3000007
    1584:	4e00                	lw	s0,24(a2)
    1586:	0002                	c.slli64	zero
    1588:	0100                	addi	s0,sp,128
    158a:	fb01                	bnez	a4,149a <_data_lma+0xea>
    158c:	0d0e                	slli	s10,s10,0x3
    158e:	0100                	addi	s0,sp,128
    1590:	0101                	addi	sp,sp,0
    1592:	0001                	nop
    1594:	0000                	unimp
    1596:	0001                	nop
    1598:	0100                	addi	s0,sp,128
    159a:	2e2e                	fld	ft8,200(sp)
    159c:	2f2e2e2f          	0x2f2e2e2f
    15a0:	696c                	flw	fa1,84(a0)
    15a2:	0062                	c.slli	zero,0x18
    15a4:	3a65                	jal	f5c <plic_enable_interrupt+0x64>
    15a6:	735c                	flw	fa5,36(a4)
    15a8:	6e656963          	bltu	a0,t1,1c9a <_data_lma+0x8ea>
    15ac:	6974                	flw	fa3,84(a0)
    15ae:	6966                	flw	fs2,88(sp)
    15b0:	65725f63          	bge	tp,s7,1c0e <_data_lma+0x85e>
    15b4:	72616573          	csrrsi	a0,0x726,2
    15b8:	725c6863          	bltu	s8,t0,1ce8 <_data_lma+0x938>
    15bc:	7369                	lui	t1,0xffffa
    15be:	5c762d63          	0x5c762d63
    15c2:	a1d0                	fsd	fa2,128(a1)
    15c4:	d6c5                	beqz	a3,156c <_data_lma+0x1bc>
    15c6:	efb4                	fsw	fa3,88(a5)
    15c8:	6972                	flw	fs2,28(sp)
    15ca:	762d6373          	csrrsi	t1,0x762,26
    15ce:	745c                	flw	fa5,44(s0)
    15d0:	736c6f6f          	jal	t5,c7d06 <__stack_size+0xc5d06>
    15d4:	675c                	flw	fa5,12(a4)
    15d6:	756e                	flw	fa0,248(sp)
    15d8:	6d2d                	lui	s10,0xb
    15da:	652d7563          	bgeu	s10,s2,1c24 <_data_lma+0x874>
    15de:	70696c63          	bltu	s2,t1,1cf6 <_data_lma+0x946>
    15e2:	722d6573          	csrrsi	a0,0x722,26
    15e6:	7369                	lui	t1,0xffffa
    15e8:	6e2d7663          	bgeu	s10,sp,1cd4 <_data_lma+0x924>
    15ec:	2d656e6f          	jal	t3,578c2 <__stack_size+0x558c2>
    15f0:	2d636367          	0x2d636367
    15f4:	2e38                	fld	fa4,88(a2)
    15f6:	2e32                	fld	ft8,264(sp)
    15f8:	2d30                	fld	fa2,88(a0)
    15fa:	2e32                	fld	ft8,264(sp)
    15fc:	2d32                	fld	fs10,264(sp)
    15fe:	3032                	fld	ft0,296(sp)
    1600:	3931                	jal	121c <init_apb_timer+0x90>
    1602:	3530                	fld	fa2,104(a0)
    1604:	3132                	fld	ft2,296(sp)
    1606:	302d                	jal	e30 <trap_handler+0x60>
    1608:	3030                	fld	fa2,96(s0)
    160a:	2d34                	fld	fa3,88(a0)
    160c:	366e6977          	0x366e6977
    1610:	5c34                	lw	a3,120(s0)
    1612:	6972                	flw	fs2,28(sp)
    1614:	2d766373          	csrrsi	t1,0x2d7,12
    1618:	6f6e                	flw	ft10,216(sp)
    161a:	656e                	flw	fa0,216(sp)
    161c:	652d                	lui	a0,0xb
    161e:	626d                	lui	tp,0x1b
    1620:	6465                	lui	s0,0x19
    1622:	695c                	flw	fa5,20(a0)
    1624:	636e                	flw	ft6,216(sp)
    1626:	756c                	flw	fa1,108(a0)
    1628:	6564                	flw	fs1,76(a0)
    162a:	6d5c                	flw	fa5,28(a0)
    162c:	6361                	lui	t1,0x18
    162e:	6968                	flw	fa0,84(a0)
    1630:	656e                	flw	fa0,216(sp)
    1632:	6500                	flw	fs0,8(a0)
    1634:	5c3a                	lw	s8,172(sp)
    1636:	65696373          	csrrsi	t1,0x656,18
    163a:	746e                	flw	fs0,248(sp)
    163c:	6669                	lui	a2,0x1a
    163e:	6369                	lui	t1,0x1a
    1640:	725f 7365 6165      	0x61657365725f
    1646:	6372                	flw	ft6,28(sp)
    1648:	5c68                	lw	a0,124(s0)
    164a:	6972                	flw	fs2,28(sp)
    164c:	762d6373          	csrrsi	t1,0x762,26
    1650:	d05c                	sw	a5,36(s0)
    1652:	c5a1                	beqz	a1,169a <_data_lma+0x2ea>
    1654:	b4d6                	fsd	fs5,104(sp)
    1656:	736972ef          	jal	t0,98d8c <__stack_size+0x96d8c>
    165a:	5c762d63          	0x5c762d63
    165e:	6f74                	flw	fa3,92(a4)
    1660:	5c736c6f          	jal	s8,38426 <__stack_size+0x36426>
    1664:	2d756e67          	0x2d756e67
    1668:	636d                	lui	t1,0x1b
    166a:	2d75                	jal	1d26 <_data_lma+0x976>
    166c:	6365                	lui	t1,0x19
    166e:	696c                	flw	fa1,84(a0)
    1670:	7370                	flw	fa2,100(a4)
    1672:	2d65                	jal	1d2a <_data_lma+0x97a>
    1674:	6972                	flw	fs2,28(sp)
    1676:	2d766373          	csrrsi	t1,0x2d7,12
    167a:	6f6e                	flw	ft10,216(sp)
    167c:	656e                	flw	fa0,216(sp)
    167e:	672d                	lui	a4,0xb
    1680:	382d6363          	bltu	s10,sp,1a06 <_data_lma+0x656>
    1684:	322e                	fld	ft4,232(sp)
    1686:	302e                	fld	ft0,232(sp)
    1688:	322d                	jal	fb2 <plic_set_priority+0x16>
    168a:	322e                	fld	ft4,232(sp)
    168c:	322d                	jal	fb6 <plic_set_priority+0x1a>
    168e:	3130                	fld	fa2,96(a0)
    1690:	3039                	jal	e9e <plic_set_threshold+0x6>
    1692:	3235                	jal	fbe <plic_set_priority+0x22>
    1694:	2d31                	jal	1cb0 <_data_lma+0x900>
    1696:	3030                	fld	fa2,96(s0)
    1698:	3430                	fld	fa2,104(s0)
    169a:	772d                	lui	a4,0xfffeb
    169c:	6e69                	lui	t3,0x1a
    169e:	3436                	fld	fs0,360(sp)
    16a0:	725c                	flw	fa5,36(a2)
    16a2:	7369                	lui	t1,0xffffa
    16a4:	6e2d7663          	bgeu	s10,sp,1d90 <_data_lma+0x9e0>
    16a8:	2d656e6f          	jal	t3,5797e <__stack_size+0x5597e>
    16ac:	6d65                	lui	s10,0x19
    16ae:	6562                	flw	fa0,24(sp)
    16b0:	5c64                	lw	s1,124(s0)
    16b2:	6e69                	lui	t3,0x1a
    16b4:	64756c63          	bltu	a0,t2,1d0c <_data_lma+0x95c>
    16b8:	5c65                	li	s8,-7
    16ba:	00737973          	csrrci	s2,0x7,6
    16be:	2e2e                	fld	ft8,200(sp)
    16c0:	2f2e2e2f          	0x2f2e2e2f
    16c4:	696c                	flw	fa1,84(a0)
    16c6:	2f62                	fld	ft10,24(sp)
    16c8:	2e2e                	fld	ft8,200(sp)
    16ca:	636e692f          	0x636e692f
    16ce:	756c                	flw	fa1,108(a0)
    16d0:	6564                	flw	fs1,76(a0)
    16d2:	6500                	flw	fs0,8(a0)
    16d4:	5c3a                	lw	s8,172(sp)
    16d6:	65696373          	csrrsi	t1,0x656,18
    16da:	746e                	flw	fs0,248(sp)
    16dc:	6669                	lui	a2,0x1a
    16de:	6369                	lui	t1,0x1a
    16e0:	725f 7365 6165      	0x61657365725f
    16e6:	6372                	flw	ft6,28(sp)
    16e8:	5c68                	lw	a0,124(s0)
    16ea:	6972                	flw	fs2,28(sp)
    16ec:	762d6373          	csrrsi	t1,0x762,26
    16f0:	d05c                	sw	a5,36(s0)
    16f2:	c5a1                	beqz	a1,173a <_data_lma+0x38a>
    16f4:	b4d6                	fsd	fs5,104(sp)
    16f6:	736972ef          	jal	t0,98e2c <__stack_size+0x96e2c>
    16fa:	5c762d63          	0x5c762d63
    16fe:	6f74                	flw	fa3,92(a4)
    1700:	5c736c6f          	jal	s8,384c6 <__stack_size+0x364c6>
    1704:	2d756e67          	0x2d756e67
    1708:	636d                	lui	t1,0x1b
    170a:	2d75                	jal	1dc6 <_data_lma+0xa16>
    170c:	6365                	lui	t1,0x19
    170e:	696c                	flw	fa1,84(a0)
    1710:	7370                	flw	fa2,100(a4)
    1712:	2d65                	jal	1dca <_data_lma+0xa1a>
    1714:	6972                	flw	fs2,28(sp)
    1716:	2d766373          	csrrsi	t1,0x2d7,12
    171a:	6f6e                	flw	ft10,216(sp)
    171c:	656e                	flw	fa0,216(sp)
    171e:	672d                	lui	a4,0xb
    1720:	382d6363          	bltu	s10,sp,1aa6 <_data_lma+0x6f6>
    1724:	322e                	fld	ft4,232(sp)
    1726:	302e                	fld	ft0,232(sp)
    1728:	322d                	jal	1052 <plic_complete_interrupt+0xe>
    172a:	322e                	fld	ft4,232(sp)
    172c:	322d                	jal	1056 <plic_complete_interrupt+0x12>
    172e:	3130                	fld	fa2,96(a0)
    1730:	3039                	jal	f3e <plic_enable_interrupt+0x46>
    1732:	3235                	jal	105e <plic_complete_interrupt+0x1a>
    1734:	2d31                	jal	1d50 <_data_lma+0x9a0>
    1736:	3030                	fld	fa2,96(s0)
    1738:	3430                	fld	fa2,104(s0)
    173a:	772d                	lui	a4,0xfffeb
    173c:	6e69                	lui	t3,0x1a
    173e:	3436                	fld	fs0,360(sp)
    1740:	725c                	flw	fa5,36(a2)
    1742:	7369                	lui	t1,0xffffa
    1744:	6e2d7663          	bgeu	s10,sp,1e30 <_data_lma+0xa80>
    1748:	2d656e6f          	jal	t3,57a1e <__stack_size+0x55a1e>
    174c:	6d65                	lui	s10,0x19
    174e:	6562                	flw	fa0,24(sp)
    1750:	5c64                	lw	s1,124(s0)
    1752:	6e69                	lui	t3,0x1a
    1754:	64756c63          	bltu	a0,t2,1dac <_data_lma+0x9fc>
    1758:	0065                	c.nop	25
    175a:	6100                	flw	fs0,0(a0)
    175c:	6270                	flw	fa2,68(a2)
    175e:	745f 6d69 7265      	0x72656d69745f
    1764:	632e                	flw	ft6,200(sp)
    1766:	0100                	addi	s0,sp,128
    1768:	0000                	unimp
    176a:	645f 6665 7561      	0x75616665645f
    1770:	746c                	flw	fa1,108(s0)
    1772:	745f 7079 7365      	0x73657079745f
    1778:	682e                	flw	fa6,200(sp)
    177a:	0200                	addi	s0,sp,256
    177c:	0000                	unimp
    177e:	735f 6474 6e69      	0x6e696474735f
    1784:	2e74                	fld	fa3,216(a2)
    1786:	0068                	addi	a0,sp,12
    1788:	61000003          	lb	zero,1552(zero) # 610 <_start-0x1f0>
    178c:	6270                	flw	fa2,68(a2)
    178e:	745f 6d69 7265      	0x72656d69745f
    1794:	682e                	flw	fa6,200(sp)
    1796:	0400                	addi	s0,sp,512
    1798:	0000                	unimp
    179a:	69647473          	csrrci	s0,0x696,8
    179e:	746e                	flw	fs0,248(sp)
    17a0:	682e                	flw	fa6,200(sp)
    17a2:	0500                	addi	s0,sp,640
    17a4:	0000                	unimp
    17a6:	6566                	flw	fa0,88(sp)
    17a8:	7461                	lui	s0,0xffff8
    17aa:	7275                	lui	tp,0xffffd
    17ac:	7365                	lui	t1,0xffff9
    17ae:	682e                	flw	fa6,200(sp)
    17b0:	0300                	addi	s0,sp,384
    17b2:	0000                	unimp
    17b4:	6e5f 7765 696c      	0x696c77656e5f
    17ba:	5f62                	lw	t5,56(sp)
    17bc:	6576                	flw	fa0,92(sp)
    17be:	7372                	flw	ft6,60(sp)
    17c0:	6f69                	lui	t5,0x1a
    17c2:	2e6e                	fld	ft8,216(sp)
    17c4:	0068                	addi	a0,sp,12
    17c6:	0005                	c.nop	1
    17c8:	5f00                	lw	s0,56(a4)
    17ca:	6e69                	lui	t3,0x1a
    17cc:	7374                	flw	fa3,100(a4)
    17ce:	7075                	c.lui	zero,0xffffd
    17d0:	682e                	flw	fa6,200(sp)
    17d2:	0300                	addi	s0,sp,384
    17d4:	0000                	unimp
    17d6:	0500                	addi	s0,sp,640
    17d8:	02050057          	0x2050057
    17dc:	118c                	addi	a1,sp,224
    17de:	0000                	unimp
    17e0:	05011b03          	lh	s6,80(sp)
    17e4:	0314                	addi	a3,sp,384
    17e6:	0901                	addi	s2,s2,0
    17e8:	0018                	0x18
    17ea:	0501                	addi	a0,a0,0
    17ec:	0312                	slli	t1,t1,0x4
    17ee:	0900                	addi	s0,sp,144
    17f0:	0004                	0x4
    17f2:	0501                	addi	a0,a0,0
    17f4:	031a                	slli	t1,t1,0x6
    17f6:	0902                	c.slli64	s2
    17f8:	0008                	0x8
    17fa:	0501                	addi	a0,a0,0
    17fc:	0312                	slli	t1,t1,0x4
    17fe:	0900                	addi	s0,sp,144
    1800:	0008                	0x8
    1802:	0501                	addi	a0,a0,0
    1804:	0901031b          	0x901031b
    1808:	0008                	0x8
    180a:	0501                	addi	a0,a0,0
    180c:	09000313          	li	t1,144
    1810:	0008                	0x8
    1812:	0501                	addi	a0,a0,0
    1814:	031d                	addi	t1,t1,7
    1816:	0901                	addi	s2,s2,0
    1818:	0008                	0x8
    181a:	0501                	addi	a0,a0,0
    181c:	0315                	addi	t1,t1,5
    181e:	0900                	addi	s0,sp,144
    1820:	0008                	0x8
    1822:	0501                	addi	a0,a0,0
    1824:	09010317          	auipc	t1,0x9010
    1828:	0008                	0x8
    182a:	0501                	addi	a0,a0,0
    182c:	0900030f          	0x900030f
    1830:	0008                	0x8
    1832:	0501                	addi	a0,a0,0
    1834:	09020307          	0x9020307
    1838:	0008                	0x8
    183a:	0501                	addi	a0,a0,0
    183c:	0324                	addi	s1,sp,392
    183e:	0900                	addi	s0,sp,144
    1840:	0008                	0x8
    1842:	0501                	addi	a0,a0,0
    1844:	031c                	addi	a5,sp,384
    1846:	0900                	addi	s0,sp,144
    1848:	0008                	0x8
    184a:	0501                	addi	a0,a0,0
    184c:	09010307          	0x9010307
    1850:	0004                	0x4
    1852:	0501                	addi	a0,a0,0
    1854:	0325                	addi	t1,t1,9
    1856:	0900                	addi	s0,sp,144
    1858:	0008                	0x8
    185a:	0501                	addi	a0,a0,0
    185c:	031d                	addi	t1,t1,7
    185e:	0900                	addi	s0,sp,144
    1860:	0008                	0x8
    1862:	0501                	addi	a0,a0,0
    1864:	09010307          	0x9010307
    1868:	0004                	0x4
    186a:	0501                	addi	a0,a0,0
    186c:	0321                	addi	t1,t1,8
    186e:	0900                	addi	s0,sp,144
    1870:	0008                	0x8
    1872:	0501                	addi	a0,a0,0
    1874:	0319                	addi	t1,t1,6
    1876:	0900                	addi	s0,sp,144
    1878:	0008                	0x8
    187a:	0501                	addi	a0,a0,0
    187c:	032c                	addi	a1,sp,392
    187e:	0901                	addi	s2,s2,0
    1880:	0004                	0x4
    1882:	0501                	addi	a0,a0,0
    1884:	031c                	addi	a5,sp,384
    1886:	0900                	addi	s0,sp,144
    1888:	0008                	0x8
    188a:	0501                	addi	a0,a0,0
    188c:	09000307          	0x9000307
    1890:	0004                	0x4
    1892:	0501                	addi	a0,a0,0
    1894:	0900033b          	0x900033b
    1898:	0008                	0x8
    189a:	0501                	addi	a0,a0,0
    189c:	0318                	addi	a4,sp,384
    189e:	0900                	addi	s0,sp,144
    18a0:	0004                	0x4
    18a2:	0501                	addi	a0,a0,0
    18a4:	030e                	slli	t1,t1,0x3
    18a6:	0902                	c.slli64	s2
    18a8:	0004                	0x4
    18aa:	0501                	addi	a0,a0,0
    18ac:	0302                	c.slli64	t1
    18ae:	0900                	addi	s0,sp,144
    18b0:	0004                	0x4
    18b2:	0501                	addi	a0,a0,0
    18b4:	030e                	slli	t1,t1,0x3
    18b6:	0901                	addi	s2,s2,0
    18b8:	0004                	0x4
    18ba:	0501                	addi	a0,a0,0
    18bc:	031c                	addi	a5,sp,384
    18be:	0900                	addi	s0,sp,144
    18c0:	000c                	0xc
    18c2:	0501                	addi	a0,a0,0
    18c4:	0322                	slli	t1,t1,0x8
    18c6:	0900                	addi	s0,sp,144
    18c8:	0008                	0x8
    18ca:	0501                	addi	a0,a0,0
    18cc:	0305                	addi	t1,t1,1
    18ce:	0900                	addi	s0,sp,144
    18d0:	0004                	0x4
    18d2:	0501                	addi	a0,a0,0
    18d4:	034d                	addi	t1,t1,19
    18d6:	0902                	c.slli64	s2
    18d8:	0004                	0x4
    18da:	0501                	addi	a0,a0,0
    18dc:	032d                	addi	t1,t1,11
    18de:	0900                	addi	s0,sp,144
    18e0:	0010                	0x10
    18e2:	0501                	addi	a0,a0,0
    18e4:	0329                	addi	t1,t1,10
    18e6:	0901                	addi	s2,s2,0
    18e8:	0004                	0x4
    18ea:	0501                	addi	a0,a0,0
    18ec:	032e                	slli	t1,t1,0xb
    18ee:	0900                	addi	s0,sp,144
    18f0:	0010                	0x10
    18f2:	0501                	addi	a0,a0,0
    18f4:	0309                	addi	t1,t1,2
    18f6:	097f                	0x97f
    18f8:	0004                	0x4
    18fa:	0501                	addi	a0,a0,0
    18fc:	031e                	slli	t1,t1,0x7
    18fe:	0900                	addi	s0,sp,144
    1900:	0008                	0x8
    1902:	0501                	addi	a0,a0,0
    1904:	0352                	slli	t1,t1,0x14
    1906:	0900                	addi	s0,sp,144
    1908:	0004                	0x4
    190a:	0501                	addi	a0,a0,0
    190c:	032a                	slli	t1,t1,0xa
    190e:	0900                	addi	s0,sp,144
    1910:	0004                	0x4
    1912:	0501                	addi	a0,a0,0
    1914:	0334                	addi	a3,sp,392
    1916:	0904                	addi	s1,sp,144
    1918:	0014                	0x14
    191a:	0501                	addi	a0,a0,0
    191c:	0309                	addi	t1,t1,2
    191e:	0900                	addi	s0,sp,144
    1920:	0004                	0x4
    1922:	0501                	addi	a0,a0,0
    1924:	031e                	slli	t1,t1,0x7
    1926:	0900                	addi	s0,sp,144
    1928:	0008                	0x8
    192a:	0501                	addi	a0,a0,0
    192c:	0334                	addi	a3,sp,392
    192e:	0900                	addi	s0,sp,144
    1930:	0004                	0x4
    1932:	0501                	addi	a0,a0,0
    1934:	09000327          	0x9000327
    1938:	0010                	0x10
    193a:	0501                	addi	a0,a0,0
    193c:	0402001b          	0x402001b
    1940:	0302                	c.slli64	t1
    1942:	0979                	addi	s2,s2,30
    1944:	0010                	0x10
    1946:	0501                	addi	a0,a0,0
    1948:	0002                	c.slli64	zero
    194a:	0402                	c.slli64	s0
    194c:	0301                	addi	t1,t1,0
    194e:	0900                	addi	s0,sp,144
    1950:	000c                	0xc
    1952:	0501                	addi	a0,a0,0
    1954:	0301                	addi	t1,t1,0
    1956:	090a                	slli	s2,s2,0x2
    1958:	000c                	0xc
    195a:	0901                	addi	s2,s2,0
    195c:	0010                	0x10
    195e:	0100                	addi	s0,sp,128
    1960:	0501                	addi	a0,a0,0
    1962:	0205003b          	0x205003b
    1966:	1310                	addi	a2,sp,416
    1968:	0000                	unimp
    196a:	05013c03          	0x5013c03
    196e:	031e                	slli	t1,t1,0x7
    1970:	0901                	addi	s2,s2,0
    1972:	0018                	0x18
    1974:	0501                	addi	a0,a0,0
    1976:	0330                	addi	a2,sp,392
    1978:	0900                	addi	s0,sp,144
    197a:	0004                	0x4
    197c:	0501                	addi	a0,a0,0
    197e:	09000307          	0x9000307
    1982:	0004                	0x4
    1984:	0501                	addi	a0,a0,0
    1986:	0336                	slli	t1,t1,0xd
    1988:	0900                	addi	s0,sp,144
    198a:	0008                	0x8
    198c:	0501                	addi	a0,a0,0
    198e:	031a                	slli	t1,t1,0x6
    1990:	0900                	addi	s0,sp,144
    1992:	0004                	0x4
    1994:	0501                	addi	a0,a0,0
    1996:	0301                	addi	t1,t1,0
    1998:	0901                	addi	s2,s2,0
    199a:	0004                	0x4
    199c:	0901                	addi	s2,s2,0
    199e:	0010                	0x10
    19a0:	0100                	addi	s0,sp,128
    19a2:	0501                	addi	a0,a0,0
    19a4:	002c                	addi	a1,sp,8
    19a6:	0205                	addi	tp,tp,1
    19a8:	0000                	unimp
    19aa:	0000                	unimp
    19ac:	0100c703          	lbu	a4,16(ra)
    19b0:	0705                	addi	a4,a4,1
    19b2:	00090103          	lb	sp,0(s2)
    19b6:	0100                	addi	s0,sp,128
    19b8:	1a05                	addi	s4,s4,-31
    19ba:	00090003          	lb	zero,0(s2)
    19be:	0100                	addi	s0,sp,128
    19c0:	0105                	addi	sp,sp,1
    19c2:	00090103          	lb	sp,0(s2)
    19c6:	0100                	addi	s0,sp,128
    19c8:	0009                	c.nop	2
    19ca:	0000                	unimp
    19cc:	0101                	addi	sp,sp,0
    19ce:	3205                	jal	12ee <init_apb_timer+0x162>
    19d0:	0500                	addi	s0,sp,640
    19d2:	5002                	0x5002
    19d4:	03000013          	li	zero,48
    19d8:	00d2                	slli	ra,ra,0x14
    19da:	0501                	addi	a0,a0,0
    19dc:	0318                	addi	a4,sp,384
    19de:	0901                	addi	s2,s2,0
    19e0:	0010                	0x10
    19e2:	0501                	addi	a0,a0,0
    19e4:	0322                	slli	t1,t1,0x8
    19e6:	0900                	addi	s0,sp,144
    19e8:	0008                	0x8
    19ea:	0501                	addi	a0,a0,0
    19ec:	032d                	addi	t1,t1,11
    19ee:	0900                	addi	s0,sp,144
    19f0:	0004                	0x4
    19f2:	0501                	addi	a0,a0,0
    19f4:	0309                	addi	t1,t1,2
    19f6:	0900                	addi	s0,sp,144
    19f8:	0004                	0x4
    19fa:	0501                	addi	a0,a0,0
    19fc:	0301                	addi	t1,t1,0
    19fe:	0901                	addi	s2,s2,0
    1a00:	0004                	0x4
    1a02:	0901                	addi	s2,s2,0
    1a04:	0010                	0x10
    1a06:	0100                	addi	s0,sp,128
    1a08:	0501                	addi	a0,a0,0
    1a0a:	0205002f          	0x205002f
    1a0e:	1384                	addi	s1,sp,480
    1a10:	0000                	unimp
    1a12:	0100dd03          	lhu	s10,16(ra)
    1a16:	0705                	addi	a4,a4,1
    1a18:	10090103          	lb	sp,256(s2)
    1a1c:	0100                	addi	s0,sp,128
    1a1e:	1c05                	addi	s8,s8,-31
    1a20:	08090003          	lb	zero,128(s2)
    1a24:	0100                	addi	s0,sp,128
    1a26:	0105                	addi	sp,sp,1
    1a28:	04090103          	lb	sp,64(s2)
    1a2c:	0100                	addi	s0,sp,128
    1a2e:	1009                	c.nop	-30
    1a30:	0000                	unimp
    1a32:	0101                	addi	sp,sp,0
    1a34:	2605                	jal	1d54 <_data_lma+0x9a4>
    1a36:	0500                	addi	s0,sp,640
    1a38:	0002                	c.slli64	zero
    1a3a:	0000                	unimp
    1a3c:	0300                	addi	s0,sp,384
    1a3e:	00e8                	addi	a0,sp,76
    1a40:	0501                	addi	a0,a0,0
    1a42:	0901032b          	0x901032b
    1a46:	0000                	unimp
    1a48:	0501                	addi	a0,a0,0
    1a4a:	033a                	slli	t1,t1,0xe
    1a4c:	0900                	addi	s0,sp,144
    1a4e:	0000                	unimp
    1a50:	0501                	addi	a0,a0,0
    1a52:	09000307          	0x9000307
    1a56:	0000                	unimp
    1a58:	0501                	addi	a0,a0,0
    1a5a:	0340                	addi	s0,sp,388
    1a5c:	0900                	addi	s0,sp,144
    1a5e:	0000                	unimp
    1a60:	0501                	addi	a0,a0,0
    1a62:	0318                	addi	a4,sp,384
    1a64:	0900                	addi	s0,sp,144
    1a66:	0000                	unimp
    1a68:	0501                	addi	a0,a0,0
    1a6a:	0301                	addi	t1,t1,0
    1a6c:	0901                	addi	s2,s2,0
    1a6e:	0000                	unimp
    1a70:	0901                	addi	s2,s2,0
    1a72:	0000                	unimp
    1a74:	0100                	addi	s0,sp,128
    1a76:	0501                	addi	a0,a0,0
    1a78:	0025                	c.nop	9
    1a7a:	0205                	addi	tp,tp,1
    1a7c:	0000                	unimp
    1a7e:	0000                	unimp
    1a80:	0100f303          	0x100f303
    1a84:	2b05                	jal	1fb4 <_data_lma+0xc04>
    1a86:	00090103          	lb	sp,0(s2)
    1a8a:	0100                	addi	s0,sp,128
    1a8c:	1c05                	addi	s8,s8,-31
    1a8e:	00090003          	lb	zero,0(s2)
    1a92:	0100                	addi	s0,sp,128
    1a94:	0705                	addi	a4,a4,1
    1a96:	00090003          	lb	zero,0(s2)
    1a9a:	0100                	addi	s0,sp,128
    1a9c:	3a05                	jal	13cc <_data_lma+0x1c>
    1a9e:	00090003          	lb	zero,0(s2)
    1aa2:	0100                	addi	s0,sp,128
    1aa4:	1805                	addi	a6,a6,-31
    1aa6:	00090003          	lb	zero,0(s2)
    1aaa:	0100                	addi	s0,sp,128
    1aac:	0105                	addi	sp,sp,1
    1aae:	00090103          	lb	sp,0(s2)
    1ab2:	0100                	addi	s0,sp,128
    1ab4:	0009                	c.nop	2
    1ab6:	0000                	unimp
    1ab8:	0101                	addi	sp,sp,0
    1aba:	2605                	jal	1dda <_data_lma+0xa2a>
    1abc:	0500                	addi	s0,sp,640
    1abe:	0002                	c.slli64	zero
    1ac0:	0000                	unimp
    1ac2:	0300                	addi	s0,sp,384
    1ac4:	00fe                	slli	ra,ra,0x1f
    1ac6:	0501                	addi	a0,a0,0
    1ac8:	09010307          	0x9010307
    1acc:	0000                	unimp
    1ace:	0501                	addi	a0,a0,0
    1ad0:	0320                	addi	s0,sp,392
    1ad2:	0900                	addi	s0,sp,144
    1ad4:	0000                	unimp
    1ad6:	0501                	addi	a0,a0,0
    1ad8:	0319                	addi	t1,t1,6
    1ada:	0900                	addi	s0,sp,144
    1adc:	0000                	unimp
    1ade:	0501                	addi	a0,a0,0
    1ae0:	0301                	addi	t1,t1,0
    1ae2:	0901                	addi	s2,s2,0
    1ae4:	0000                	unimp
    1ae6:	0901                	addi	s2,s2,0
    1ae8:	0000                	unimp
    1aea:	0100                	addi	s0,sp,128
    1aec:	0501                	addi	a0,a0,0
    1aee:	0040                	addi	s0,sp,4
    1af0:	0205                	addi	tp,tp,1
    1af2:	0000                	unimp
    1af4:	0000                	unimp
    1af6:	01018a03          	lb	s4,16(gp) # 10000828 <__global_pointer$+0x10>
    1afa:	1205                	addi	tp,tp,-31
    1afc:	00090103          	lb	sp,0(s2)
    1b00:	0100                	addi	s0,sp,128
    1b02:	0705                	addi	a4,a4,1
    1b04:	00090103          	lb	sp,0(s2)
    1b08:	0100                	addi	s0,sp,128
    1b0a:	1c05                	addi	s8,s8,-31
    1b0c:	00090003          	lb	zero,0(s2)
    1b10:	0100                	addi	s0,sp,128
    1b12:	0105                	addi	sp,sp,1
    1b14:	00090103          	lb	sp,0(s2)
    1b18:	0100                	addi	s0,sp,128
    1b1a:	0009                	c.nop	2
    1b1c:	0000                	unimp
    1b1e:	0101                	addi	sp,sp,0
    1b20:	4105                	li	sp,1
    1b22:	0500                	addi	s0,sp,640
    1b24:	0002                	c.slli64	zero
    1b26:	0000                	unimp
    1b28:	0300                	addi	s0,sp,384
    1b2a:	05010197          	auipc	gp,0x5010
    1b2e:	09010313          	addi	t1,sp,144
    1b32:	0000                	unimp
    1b34:	0501                	addi	a0,a0,0
    1b36:	09010307          	0x9010307
    1b3a:	0000                	unimp
    1b3c:	0501                	addi	a0,a0,0
    1b3e:	031d                	addi	t1,t1,7
    1b40:	0900                	addi	s0,sp,144
    1b42:	0000                	unimp
    1b44:	0501                	addi	a0,a0,0
    1b46:	0301                	addi	t1,t1,0
    1b48:	0901                	addi	s2,s2,0
    1b4a:	0000                	unimp
    1b4c:	0901                	addi	s2,s2,0
    1b4e:	0000                	unimp
    1b50:	0100                	addi	s0,sp,128
    1b52:	0501                	addi	a0,a0,0
    1b54:	0036                	c.slli	zero,0xd
    1b56:	0205                	addi	tp,tp,1
    1b58:	0000                	unimp
    1b5a:	0000                	unimp
    1b5c:	0101a403          	lw	s0,16(gp) # 5011b3a <__stack_size+0x500fb3a>
    1b60:	0705                	addi	a4,a4,1
    1b62:	00090103          	lb	sp,0(s2)
    1b66:	0100                	addi	s0,sp,128
    1b68:	1905                	addi	s2,s2,-31
    1b6a:	00090003          	lb	zero,0(s2)
    1b6e:	0100                	addi	s0,sp,128
    1b70:	0105                	addi	sp,sp,1
    1b72:	00090103          	lb	sp,0(s2)
    1b76:	0100                	addi	s0,sp,128
    1b78:	0009                	c.nop	2
    1b7a:	0000                	unimp
    1b7c:	0101                	addi	sp,sp,0
    1b7e:	4505                	li	a0,1
    1b80:	0500                	addi	s0,sp,640
    1b82:	0002                	c.slli64	zero
    1b84:	0000                	unimp
    1b86:	0300                	addi	s0,sp,384
    1b88:	01b1                	addi	gp,gp,12
    1b8a:	0501                	addi	a0,a0,0
    1b8c:	0315                	addi	t1,t1,5
    1b8e:	0901                	addi	s2,s2,0
    1b90:	0000                	unimp
    1b92:	0501                	addi	a0,a0,0
    1b94:	0304                	addi	s1,sp,384
    1b96:	0900                	addi	s0,sp,144
    1b98:	0000                	unimp
    1b9a:	0501                	addi	a0,a0,0
    1b9c:	002d                	c.nop	11
    1b9e:	0402                	c.slli64	s0
    1ba0:	0301                	addi	t1,t1,0
    1ba2:	0900                	addi	s0,sp,144
    1ba4:	0000                	unimp
    1ba6:	0501                	addi	a0,a0,0
    1ba8:	0402003b          	0x402003b
    1bac:	0301                	addi	t1,t1,0
    1bae:	0900                	addi	s0,sp,144
    1bb0:	0000                	unimp
    1bb2:	0501                	addi	a0,a0,0
    1bb4:	0046                	c.slli	zero,0x11
    1bb6:	0402                	c.slli64	s0
    1bb8:	0301                	addi	t1,t1,0
    1bba:	0900                	addi	s0,sp,144
    1bbc:	0000                	unimp
    1bbe:	0501                	addi	a0,a0,0
    1bc0:	0022                	c.slli	zero,0x8
    1bc2:	0402                	c.slli64	s0
    1bc4:	0301                	addi	t1,t1,0
    1bc6:	0900                	addi	s0,sp,144
    1bc8:	0000                	unimp
    1bca:	0501                	addi	a0,a0,0
    1bcc:	0308                	addi	a0,sp,384
    1bce:	0901                	addi	s2,s2,0
    1bd0:	0000                	unimp
    1bd2:	0501                	addi	a0,a0,0
    1bd4:	0322                	slli	t1,t1,0x8
    1bd6:	0900                	addi	s0,sp,144
    1bd8:	0000                	unimp
    1bda:	0501                	addi	a0,a0,0
    1bdc:	0900032b          	0x900032b
    1be0:	0000                	unimp
    1be2:	0501                	addi	a0,a0,0
    1be4:	030a                	slli	t1,t1,0x2
    1be6:	0902                	c.slli64	s2
    1be8:	0000                	unimp
    1bea:	0301                	addi	t1,t1,0
    1bec:	0902                	c.slli64	s2
    1bee:	0000                	unimp
    1bf0:	0501                	addi	a0,a0,0
    1bf2:	0301                	addi	t1,t1,0
    1bf4:	0902                	c.slli64	s2
    1bf6:	0000                	unimp
    1bf8:	0901                	addi	s2,s2,0
    1bfa:	0000                	unimp
    1bfc:	0100                	addi	s0,sp,128
    1bfe:	0501                	addi	a0,a0,0
    1c00:	02050033          	mul	zero,a0,zero
    1c04:	0000                	unimp
    1c06:	0000                	unimp
    1c08:	0101c603          	lbu	a2,16(gp) # 10000828 <__global_pointer$+0x10>
    1c0c:	1505                	addi	a0,a0,-31
    1c0e:	00090103          	lb	sp,0(s2)
    1c12:	0100                	addi	s0,sp,128
    1c14:	0405                	addi	s0,s0,1
    1c16:	00090003          	lb	zero,0(s2)
    1c1a:	0100                	addi	s0,sp,128
    1c1c:	2d05                	jal	224c <__stack_size+0x24c>
    1c1e:	0200                	addi	s0,sp,256
    1c20:	0104                	addi	s1,sp,128
    1c22:	00090003          	lb	zero,0(s2)
    1c26:	0100                	addi	s0,sp,128
    1c28:	3b05                	jal	1958 <_data_lma+0x5a8>
    1c2a:	0200                	addi	s0,sp,256
    1c2c:	0104                	addi	s1,sp,128
    1c2e:	00090003          	lb	zero,0(s2)
    1c32:	0100                	addi	s0,sp,128
    1c34:	4605                	li	a2,1
    1c36:	0200                	addi	s0,sp,256
    1c38:	0104                	addi	s1,sp,128
    1c3a:	00090003          	lb	zero,0(s2)
    1c3e:	0100                	addi	s0,sp,128
    1c40:	2205                	jal	1d60 <_data_lma+0x9b0>
    1c42:	0200                	addi	s0,sp,256
    1c44:	0104                	addi	s1,sp,128
    1c46:	00090003          	lb	zero,0(s2)
    1c4a:	0100                	addi	s0,sp,128
    1c4c:	3105                	jal	186c <_data_lma+0x4bc>
    1c4e:	00090103          	lb	sp,0(s2)
    1c52:	0100                	addi	s0,sp,128
    1c54:	0605                	addi	a2,a2,1
    1c56:	00090103          	lb	sp,0(s2)
    1c5a:	0100                	addi	s0,sp,128
    1c5c:	2205                	jal	1d7c <_data_lma+0x9cc>
    1c5e:	00090003          	lb	zero,0(s2)
    1c62:	0100                	addi	s0,sp,128
    1c64:	0805                	addi	a6,a6,1
    1c66:	00097f03          	0x97f03
    1c6a:	0100                	addi	s0,sp,128
    1c6c:	2205                	jal	1d8c <_data_lma+0x9dc>
    1c6e:	00090003          	lb	zero,0(s2)
    1c72:	0100                	addi	s0,sp,128
    1c74:	4b05                	li	s6,1
    1c76:	00090003          	lb	zero,0(s2)
    1c7a:	0100                	addi	s0,sp,128
    1c7c:	2e05                	jal	1fac <_data_lma+0xbfc>
    1c7e:	00090003          	lb	zero,0(s2)
    1c82:	0100                	addi	s0,sp,128
    1c84:	0a05                	addi	s4,s4,1
    1c86:	00090303          	lb	t1,0(s2)
    1c8a:	0100                	addi	s0,sp,128
    1c8c:	00090203          	lb	tp,0(s2)
    1c90:	0100                	addi	s0,sp,128
    1c92:	0105                	addi	sp,sp,1
    1c94:	00090203          	lb	tp,0(s2)
    1c98:	0100                	addi	s0,sp,128
    1c9a:	0009                	c.nop	2
    1c9c:	0000                	unimp
    1c9e:	0101                	addi	sp,sp,0
    1ca0:	3105                	jal	18c0 <_data_lma+0x510>
    1ca2:	0500                	addi	s0,sp,640
    1ca4:	0002                	c.slli64	zero
    1ca6:	0000                	unimp
    1ca8:	0300                	addi	s0,sp,384
    1caa:	01d8                	addi	a4,sp,196
    1cac:	0501                	addi	a0,a0,0
    1cae:	030e                	slli	t1,t1,0x3
    1cb0:	0901                	addi	s2,s2,0
    1cb2:	0000                	unimp
    1cb4:	0501                	addi	a0,a0,0
    1cb6:	0301                	addi	t1,t1,0
    1cb8:	0901                	addi	s2,s2,0
    1cba:	0000                	unimp
    1cbc:	0901                	addi	s2,s2,0
    1cbe:	0000                	unimp
    1cc0:	0100                	addi	s0,sp,128
    1cc2:	0501                	addi	a0,a0,0
    1cc4:	0031                	c.nop	12
    1cc6:	0205                	addi	tp,tp,1
    1cc8:	0000                	unimp
    1cca:	0000                	unimp
    1ccc:	0101e303          	0x101e303
    1cd0:	0e05                	addi	t3,t3,1
    1cd2:	00090103          	lb	sp,0(s2)
    1cd6:	0100                	addi	s0,sp,128
    1cd8:	0105                	addi	sp,sp,1
    1cda:	00090103          	lb	sp,0(s2)
    1cde:	0100                	addi	s0,sp,128
    1ce0:	0009                	c.nop	2
    1ce2:	0000                	unimp
    1ce4:	0101                	addi	sp,sp,0
    1ce6:	2c05                	jal	1f16 <_data_lma+0xb66>
    1ce8:	0500                	addi	s0,sp,640
    1cea:	0002                	c.slli64	zero
    1cec:	0000                	unimp
    1cee:	0300                	addi	s0,sp,384
    1cf0:	01ee                	slli	gp,gp,0x1b
    1cf2:	0501                	addi	a0,a0,0
    1cf4:	030e                	slli	t1,t1,0x3
    1cf6:	0901                	addi	s2,s2,0
    1cf8:	0000                	unimp
    1cfa:	0501                	addi	a0,a0,0
    1cfc:	0318                	addi	a4,sp,384
    1cfe:	0900                	addi	s0,sp,144
    1d00:	0000                	unimp
    1d02:	0501                	addi	a0,a0,0
    1d04:	0301                	addi	t1,t1,0
    1d06:	0901                	addi	s2,s2,0
    1d08:	0000                	unimp
    1d0a:	0901                	addi	s2,s2,0
    1d0c:	0000                	unimp
    1d0e:	0100                	addi	s0,sp,128
    1d10:	0501                	addi	a0,a0,0
    1d12:	003c                	addi	a5,sp,8
    1d14:	0205                	addi	tp,tp,1
    1d16:	0000                	unimp
    1d18:	0000                	unimp
    1d1a:	0101fa03          	0x101fa03
    1d1e:	1305                	addi	t1,t1,-31
    1d20:	00090103          	lb	sp,0(s2)
    1d24:	0100                	addi	s0,sp,128
    1d26:	0405                	addi	s0,s0,1
    1d28:	00090003          	lb	zero,0(s2)
    1d2c:	0100                	addi	s0,sp,128
    1d2e:	0a05                	addi	s4,s4,1
    1d30:	00090103          	lb	sp,0(s2)
    1d34:	0100                	addi	s0,sp,128
    1d36:	0f05                	addi	t5,t5,1
    1d38:	00090203          	lb	tp,0(s2)
    1d3c:	0100                	addi	s0,sp,128
    1d3e:	2905                	jal	216e <__stack_size+0x16e>
    1d40:	00090003          	lb	zero,0(s2)
    1d44:	0100                	addi	s0,sp,128
    1d46:	0105                	addi	sp,sp,1
    1d48:	00090203          	lb	tp,0(s2)
    1d4c:	0100                	addi	s0,sp,128
    1d4e:	0009                	c.nop	2
    1d50:	0000                	unimp
    1d52:	0101                	addi	sp,sp,0

Disassembly of section .debug_info:

00000000 <.debug_info>:
       0:	0022                	c.slli	zero,0x8
       2:	0000                	unimp
       4:	0002                	c.slli64	zero
       6:	0000                	unimp
       8:	0000                	unimp
       a:	0104                	addi	s1,sp,128
       c:	0000                	unimp
       e:	0000                	unimp
      10:	0800                	addi	s0,sp,16
      12:	0000                	unimp
      14:	0868                	addi	a0,sp,28
      16:	0000                	unimp
      18:	0000                	unimp
      1a:	0000                	unimp
      1c:	000e                	c.slli	zero,0x3
      1e:	0000                	unimp
      20:	0051                	c.nop	20
      22:	0000                	unimp
      24:	8001                	c.srli64	s0
      26:	0022                	c.slli	zero,0x8
      28:	0000                	unimp
      2a:	0002                	c.slli64	zero
      2c:	0014                	0x14
      2e:	0000                	unimp
      30:	0104                	addi	s1,sp,128
      32:	00b0                	addi	a2,sp,72
      34:	0000                	unimp
      36:	0868                	addi	a0,sp,28
      38:	0000                	unimp
      3a:	0990                	addi	a2,sp,208
      3c:	0000                	unimp
      3e:	005d                	c.nop	23
      40:	0000                	unimp
      42:	000e                	c.slli	zero,0x3
      44:	0000                	unimp
      46:	0051                	c.nop	20
      48:	0000                	unimp
      4a:	8001                	c.srli64	s0
      4c:	04a8                	addi	a0,sp,584
      4e:	0000                	unimp
      50:	0004                	0x4
      52:	0028                	addi	a0,sp,8
      54:	0000                	unimp
      56:	0104                	addi	s1,sp,128
      58:	203d                	jal	86 <_start-0x77a>
      5a:	0000                	unimp
      5c:	d80c                	sw	a1,48(s0)
      5e:	0001                	nop
      60:	0e00                	addi	s0,sp,784
	...
      6a:	0000                	unimp
      6c:	a700                	fsd	fs0,8(a4)
      6e:	0002                	c.slli64	zero
      70:	0000                	unimp
      72:	0000                	unimp
      74:	0200                	addi	s0,sp,256
      76:	0601                	addi	a2,a2,0
      78:	2a84                	fld	fs1,16(a3)
      7a:	0000                	unimp
      7c:	002c5203          	lhu	tp,2(s8) # 1d002 <__stack_size+0x1b002>
      80:	0200                	addi	s0,sp,256
      82:	003c182b          	0x3c182b
      86:	0000                	unimp
      88:	0102                	c.slli64	sp
      8a:	3208                	fld	fa0,32(a2)
      8c:	002c                	addi	a1,sp,8
      8e:	0200                	addi	s0,sp,256
      90:	0502                	c.slli64	a0
      92:	000007cb          	fnmsub.s	fa5,ft0,ft0,ft0,rne
      96:	00108d03          	lb	s10,1(ra)
      9a:	0200                	addi	s0,sp,256
      9c:	1939                	addi	s2,s2,-18
      9e:	0056                	c.slli	zero,0x15
      a0:	0000                	unimp
      a2:	0202                	c.slli64	tp
      a4:	00069d07          	0x69d07
      a8:	0200                	addi	s0,sp,256
      aa:	0504                	addi	s1,sp,640
      ac:	2930                	fld	fa2,80(a0)
      ae:	0000                	unimp
      b0:	0030ee03          	0x30ee03
      b4:	0200                	addi	s0,sp,256
      b6:	0070194f          	fnmadd.s	fs2,ft0,ft7,ft0,rtz
      ba:	0000                	unimp
      bc:	0402                	c.slli64	s0
      be:	00265a07          	0x265a07
      c2:	0200                	addi	s0,sp,256
      c4:	0508                	addi	a0,sp,640
      c6:	1636                	slli	a2,a2,0x2d
      c8:	0000                	unimp
      ca:	0802                	c.slli64	a6
      cc:	00349807          	0x349807
      d0:	0400                	addi	s0,sp,512
      d2:	0504                	addi	s1,sp,640
      d4:	6e69                	lui	t3,0x1a
      d6:	0074                	addi	a3,sp,12
      d8:	0402                	c.slli64	s0
      da:	00298507          	0x298507
      de:	0300                	addi	s0,sp,384
      e0:	2c54                	fld	fa3,152(s0)
      e2:	0000                	unimp
      e4:	30131803          	lh	a6,769(t1) # 9011b25 <__stack_size+0x900fb25>
      e8:	0000                	unimp
      ea:	0500                	addi	s0,sp,640
      ec:	00000093          	li	ra,0
      f0:	00108f03          	lb	t5,1(ra)
      f4:	0300                	addi	s0,sp,384
      f6:	1424                	addi	s1,sp,552
      f8:	004a                	c.slli	zero,0x12
      fa:	0000                	unimp
      fc:	0030f003          	0x30f003
     100:	0300                	addi	s0,sp,384
     102:	1430                	addi	a2,sp,552
     104:	0064                	addi	s1,sp,12
     106:	0000                	unimp
     108:	1c06                	slli	s8,s8,0x21
     10a:	0f04                	addi	s1,sp,912
     10c:	2109                	jal	50e <_start-0x2f2>
     10e:	0001                	nop
     110:	0700                	addi	s0,sp,896
     112:	087e                	slli	a6,a6,0x1f
     114:	0000                	unimp
     116:	1004                	addi	s1,sp,32
     118:	0000b00b          	0xb00b
     11c:	0000                	unimp
     11e:	000ba007          	flw	ft0,0(s7)
     122:	0400                	addi	s0,sp,512
     124:	0b11                	addi	s6,s6,4
     126:	00b0                	addi	a2,sp,72
     128:	0000                	unimp
     12a:	0704                	addi	s1,sp,896
     12c:	08dd                	addi	a7,a7,23
     12e:	0000                	unimp
     130:	1204                	addi	s1,sp,288
     132:	0000b00b          	0xb00b
     136:	0800                	addi	s0,sp,16
     138:	0029a507          	flw	fa0,2(s3)
     13c:	0400                	addi	s0,sp,512
     13e:	00b00b13          	li	s6,11
     142:	0000                	unimp
     144:	070c                	addi	a1,sp,896
     146:	00001357          	0x1357
     14a:	1404                	addi	s1,sp,544
     14c:	0000b00b          	0xb00b
     150:	1000                	addi	s0,sp,32
     152:	003ca907          	flw	fs2,3(s9)
     156:	0400                	addi	s0,sp,512
     158:	0b15                	addi	s6,s6,5
     15a:	00b0                	addi	a2,sp,72
     15c:	0000                	unimp
     15e:	0714                	addi	a3,sp,896
     160:	2fc6                	fld	ft11,80(sp)
     162:	0000                	unimp
     164:	1604                	addi	s1,sp,800
     166:	0000b00b          	0xb00b
     16a:	1800                	addi	s0,sp,48
     16c:	0300                	addi	s0,sp,384
     16e:	1770                	addi	a2,sp,940
     170:	0000                	unimp
     172:	1704                	addi	s1,sp,928
     174:	bc02                	fsd	ft0,56(sp)
     176:	0000                	unimp
     178:	0600                	addi	s0,sp,768
     17a:	0408                	addi	a0,sp,512
     17c:	0919                	addi	s2,s2,6
     17e:	0151                	addi	sp,sp,20
     180:	0000                	unimp
     182:	000a0107          	0xa0107
     186:	0400                	addi	s0,sp,512
     188:	0d1a                	slli	s10,s10,0x6
     18a:	0151                	addi	sp,sp,20
     18c:	0000                	unimp
     18e:	0700                	addi	s0,sp,896
     190:	08d9                	addi	a7,a7,22
     192:	0000                	unimp
     194:	1b04                	addi	s1,sp,432
     196:	0000b00b          	0xb00b
     19a:	0400                	addi	s0,sp,512
     19c:	0800                	addi	s0,sp,16
     19e:	2104                	fld	fs1,0(a0)
     1a0:	0001                	nop
     1a2:	0300                	addi	s0,sp,384
     1a4:	0000378f          	0x378f
     1a8:	1c04                	addi	s1,sp,560
     1aa:	2d02                	fld	fs10,0(sp)
     1ac:	0001                	nop
     1ae:	0600                	addi	s0,sp,768
     1b0:	0508                	addi	a0,sp,640
     1b2:	092e                	slli	s2,s2,0xb
     1b4:	00000187          	0x187
     1b8:	00288907          	0x288907
     1bc:	0500                	addi	s0,sp,640
     1be:	00b00b2f          	0xb00b2f
     1c2:	0000                	unimp
     1c4:	0700                	addi	s0,sp,896
     1c6:	3d7d                	jal	84 <_start-0x77c>
     1c8:	0000                	unimp
     1ca:	3005                	jal	fffff9ea <__freertos_irq_stack_top+0xefff79ea>
     1cc:	0000b00b          	0xb00b
     1d0:	0400                	addi	s0,sp,512
     1d2:	0300                	addi	s0,sp,384
     1d4:	000000f3          	0xf3
     1d8:	3105                	jal	fffffdf8 <__freertos_irq_stack_top+0xefff7df8>
     1da:	6302                	flw	ft6,0(sp)
     1dc:	0001                	nop
     1de:	0600                	addi	s0,sp,768
     1e0:	0538                	addi	a4,sp,648
     1e2:	0934                	addi	a3,sp,152
     1e4:	01f8                	addi	a4,sp,204
     1e6:	0000                	unimp
     1e8:	003df407          	0x3df407
     1ec:	0500                	addi	s0,sp,640
     1ee:	0b35                	addi	s6,s6,13
     1f0:	00b0                	addi	a2,sp,72
     1f2:	0000                	unimp
     1f4:	0700                	addi	s0,sp,896
     1f6:	253a                	fld	fa0,392(sp)
     1f8:	0000                	unimp
     1fa:	3605                	jal	fffffd1a <__freertos_irq_stack_top+0xefff7d1a>
     1fc:	0000b00b          	0xb00b
     200:	0400                	addi	s0,sp,512
     202:	000ddc07          	0xddc07
     206:	0500                	addi	s0,sp,640
     208:	00b00b37          	lui	s6,0xb00
     20c:	0000                	unimp
     20e:	0708                	addi	a0,sp,896
     210:	113e                	slli	sp,sp,0x2f
     212:	0000                	unimp
     214:	3805                	jal	fffffa44 <__freertos_irq_stack_top+0xefff7a44>
     216:	0000b00b          	0xb00b
     21a:	0c00                	addi	s0,sp,528
     21c:	002fc607          	flq	fa2,2(t6)
     220:	0500                	addi	s0,sp,640
     222:	0b39                	addi	s6,s6,14
     224:	00b0                	addi	a2,sp,72
     226:	0000                	unimp
     228:	0710                	addi	a2,sp,896
     22a:	3c6a                	fld	fs8,184(sp)
     22c:	0000                	unimp
     22e:	3a05                	jal	fffffb5e <__freertos_irq_stack_top+0xefff7b5e>
     230:	0000b00b          	0xb00b
     234:	1400                	addi	s0,sp,544
     236:	000f9007          	0xf9007
     23a:	0500                	addi	s0,sp,640
     23c:	01f8103b          	0x1f8103b
     240:	0000                	unimp
     242:	0018                	0x18
     244:	8709                	srai	a4,a4,0x2
     246:	0001                	nop
     248:	0800                	addi	s0,sp,16
     24a:	0002                	c.slli64	zero
     24c:	0a00                	addi	s0,sp,272
     24e:	008c                	addi	a1,sp,64
     250:	0000                	unimp
     252:	5b030003          	lb	zero,1456(t1)
     256:	000c                	0xc
     258:	0500                	addi	s0,sp,640
     25a:	023c                	addi	a5,sp,264
     25c:	00000193          	li	gp,0
     260:	1006                	c.slli	zero,0x21
     262:	3f05                	jal	192 <_start-0x66e>
     264:	5f09                	li	t5,-30
     266:	0002                	c.slli64	zero
     268:	0700                	addi	s0,sp,896
     26a:	0a01                	addi	s4,s4,0
     26c:	0000                	unimp
     26e:	4005                	c.li	zero,1
     270:	5f0e                	lw	t5,224(sp)
     272:	0002                	c.slli64	zero
     274:	0000                	unimp
     276:	003df407          	0x3df407
     27a:	0500                	addi	s0,sp,640
     27c:	0b41                	addi	s6,s6,16
     27e:	00b0                	addi	a2,sp,72
     280:	0000                	unimp
     282:	0704                	addi	s1,sp,896
     284:	253a                	fld	fa0,392(sp)
     286:	0000                	unimp
     288:	4205                	li	tp,1
     28a:	0000b00b          	0xb00b
     28e:	0800                	addi	s0,sp,16
     290:	0027f707          	0x27f707
     294:	0500                	addi	s0,sp,640
     296:	00930a43          	fmadd.s	fs4,ft6,fs1,ft0,rne
     29a:	0000                	unimp
     29c:	070c                	addi	a1,sp,896
     29e:	000028cf          	fnmadd.s	fa7,ft0,ft0,ft0,rdn
     2a2:	4405                	li	s0,1
     2a4:	930a                	add	t1,t1,sp
     2a6:	0000                	unimp
     2a8:	0d00                	addi	s0,sp,656
     2aa:	0800                	addi	s0,sp,16
     2ac:	0804                	addi	s1,sp,16
     2ae:	0002                	c.slli64	zero
     2b0:	0300                	addi	s0,sp,384
     2b2:	0be5                	addi	s7,s7,25
     2b4:	0000                	unimp
     2b6:	4505                	li	a0,1
     2b8:	1402                	slli	s0,s0,0x20
     2ba:	0002                	c.slli64	zero
     2bc:	0600                	addi	s0,sp,768
     2be:	0524                	addi	s1,sp,648
     2c0:	0948                	addi	a0,sp,148
     2c2:	02d6                	slli	t0,t0,0x15
     2c4:	0000                	unimp
     2c6:	0027f707          	0x27f707
     2ca:	0500                	addi	s0,sp,640
     2cc:	0a49                	addi	s4,s4,18
     2ce:	00000093          	li	ra,0
     2d2:	0700                	addi	s0,sp,896
     2d4:	000028cf          	fnmadd.s	fa7,ft0,ft0,ft0,rdn
     2d8:	4a05                	li	s4,1
     2da:	930a                	add	t1,t1,sp
     2dc:	0000                	unimp
     2de:	0100                	addi	s0,sp,128
     2e0:	003df407          	0x3df407
     2e4:	0500                	addi	s0,sp,640
     2e6:	00b00b4b          	fnmsub.s	fs6,ft0,fa1,ft0,rne
     2ea:	0000                	unimp
     2ec:	0704                	addi	s1,sp,896
     2ee:	253a                	fld	fa0,392(sp)
     2f0:	0000                	unimp
     2f2:	4c05                	li	s8,1
     2f4:	0000b00b          	0xb00b
     2f8:	0800                	addi	s0,sp,16
     2fa:	706d630b          	0x706d630b
     2fe:	0500                	addi	s0,sp,640
     300:	0b4d                	addi	s6,s6,19
     302:	02d6                	slli	t0,t0,0x15
     304:	0000                	unimp
     306:	070c                	addi	a1,sp,896
     308:	30dd                	jal	fffffbee <__freertos_irq_stack_top+0xefff7bee>
     30a:	0000                	unimp
     30c:	4e05                	li	t3,1
     30e:	e60a                	fsw	ft2,12(sp)
     310:	0002                	c.slli64	zero
     312:	1c00                	addi	s0,sp,560
     314:	00363507          	fld	fa0,3(a2) # 1a003 <__stack_size+0x18003>
     318:	0500                	addi	s0,sp,640
     31a:	02e60a4f          	fnmadd.d	fs4,fa2,fa4,ft0,rne
     31e:	0000                	unimp
     320:	0020                	addi	s0,sp,8
     322:	b009                	j	fffffb24 <__freertos_irq_stack_top+0xefff7b24>
     324:	0000                	unimp
     326:	e600                	fsw	fs0,8(a2)
     328:	0002                	c.slli64	zero
     32a:	0a00                	addi	s0,sp,272
     32c:	008c                	addi	a1,sp,64
     32e:	0000                	unimp
     330:	93090003          	lb	zero,-1744(s2)
     334:	0000                	unimp
     336:	f600                	fsw	fs0,40(a2)
     338:	0002                	c.slli64	zero
     33a:	0a00                	addi	s0,sp,272
     33c:	008c                	addi	a1,sp,64
     33e:	0000                	unimp
     340:	c2030003          	lb	zero,-992(t1)
     344:	0500001b          	0x500001b
     348:	0250                	addi	a2,sp,260
     34a:	0271                	addi	tp,tp,28
     34c:	0000                	unimp
     34e:	0406                	slli	s0,s0,0x1
     350:	0f06                	slli	t5,t5,0x1
     352:	1909                	addi	s2,s2,-30
     354:	07000003          	lb	zero,112(zero) # 70 <_start-0x790>
     358:	000030bb          	0x30bb
     35c:	1006                	c.slli	zero,0x21
     35e:	0000b00b          	0xb00b
     362:	0000                	unimp
     364:	0300                	addi	s0,sp,384
     366:	00002b27          	fsw	ft0,22(zero) # 16 <_start-0x7ea>
     36a:	1106                	slli	sp,sp,0x21
     36c:	0202                	c.slli64	tp
     36e:	0c000003          	lb	zero,192(zero) # c0 <_start-0x740>
     372:	2776                	fld	fa4,344(sp)
     374:	0000                	unimp
     376:	2501                	jal	976 <asynchronous_return+0x72>
     378:	5710                	lw	a2,40(a4)
     37a:	0001                	nop
     37c:	0500                	addi	s0,sp,640
     37e:	00001803          	lh	a6,0(zero) # 0 <_start-0x800>
     382:	0c10                	addi	a2,sp,528
     384:	26ec                	fld	fa1,200(a3)
     386:	0000                	unimp
     388:	2601                	jal	688 <_start-0x178>
     38a:	6511                	lui	a0,0x4
     38c:	0002                	c.slli64	zero
     38e:	0500                	addi	s0,sp,640
     390:	00003403          	0x3403
     394:	0c10                	addi	a2,sp,528
     396:	00a4                	addi	s1,sp,72
     398:	0000                	unimp
     39a:	2901                	jal	7aa <_start-0x56>
     39c:	190d                	addi	s2,s2,-29
     39e:	05000003          	lb	zero,80(zero) # 50 <_start-0x7b0>
     3a2:	00002003          	lw	zero,0(zero) # 0 <_start-0x800>
     3a6:	0910                	addi	a2,sp,144
     3a8:	009f 0000 036b      	0x36b0000009f
     3ae:	0000                	unimp
     3b0:	8c0a                	mv	s8,sp
     3b2:	0000                	unimp
     3b4:	0800                	addi	s0,sp,16
     3b6:	0500                	addi	s0,sp,640
     3b8:	0000035b          	0x35b
     3bc:	900c                	0x900c
     3be:	002a                	c.slli	zero,0xa
     3c0:	0100                	addi	s0,sp,128
     3c2:	162c                	addi	a1,sp,808
     3c4:	0000036b          	0x36b
     3c8:	0305                	addi	t1,t1,1
     3ca:	0000                	unimp
     3cc:	1000                	addi	s0,sp,32
     3ce:	0a0c                	addi	a1,sp,272
     3d0:	01000017          	auipc	zero,0x1000
     3d4:	102d                	c.nop	-21
     3d6:	00000093          	li	ra,0
     3da:	0305                	addi	t1,t1,1
     3dc:	0024                	addi	s1,sp,8
     3de:	1000                	addi	s0,sp,32
     3e0:	920c                	0x920c
     3e2:	0029                	c.nop	10
     3e4:	0100                	addi	s0,sp,128
     3e6:	102e                	c.slli	zero,0x2b
     3e8:	00000093          	li	ra,0
     3ec:	0305                	addi	t1,t1,1
     3ee:	0025                	c.nop	9
     3f0:	1000                	addi	s0,sp,32
     3f2:	a60c                	fsd	fa1,8(a2)
     3f4:	0036                	c.slli	zero,0xd
     3f6:	0100                	addi	s0,sp,128
     3f8:	00a4112f          	0xa4112f
     3fc:	0000                	unimp
     3fe:	0305                	addi	t1,t1,1
     400:	0026                	c.slli	zero,0x9
     402:	1000                	addi	s0,sp,32
     404:	9f09                	0x9f09
     406:	0000                	unimp
     408:	c800                	sw	s0,16(s0)
     40a:	0a000003          	lb	zero,160(zero) # a0 <_start-0x760>
     40e:	008c                	addi	a1,sp,64
     410:	0000                	unimp
     412:	0009                	c.nop	2
     414:	b805                	j	fffffc44 <__freertos_irq_stack_top+0xefff7c44>
     416:	0c000003          	lb	zero,192(zero) # c0 <_start-0x740>
     41a:	07d5                	addi	a5,a5,21
     41c:	0000                	unimp
     41e:	3201                	jal	fffffd1e <__freertos_irq_stack_top+0xefff7d1e>
     420:	c816                	sw	t0,16(sp)
     422:	05000003          	lb	zero,80(zero) # 50 <_start-0x7b0>
     426:	00000c03          	lb	s8,0(zero) # 0 <_start-0x800>
     42a:	0c10                	addi	a2,sp,528
     42c:	23ca                	fld	ft7,144(sp)
     42e:	0000                	unimp
     430:	3301                	jal	130 <_start-0x6d0>
     432:	e610                	fsw	fa2,8(a2)
     434:	0002                	c.slli64	zero
     436:	0500                	addi	s0,sp,640
     438:	00002803          	lw	a6,0(zero) # 0 <_start-0x800>
     43c:	0c10                	addi	a2,sp,528
     43e:	0000344b          	fnmsub.s	fs0,ft0,ft0,ft0,rup
     442:	3401                	jal	fffffe42 <__freertos_irq_stack_top+0xefff7e42>
     444:	9310                	0x9310
     446:	0000                	unimp
     448:	0500                	addi	s0,sp,640
     44a:	00002c03          	lw	s8,0(zero) # 0 <_start-0x800>
     44e:	0c10                	addi	a2,sp,528
     450:	000027bf a4113801 	0xa4113801000027bf
     458:	0000                	unimp
     45a:	0500                	addi	s0,sp,640
     45c:	00002e03          	lw	t3,0(zero) # 0 <_start-0x800>
     460:	0c10                	addi	a2,sp,528
     462:	1611                	addi	a2,a2,-28
     464:	0000                	unimp
     466:	3b01                	jal	176 <_start-0x68a>
     468:	9310                	0x9310
     46a:	0000                	unimp
     46c:	0500                	addi	s0,sp,640
     46e:	00003003          	0x3003
     472:	0d10                	addi	a2,sp,656
     474:	2de2                	fld	fs11,24(sp)
     476:	0000                	unimp
     478:	8101                	c.srli64	a0
     47a:	8505                	srai	a0,a0,0x1
     47c:	0000                	unimp
     47e:	f000                	fsw	fs0,32(s0)
     480:	000a                	c.slli	zero,0x2
     482:	ac00                	fsd	fs0,24(s0)
     484:	0002                	c.slli64	zero
     486:	0100                	addi	s0,sp,128
     488:	519c                	lw	a5,32(a1)
     48a:	0004                	0x4
     48c:	0c00                	addi	s0,sp,528
     48e:	0575                	addi	a0,a0,29
     490:	0000                	unimp
     492:	9101                	srli	a0,a0,0x20
     494:	f611                	bnez	a2,3a0 <_start-0x460>
     496:	0002                	c.slli64	zero
     498:	0200                	addi	s0,sp,256
     49a:	4c91                	li	s9,4
     49c:	0e00                	addi	s0,sp,784
     49e:	00003797          	auipc	a5,0x3
     4a2:	5d01                	li	s10,-32
     4a4:	3c0d                	jal	fffffed6 <__freertos_irq_stack_top+0xefff7ed6>
     4a6:	000a                	c.slli	zero,0x2
     4a8:	b400                	fsd	fs0,40(s0)
     4aa:	0000                	unimp
     4ac:	0100                	addi	s0,sp,128
     4ae:	0f9c                	addi	a5,sp,976
     4b0:	2ed6                	fld	ft9,336(sp)
     4b2:	0000                	unimp
     4b4:	5101                	li	sp,-32
     4b6:	ec0d                	bnez	s0,4f0 <_start-0x310>
     4b8:	0009                	c.nop	2
     4ba:	5000                	lw	s0,32(s0)
     4bc:	0000                	unimp
     4be:	0100                	addi	s0,sp,128
     4c0:	899c                	0x899c
     4c2:	0004                	0x4
     4c4:	0c00                	addi	s0,sp,528
     4c6:	0000282f          	amoadd.w	a6,zero,(zero)
     4ca:	5201                	li	tp,-32
     4cc:	930a                	add	t1,t1,sp
     4ce:	0000                	unimp
     4d0:	0200                	addi	s0,sp,256
     4d2:	6f91                	lui	t6,0x4
     4d4:	1000                	addi	s0,sp,32
     4d6:	2ec6                	fld	ft9,80(sp)
     4d8:	0000                	unimp
     4da:	3f01                	jal	3ea <_start-0x416>
     4dc:	9006                	c.add	zero,ra
     4de:	0009                	c.nop	2
     4e0:	5c00                	lw	s0,56(s0)
     4e2:	0000                	unimp
     4e4:	0100                	addi	s0,sp,128
     4e6:	0c9c                	addi	a5,sp,592
     4e8:	3440                	fld	fs0,168(s0)
     4ea:	0000                	unimp
     4ec:	4001                	c.li	zero,0
     4ee:	0000b00b          	0xb00b
     4f2:	0200                	addi	s0,sp,256
     4f4:	6c91                	lui	s9,0x4
     4f6:	0000                	unimp
     4f8:	007e                	c.slli	zero,0x1f
     4fa:	0000                	unimp
     4fc:	0004                	0x4
     4fe:	012c                	addi	a1,sp,136
     500:	0000                	unimp
     502:	0104                	addi	s1,sp,128
     504:	203d                	jal	532 <_start-0x2ce>
     506:	0000                	unimp
     508:	bb0c                	fsd	fa1,48(a4)
     50a:	0039                	c.nop	14
     50c:	0e00                	addi	s0,sp,784
     50e:	0000                	unimp
     510:	2800                	fld	fs0,16(s0)
     512:	0000                	unimp
     514:	0000                	unimp
     516:	0000                	unimp
     518:	e500                	fsw	fs0,8(a0)
     51a:	fe000007          	0xfe000007
     51e:	000c                	0xc
     520:	0200                	addi	s0,sp,256
     522:	0601                	addi	a2,a2,0
     524:	2a84                	fld	fs1,16(a3)
     526:	0000                	unimp
     528:	0102                	c.slli64	sp
     52a:	3208                	fld	fa0,32(a2)
     52c:	002c                	addi	a1,sp,8
     52e:	0200                	addi	s0,sp,256
     530:	0502                	c.slli64	a0
     532:	000007cb          	fnmsub.s	fa5,ft0,ft0,ft0,rne
     536:	0202                	c.slli64	tp
     538:	00069d07          	0x69d07
     53c:	0200                	addi	s0,sp,256
     53e:	0504                	addi	s1,sp,640
     540:	2930                	fld	fa2,80(a0)
     542:	0000                	unimp
     544:	0402                	c.slli64	s0
     546:	00265a07          	0x265a07
     54a:	0200                	addi	s0,sp,256
     54c:	0508                	addi	a0,sp,640
     54e:	1636                	slli	a2,a2,0x2d
     550:	0000                	unimp
     552:	0802                	c.slli64	a6
     554:	00349807          	0x349807
     558:	0300                	addi	s0,sp,384
     55a:	0504                	addi	s1,sp,640
     55c:	6e69                	lui	t3,0x1a
     55e:	0074                	addi	a3,sp,12
     560:	0402                	c.slli64	s0
     562:	00298507          	0x298507
     566:	0400                	addi	s0,sp,512
     568:	3c20                	fld	fs0,120(s0)
     56a:	0000                	unimp
     56c:	0b01                	addi	s6,s6,0
     56e:	9c06                	add	s8,s8,ra
     570:	000d                	c.nop	3
     572:	3400                	fld	fs0,40(s0)
     574:	0000                	unimp
     576:	0100                	addi	s0,sp,128
     578:	009c                	addi	a5,sp,64
     57a:	00ea                	slli	ra,ra,0x1a
     57c:	0000                	unimp
     57e:	0004                	0x4
     580:	0171                	addi	sp,sp,28
     582:	0000                	unimp
     584:	0104                	addi	s1,sp,128
     586:	203d                	jal	5b4 <_start-0x24c>
     588:	0000                	unimp
     58a:	590c                	lw	a1,48(a0)
     58c:	003a                	c.slli	zero,0xe
     58e:	0e00                	addi	s0,sp,784
     590:	0000                	unimp
     592:	3800                	fld	fs0,48(s0)
     594:	0000                	unimp
     596:	0000                	unimp
     598:	0000                	unimp
     59a:	5100                	lw	s0,32(a0)
     59c:	000a                	c.slli	zero,0x2
     59e:	6000                	flw	fs0,0(s0)
     5a0:	000d                	c.nop	3
     5a2:	0200                	addi	s0,sp,256
     5a4:	0601                	addi	a2,a2,0
     5a6:	2a84                	fld	fs1,16(a3)
     5a8:	0000                	unimp
     5aa:	0102                	c.slli64	sp
     5ac:	3208                	fld	fa0,32(a2)
     5ae:	002c                	addi	a1,sp,8
     5b0:	0200                	addi	s0,sp,256
     5b2:	0502                	c.slli64	a0
     5b4:	000007cb          	fnmsub.s	fa5,ft0,ft0,ft0,rne
     5b8:	0202                	c.slli64	tp
     5ba:	00069d07          	0x69d07
     5be:	0200                	addi	s0,sp,256
     5c0:	0504                	addi	s1,sp,640
     5c2:	2930                	fld	fa2,80(a0)
     5c4:	0000                	unimp
     5c6:	0030ee03          	0x30ee03
     5ca:	0200                	addi	s0,sp,256
     5cc:	0058194f          	fnmadd.s	fs2,fa6,ft5,ft0,rtz
     5d0:	0000                	unimp
     5d2:	0402                	c.slli64	s0
     5d4:	00265a07          	0x265a07
     5d8:	0200                	addi	s0,sp,256
     5da:	0508                	addi	a0,sp,640
     5dc:	1636                	slli	a2,a2,0x2d
     5de:	0000                	unimp
     5e0:	0802                	c.slli64	a6
     5e2:	00349807          	0x349807
     5e6:	0400                	addi	s0,sp,512
     5e8:	0504                	addi	s1,sp,640
     5ea:	6e69                	lui	t3,0x1a
     5ec:	0074                	addi	a3,sp,12
     5ee:	0402                	c.slli64	s0
     5f0:	00298507          	0x298507
     5f4:	0300                	addi	s0,sp,384
     5f6:	30f0                	fld	fa2,224(s1)
     5f8:	0000                	unimp
     5fa:	4c143003          	0x4c143003
     5fe:	0000                	unimp
     600:	0500                	addi	s0,sp,640
     602:	3a6e                	fld	fs4,248(sp)
     604:	0000                	unimp
     606:	2301                	jal	b06 <main+0x16>
     608:	5006                	0x5006
     60a:	000e                	c.slli	zero,0x3
     60c:	1800                	addi	s0,sp,48
     60e:	0000                	unimp
     610:	0100                	addi	s0,sp,128
     612:	bc9c                	fsd	fa5,56(s1)
     614:	0000                	unimp
     616:	0600                	addi	s0,sp,768
     618:	39f2                	fld	fs3,312(sp)
     61a:	0000                	unimp
     61c:	2301                	jal	b1c <main+0x2c>
     61e:	7b1c                	flw	fa5,48(a4)
     620:	0000                	unimp
     622:	0200                	addi	s0,sp,256
     624:	6c91                	lui	s9,0x4
     626:	7b06                	flw	fs6,96(sp)
     628:	003a                	c.slli	zero,0xe
     62a:	0100                	addi	s0,sp,128
     62c:	007b2d23          	sw	t2,26(s6) # b0001a <__stack_size+0xafe01a>
     630:	0000                	unimp
     632:	9102                	jalr	sp
     634:	0068                	addi	a0,sp,12
     636:	003a4c07          	flq	fs8,3(s4)
     63a:	0100                	addi	s0,sp,128
     63c:	0dd00613          	li	a2,221
     640:	0000                	unimp
     642:	0080                	addi	s0,sp,64
     644:	0000                	unimp
     646:	9c01                	0x9c01
     648:	f206                	fsw	ft1,36(sp)
     64a:	0039                	c.nop	14
     64c:	0100                	addi	s0,sp,128
     64e:	007b1c13          	slli	s8,s6,0x7
     652:	0000                	unimp
     654:	9102                	jalr	sp
     656:	066c                	addi	a1,sp,780
     658:	00003a7b          	0x3a7b
     65c:	1301                	addi	t1,t1,-32
     65e:	7b2d                	lui	s6,0xfffeb
     660:	0000                	unimp
     662:	0200                	addi	s0,sp,256
     664:	6891                	lui	a7,0x4
     666:	0000                	unimp
     668:	038e                	slli	t2,t2,0x3
     66a:	0000                	unimp
     66c:	0004                	0x4
     66e:	01f4                	addi	a3,sp,204
     670:	0000                	unimp
     672:	0104                	addi	s1,sp,128
     674:	203d                	jal	6a2 <_start-0x15e>
     676:	0000                	unimp
     678:	830c                	0x830c
     67a:	0e00003b          	0xe00003b
     67e:	0000                	unimp
     680:	5000                	lw	s0,32(s0)
     682:	0000                	unimp
     684:	0000                	unimp
     686:	0000                	unimp
     688:	e800                	fsw	fs0,16(s0)
     68a:	000c                	0xc
     68c:	cb00                	sw	s0,16(a4)
     68e:	000d                	c.nop	3
     690:	0200                	addi	s0,sp,256
     692:	0601                	addi	a2,a2,0
     694:	2a84                	fld	fs1,16(a3)
     696:	0000                	unimp
     698:	002c5203          	lhu	tp,2(s8)
     69c:	0200                	addi	s0,sp,256
     69e:	003c182b          	0x3c182b
     6a2:	0000                	unimp
     6a4:	0102                	c.slli64	sp
     6a6:	3208                	fld	fa0,32(a2)
     6a8:	002c                	addi	a1,sp,8
     6aa:	0200                	addi	s0,sp,256
     6ac:	0502                	c.slli64	a0
     6ae:	000007cb          	fnmsub.s	fa5,ft0,ft0,ft0,rne
     6b2:	0202                	c.slli64	tp
     6b4:	00069d07          	0x69d07
     6b8:	0200                	addi	s0,sp,256
     6ba:	0504                	addi	s1,sp,640
     6bc:	2930                	fld	fa2,80(a0)
     6be:	0000                	unimp
     6c0:	0030ee03          	0x30ee03
     6c4:	0200                	addi	s0,sp,256
     6c6:	0064194f          	fnmadd.s	fs2,fs0,ft6,ft0,rtz
     6ca:	0000                	unimp
     6cc:	0402                	c.slli64	s0
     6ce:	00265a07          	0x265a07
     6d2:	0200                	addi	s0,sp,256
     6d4:	0508                	addi	a0,sp,640
     6d6:	1636                	slli	a2,a2,0x2d
     6d8:	0000                	unimp
     6da:	0802                	c.slli64	a6
     6dc:	00349807          	0x349807
     6e0:	0400                	addi	s0,sp,512
     6e2:	0504                	addi	s1,sp,640
     6e4:	6e69                	lui	t3,0x1a
     6e6:	0074                	addi	a3,sp,12
     6e8:	0402                	c.slli64	s0
     6ea:	00298507          	0x298507
     6ee:	0300                	addi	s0,sp,384
     6f0:	2c54                	fld	fa3,152(s0)
     6f2:	0000                	unimp
     6f4:	30131803          	lh	a6,769(t1)
     6f8:	0000                	unimp
     6fa:	0500                	addi	s0,sp,640
     6fc:	00000087          	0x87
     700:	0030f003          	0x30f003
     704:	0300                	addi	s0,sp,384
     706:	1430                	addi	a2,sp,552
     708:	0058                	addi	a4,sp,4
     70a:	0000                	unimp
     70c:	9805                	andi	s0,s0,-31
     70e:	0000                	unimp
     710:	0600                	addi	s0,sp,768
     712:	0404                	addi	s1,sp,512
     714:	00c0090f          	0xc0090f
     718:	0000                	unimp
     71a:	0030bb07          	fld	fs6,3(ra)
     71e:	0400                	addi	s0,sp,512
     720:	0b10                	addi	a2,sp,400
     722:	0098                	addi	a4,sp,64
     724:	0000                	unimp
     726:	0000                	unimp
     728:	002b2703          	lw	a4,2(s6) # fffeb002 <__freertos_irq_stack_top+0xeffe3002>
     72c:	0400                	addi	s0,sp,512
     72e:	0211                	addi	tp,tp,4
     730:	00a9                	addi	ra,ra,10
     732:	0000                	unimp
     734:	1308                	addi	a0,sp,416
     736:	0100003b          	0x100003b
     73a:	0682                	c.slli64	a3
     73c:	1044                	addi	s1,sp,36
     73e:	0000                	unimp
     740:	0064                	addi	s1,sp,12
     742:	0000                	unimp
     744:	9c01                	0x9c01
     746:	0138                	addi	a4,sp,136
     748:	0000                	unimp
     74a:	a409                	j	94c <asynchronous_return+0x48>
     74c:	0000                	unimp
     74e:	0100                	addi	s0,sp,128
     750:	2482                	fld	fs1,0(sp)
     752:	0138                	addi	a4,sp,136
     754:	0000                	unimp
     756:	9102                	jalr	sp
     758:	095c                	addi	a5,sp,148
     75a:	3bc8                	fld	fa0,176(a5)
     75c:	0000                	unimp
     75e:	8201                	c.srli64	a2
     760:	00009833          	sll	a6,ra,zero
     764:	0200                	addi	s0,sp,256
     766:	5891                	li	a7,-28
     768:	800a                	c.mv	zero,sp
     76a:	003a                	c.slli	zero,0xe
     76c:	0100                	addi	s0,sp,128
     76e:	00641083          	lh	ra,6(s0) # ffff8006 <__freertos_irq_stack_top+0xefff0006>
     772:	0000                	unimp
     774:	9102                	jalr	sp
     776:	0a68                	addi	a0,sp,284
     778:	3b59                	jal	50e <_start-0x2f2>
     77a:	0000                	unimp
     77c:	8401                	c.srai64	s0
     77e:	3e15                	jal	2b2 <_start-0x54e>
     780:	0001                	nop
     782:	0200                	addi	s0,sp,256
     784:	6491                	lui	s1,0x4
     786:	0010580b          	0x10580b
     78a:	0c00                	addi	s0,sp,528
     78c:	0000                	unimp
     78e:	0a00                	addi	s0,sp,272
     790:	3bf2                	fld	fs7,312(sp)
     792:	0000                	unimp
     794:	8301                	c.srli64	a4
     796:	641a                	flw	fs0,132(sp)
     798:	0000                	unimp
     79a:	0200                	addi	s0,sp,256
     79c:	6c91                	lui	s9,0x4
     79e:	0000                	unimp
     7a0:	040c                	addi	a1,sp,512
     7a2:	00c0                	addi	s0,sp,68
     7a4:	0000                	unimp
     7a6:	040c                	addi	a1,sp,512
     7a8:	00a4                	addi	s1,sp,72
     7aa:	0000                	unimp
     7ac:	940d                	srai	s0,s0,0x23
     7ae:	0100003b          	0x100003b
     7b2:	0a71                	addi	s4,s4,28
     7b4:	0098                	addi	a4,sp,64
     7b6:	0000                	unimp
     7b8:	0fe8                	addi	a0,sp,988
     7ba:	0000                	unimp
     7bc:	005c                	addi	a5,sp,4
     7be:	0000                	unimp
     7c0:	9c01                	0x9c01
     7c2:	01a5                	addi	gp,gp,9
     7c4:	0000                	unimp
     7c6:	a409                	j	9c8 <ext_irq_handler+0x38>
     7c8:	0000                	unimp
     7ca:	0100                	addi	s0,sp,128
     7cc:	2571                	jal	e58 <serr_handler+0x8>
     7ce:	0138                	addi	a4,sp,136
     7d0:	0000                	unimp
     7d2:	9102                	jalr	sp
     7d4:	0a5c                	addi	a5,sp,276
     7d6:	3a80                	fld	fs0,48(a3)
     7d8:	0000                	unimp
     7da:	7201                	lui	tp,0xfffe0
     7dc:	6410                	flw	fa2,8(s0)
     7de:	0000                	unimp
     7e0:	0200                	addi	s0,sp,256
     7e2:	6891                	lui	a7,0x4
     7e4:	590a                	lw	s2,160(sp)
     7e6:	0100003b          	0x100003b
     7ea:	1574                	addi	a3,sp,684
     7ec:	013e                	slli	sp,sp,0xf
     7ee:	0000                	unimp
     7f0:	9102                	jalr	sp
     7f2:	0b64                	addi	s1,sp,412
     7f4:	0ff8                	addi	a4,sp,988
     7f6:	0000                	unimp
     7f8:	000c                	0xc
     7fa:	0000                	unimp
     7fc:	f20a                	fsw	ft2,36(sp)
     7fe:	0100003b          	0x100003b
     802:	1a72                	slli	s4,s4,0x3c
     804:	0064                	addi	s1,sp,12
     806:	0000                	unimp
     808:	9102                	jalr	sp
     80a:	006c                	addi	a1,sp,12
     80c:	0800                	addi	s0,sp,16
     80e:	3ab1                	jal	16a <_start-0x696>
     810:	0000                	unimp
     812:	6301                	0x6301
     814:	9c06                	add	s8,s8,ra
     816:	4c00000f          	0x4c00000f
     81a:	0000                	unimp
     81c:	0100                	addi	s0,sp,128
     81e:	f89c                	fsw	fa5,48(s1)
     820:	0001                	nop
     822:	0900                	addi	s0,sp,144
     824:	00a4                	addi	s1,sp,72
     826:	0000                	unimp
     828:	6301                	0x6301
     82a:	381f 0001 0200      	0x2000001381f
     830:	5c91                	li	s9,-28
     832:	c809                	beqz	s0,844 <_start+0x44>
     834:	0100003b          	0x100003b
     838:	00982e63          	0x982e63
     83c:	0000                	unimp
     83e:	9102                	jalr	sp
     840:	0958                	addi	a4,sp,148
     842:	3aba                	fld	fs5,424(sp)
     844:	0000                	unimp
     846:	6301                	0x6301
     848:	0000983f 54910200 	0x549102000000983f
     850:	4c0a                	lw	s8,128(sp)
     852:	0100003b          	0x100003b
     856:	1864                	addi	s1,sp,60
     858:	013e                	slli	sp,sp,0xf
     85a:	0000                	unimp
     85c:	9102                	jalr	sp
     85e:	006c                	addi	a1,sp,12
     860:	c308                	sw	a0,0(a4)
     862:	003a                	c.slli	zero,0xe
     864:	0100                	addi	s0,sp,128
     866:	064d                	addi	a2,a2,19
	...
     870:	9c01                	0x9c01
     872:	00000273          	0x273
     876:	a409                	j	a78 <tube_scan_disp+0x3c>
     878:	0000                	unimp
     87a:	0100                	addi	s0,sp,128
     87c:	244d                	jal	b1e <main+0x2e>
     87e:	0138                	addi	a4,sp,136
     880:	0000                	unimp
     882:	9102                	jalr	sp
     884:	095c                	addi	a5,sp,148
     886:	3bc8                	fld	fa0,176(a5)
     888:	0000                	unimp
     88a:	4d01                	li	s10,0
     88c:	00009833          	sll	a6,ra,zero
     890:	0200                	addi	s0,sp,256
     892:	5891                	li	a7,-28
     894:	800a                	c.mv	zero,sp
     896:	003a                	c.slli	zero,0xe
     898:	0100                	addi	s0,sp,128
     89a:	104e                	c.slli	zero,0x33
     89c:	0064                	addi	s1,sp,12
     89e:	0000                	unimp
     8a0:	9102                	jalr	sp
     8a2:	0a68                	addi	a0,sp,284
     8a4:	3c3c                	fld	fa5,120(s0)
     8a6:	0000                	unimp
     8a8:	4f01                	li	t5,0
     8aa:	7315                	lui	t1,0xfffe5
     8ac:	0002                	c.slli64	zero
     8ae:	0200                	addi	s0,sp,256
     8b0:	6491                	lui	s1,0x4
     8b2:	f80a                	fsw	ft2,48(sp)
     8b4:	0100003b          	0x100003b
     8b8:	0a52                	slli	s4,s4,0x14
     8ba:	00000087          	0x87
     8be:	9102                	jalr	sp
     8c0:	00000b63          	beqz	zero,8d6 <trap_entry+0x6e>
     8c4:	0000                	unimp
     8c6:	0000                	unimp
     8c8:	0000                	unimp
     8ca:	f20a                	fsw	ft2,36(sp)
     8cc:	0100003b          	0x100003b
     8d0:	1a4e                	slli	s4,s4,0x33
     8d2:	0064                	addi	s1,sp,12
     8d4:	0000                	unimp
     8d6:	9102                	jalr	sp
     8d8:	006c                	addi	a1,sp,12
     8da:	0c00                	addi	s0,sp,528
     8dc:	9304                	0x9304
     8de:	0000                	unimp
     8e0:	0800                	addi	s0,sp,16
     8e2:	3c26                	fld	fs8,104(sp)
     8e4:	0000                	unimp
     8e6:	3901                	jal	4f6 <_start-0x30a>
     8e8:	f806                	fsw	ft1,48(sp)
     8ea:	000e                	c.slli	zero,0x3
     8ec:	a400                	fsd	fs0,8(s0)
     8ee:	0000                	unimp
     8f0:	0100                	addi	s0,sp,128
     8f2:	f49c                	fsw	fa5,40(s1)
     8f4:	0002                	c.slli64	zero
     8f6:	0900                	addi	s0,sp,144
     8f8:	00a4                	addi	s1,sp,72
     8fa:	0000                	unimp
     8fc:	3901                	jal	50c <_start-0x2f4>
     8fe:	3822                	fld	fa6,40(sp)
     900:	0001                	nop
     902:	0200                	addi	s0,sp,256
     904:	5c91                	li	s9,-28
     906:	c809                	beqz	s0,918 <asynchronous_return+0x14>
     908:	0100003b          	0x100003b
     90c:	3139                	jal	51a <_start-0x2e6>
     90e:	0098                	addi	a4,sp,64
     910:	0000                	unimp
     912:	9102                	jalr	sp
     914:	0a58                	addi	a4,sp,276
     916:	3a80                	fld	fs0,48(a3)
     918:	0000                	unimp
     91a:	3a01                	jal	22a <_start-0x5d6>
     91c:	6410                	flw	fa2,8(s0)
     91e:	0000                	unimp
     920:	0200                	addi	s0,sp,256
     922:	6891                	lui	a7,0x4
     924:	3c0a                	fld	fs8,160(sp)
     926:	003c                	addi	a5,sp,8
     928:	0100                	addi	s0,sp,128
     92a:	0273143b          	0x273143b
     92e:	0000                	unimp
     930:	9102                	jalr	sp
     932:	0a64                	addi	s1,sp,284
     934:	3bf8                	fld	fa4,240(a5)
     936:	0000                	unimp
     938:	3e01                	jal	448 <_start-0x3b8>
     93a:	870a                	mv	a4,sp
     93c:	0000                	unimp
     93e:	0200                	addi	s0,sp,256
     940:	6391                	lui	t2,0x4
     942:	000f0c0b          	0xf0c0b
     946:	0c00                	addi	s0,sp,528
     948:	0000                	unimp
     94a:	0a00                	addi	s0,sp,272
     94c:	3bf2                	fld	fs7,312(sp)
     94e:	0000                	unimp
     950:	3a01                	jal	260 <_start-0x5a0>
     952:	641a                	flw	fs0,132(sp)
     954:	0000                	unimp
     956:	0200                	addi	s0,sp,256
     958:	6c91                	lui	s9,0x4
     95a:	0000                	unimp
     95c:	4808                	lw	a0,16(s0)
     95e:	003c                	addi	a5,sp,8
     960:	0100                	addi	s0,sp,128
     962:	0629                	addi	a2,a2,10
     964:	0e98                	addi	a4,sp,848
     966:	0000                	unimp
     968:	0060                	addi	s0,sp,12
     96a:	0000                	unimp
     96c:	9c01                	0x9c01
     96e:	0360                	addi	s0,sp,396
     970:	0000                	unimp
     972:	a409                	j	b74 <main+0x84>
     974:	0000                	unimp
     976:	0100                	addi	s0,sp,128
     978:	1f29                	addi	t5,t5,-22
     97a:	0138                	addi	a4,sp,136
     97c:	0000                	unimp
     97e:	9102                	jalr	sp
     980:	095c                	addi	a5,sp,148
     982:	3c51                	jal	416 <_start-0x3ea>
     984:	0000                	unimp
     986:	2901                	jal	d96 <main+0x2a6>
     988:	982e                	add	a6,a6,a1
     98a:	0000                	unimp
     98c:	0200                	addi	s0,sp,256
     98e:	5891                	li	a7,-28
     990:	800a                	c.mv	zero,sp
     992:	003a                	c.slli	zero,0xe
     994:	0100                	addi	s0,sp,128
     996:	102a                	c.slli	zero,0x2a
     998:	0064                	addi	s1,sp,12
     99a:	0000                	unimp
     99c:	9102                	jalr	sp
     99e:	0a68                	addi	a0,sp,284
     9a0:	00003aa3          	0x3aa3
     9a4:	2b01                	jal	eb4 <plic_set_threshold+0x1c>
     9a6:	3e15                	jal	4da <_start-0x326>
     9a8:	0001                	nop
     9aa:	0200                	addi	s0,sp,256
     9ac:	6491                	lui	s1,0x4
     9ae:	000eac0b          	0xeac0b
     9b2:	0c00                	addi	s0,sp,528
     9b4:	0000                	unimp
     9b6:	0a00                	addi	s0,sp,272
     9b8:	3bf2                	fld	fs7,312(sp)
     9ba:	0000                	unimp
     9bc:	2a01                	jal	acc <tube_scan_disp+0x90>
     9be:	641a                	flw	fs0,132(sp)
     9c0:	0000                	unimp
     9c2:	0200                	addi	s0,sp,256
     9c4:	6c91                	lui	s9,0x4
     9c6:	0000                	unimp
     9c8:	1c0e                	slli	s8,s8,0x23
     9ca:	003c                	addi	a5,sp,8
     9cc:	0100                	addi	s0,sp,128
     9ce:	061d                	addi	a2,a2,7
     9d0:	0e68                	addi	a0,sp,796
     9d2:	0000                	unimp
     9d4:	0030                	addi	a2,sp,8
     9d6:	0000                	unimp
     9d8:	9c01                	0x9c01
     9da:	a409                	j	bdc <main+0xec>
     9dc:	0000                	unimp
     9de:	0100                	addi	s0,sp,128
     9e0:	161d                	addi	a2,a2,-25
     9e2:	0138                	addi	a4,sp,136
     9e4:	0000                	unimp
     9e6:	9102                	jalr	sp
     9e8:	096c                	addi	a1,sp,156
     9ea:	000030bb          	0x30bb
     9ee:	1d01                	addi	s10,s10,-32
     9f0:	9825                	andi	s0,s0,-23
     9f2:	0000                	unimp
     9f4:	0200                	addi	s0,sp,256
     9f6:	6891                	lui	a7,0x4
     9f8:	0000                	unimp
     9fa:	02b0                	addi	a2,sp,328
     9fc:	0000                	unimp
     9fe:	0004                	0x4
     a00:	02df 0000 0104      	0x104000002df
     a06:	203d                	jal	a34 <timer0_itr_handler+0x48>
     a08:	0000                	unimp
     a0a:	db0c                	sw	a1,48(a4)
     a0c:	003c                	addi	a5,sp,8
     a0e:	0e00                	addi	s0,sp,784
     a10:	0000                	unimp
     a12:	9000                	0x9000
     a14:	0000                	unimp
     a16:	0000                	unimp
     a18:	0000                	unimp
     a1a:	ad00                	fsd	fs0,24(a0)
     a1c:	0011                	c.nop	4
     a1e:	6700                	flw	fs0,8(a4)
     a20:	000e                	c.slli	zero,0x3
     a22:	0200                	addi	s0,sp,256
     a24:	0601                	addi	a2,a2,0
     a26:	2a84                	fld	fs1,16(a3)
     a28:	0000                	unimp
     a2a:	0102                	c.slli64	sp
     a2c:	3208                	fld	fa0,32(a2)
     a2e:	002c                	addi	a1,sp,8
     a30:	0200                	addi	s0,sp,256
     a32:	0502                	c.slli64	a0
     a34:	000007cb          	fnmsub.s	fa5,ft0,ft0,ft0,rne
     a38:	0202                	c.slli64	tp
     a3a:	00069d07          	0x69d07
     a3e:	0200                	addi	s0,sp,256
     a40:	0504                	addi	s1,sp,640
     a42:	2930                	fld	fa2,80(a0)
     a44:	0000                	unimp
     a46:	0030ee03          	0x30ee03
     a4a:	0200                	addi	s0,sp,256
     a4c:	0058194f          	fnmadd.s	fs2,fa6,ft5,ft0,rtz
     a50:	0000                	unimp
     a52:	0402                	c.slli64	s0
     a54:	00265a07          	0x265a07
     a58:	0200                	addi	s0,sp,256
     a5a:	0508                	addi	a0,sp,640
     a5c:	1636                	slli	a2,a2,0x2d
     a5e:	0000                	unimp
     a60:	0802                	c.slli64	a6
     a62:	00349807          	0x349807
     a66:	0400                	addi	s0,sp,512
     a68:	0504                	addi	s1,sp,640
     a6a:	6e69                	lui	t3,0x1a
     a6c:	0074                	addi	a3,sp,12
     a6e:	0402                	c.slli64	s0
     a70:	00298507          	0x298507
     a74:	0300                	addi	s0,sp,384
     a76:	30f0                	fld	fa2,224(s1)
     a78:	0000                	unimp
     a7a:	4c143003          	0x4c143003
     a7e:	0000                	unimp
     a80:	0500                	addi	s0,sp,640
     a82:	041c                	addi	a5,sp,512
     a84:	00ec090f          	0xec090f
     a88:	0000                	unimp
     a8a:	7e06                	flw	ft8,96(sp)
     a8c:	0008                	0x8
     a8e:	0400                	addi	s0,sp,512
     a90:	0b10                	addi	a2,sp,400
     a92:	0000007b          	0x7b
     a96:	0600                	addi	s0,sp,768
     a98:	0ba0                	addi	s0,sp,472
     a9a:	0000                	unimp
     a9c:	1104                	addi	s1,sp,160
     a9e:	00007b0b          	0x7b0b
     aa2:	0400                	addi	s0,sp,512
     aa4:	dd06                	sw	ra,184(sp)
     aa6:	0008                	0x8
     aa8:	0400                	addi	s0,sp,512
     aaa:	0b12                	slli	s6,s6,0x4
     aac:	0000007b          	0x7b
     ab0:	0608                	addi	a0,sp,768
     ab2:	29a5                	jal	f2a <plic_enable_interrupt+0x32>
     ab4:	0000                	unimp
     ab6:	1304                	addi	s1,sp,416
     ab8:	00007b0b          	0x7b0b
     abc:	0c00                	addi	s0,sp,528
     abe:	5706                	lw	a4,96(sp)
     ac0:	04000013          	li	zero,64
     ac4:	0b14                	addi	a3,sp,400
     ac6:	0000007b          	0x7b
     aca:	0610                	addi	a2,sp,768
     acc:	3ca9                	jal	526 <_start-0x2da>
     ace:	0000                	unimp
     ad0:	1504                	addi	s1,sp,672
     ad2:	00007b0b          	0x7b0b
     ad6:	1400                	addi	s0,sp,544
     ad8:	c606                	sw	ra,12(sp)
     ada:	0400002f          	0x400002f
     ade:	0b16                	slli	s6,s6,0x5
     ae0:	0000007b          	0x7b
     ae4:	0018                	0x18
     ae6:	00177003          	0x177003
     aea:	0400                	addi	s0,sp,512
     aec:	00870217          	auipc	tp,0x870
     af0:	0000                	unimp
     af2:	0805                	addi	a6,a6,1
     af4:	1904                	addi	s1,sp,176
     af6:	1c09                	addi	s8,s8,-30
     af8:	0001                	nop
     afa:	0600                	addi	s0,sp,768
     afc:	0a01                	addi	s4,s4,0
     afe:	0000                	unimp
     b00:	1a04                	addi	s1,sp,304
     b02:	1c0d                	addi	s8,s8,-29
     b04:	0001                	nop
     b06:	0000                	unimp
     b08:	d906                	sw	ra,176(sp)
     b0a:	0008                	0x8
     b0c:	0400                	addi	s0,sp,512
     b0e:	007b0b1b          	0x7b0b1b
     b12:	0000                	unimp
     b14:	0004                	0x4
     b16:	00ec0407          	0xec0407
     b1a:	0000                	unimp
     b1c:	00378f03          	lb	t5,3(a5) # 34a1 <__stack_size+0x14a1>
     b20:	0400                	addi	s0,sp,512
     b22:	021c                	addi	a5,sp,256
     b24:	00f8                	addi	a4,sp,76
     b26:	0000                	unimp
     b28:	5b08                	lw	a0,48(a4)
     b2a:	003c                	addi	a5,sp,8
     b2c:	0100                	addi	s0,sp,128
     b2e:	0669                	addi	a2,a2,26
	...
     b38:	9c01                	0x9c01
     b3a:	0154                	addi	a3,sp,132
     b3c:	0000                	unimp
     b3e:	7309                	lui	t1,0xfffe2
     b40:	003c                	addi	a5,sp,8
     b42:	0100                	addi	s0,sp,128
     b44:	2769                	jal	12ce <init_apb_timer+0x142>
     b46:	0154                	addi	a3,sp,132
     b48:	0000                	unimp
     b4a:	9102                	jalr	sp
     b4c:	006c                	addi	a1,sp,12
     b4e:	01220407          	0x1220407
     b52:	0000                	unimp
     b54:	9c0a                	add	s8,s8,sp
     b56:	003c                	addi	a5,sp,8
     b58:	0100                	addi	s0,sp,128
     b5a:	0a5e                	slli	s4,s4,0x17
     b5c:	0000007b          	0x7b
	...
     b68:	9c01                	0x9c01
     b6a:	0184                	addi	s1,sp,192
     b6c:	0000                	unimp
     b6e:	7309                	lui	t1,0xfffe2
     b70:	003c                	addi	a5,sp,8
     b72:	0100                	addi	s0,sp,128
     b74:	2b5e                	fld	fs6,464(sp)
     b76:	0154                	addi	a3,sp,132
     b78:	0000                	unimp
     b7a:	9102                	jalr	sp
     b7c:	006c                	addi	a1,sp,12
     b7e:	0708                	addi	a0,sp,896
     b80:	003d                	c.nop	15
     b82:	0100                	addi	s0,sp,128
     b84:	00000653          	fadd.s	fa2,ft0,ft0,rne
     b88:	0000                	unimp
     b8a:	0000                	unimp
     b8c:	0000                	unimp
     b8e:	9c01                	0x9c01
     b90:	01aa                	slli	gp,gp,0xa
     b92:	0000                	unimp
     b94:	7309                	lui	t1,0xfffe2
     b96:	003c                	addi	a5,sp,8
     b98:	0100                	addi	s0,sp,128
     b9a:	01542453          	fadd.s	fs0,fs0,fs5,rdn
     b9e:	0000                	unimp
     ba0:	9102                	jalr	sp
     ba2:	006c                	addi	a1,sp,12
     ba4:	c708                	sw	a0,8(a4)
     ba6:	003c                	addi	a5,sp,8
     ba8:	0100                	addi	s0,sp,128
     baa:	00000647          	fmsub.s	fa2,ft0,ft0,ft0,rne
     bae:	0000                	unimp
     bb0:	0000                	unimp
     bb2:	0000                	unimp
     bb4:	9c01                	0x9c01
     bb6:	01df 0000 7309      	0x7309000001df
     bbc:	003c                	addi	a5,sp,8
     bbe:	0100                	addi	s0,sp,128
     bc0:	01542347          	fmsub.s	ft6,fs0,fs5,ft0,rdn
     bc4:	0000                	unimp
     bc6:	9102                	jalr	sp
     bc8:	096c                	addi	a1,sp,156
     bca:	2fc6                	fld	ft11,80(sp)
     bcc:	0000                	unimp
     bce:	4701                	li	a4,0
     bd0:	7b36                	flw	fs6,108(sp)
     bd2:	0000                	unimp
     bd4:	0200                	addi	s0,sp,256
     bd6:	6891                	lui	a7,0x4
     bd8:	0800                	addi	s0,sp,16
     bda:	3cf0                	fld	fa2,248(s1)
     bdc:	0000                	unimp
     bde:	3a01                	jal	4ee <_start-0x312>
     be0:	4c06                	lw	s8,64(sp)
     be2:	0011                	c.nop	4
     be4:	4000                	lw	s0,0(s0)
     be6:	0000                	unimp
     be8:	0100                	addi	s0,sp,128
     bea:	149c                	addi	a5,sp,608
     bec:	0002                	c.slli64	zero
     bee:	0900                	addi	s0,sp,144
     bf0:	00003c73          	csrrc	s8,ustatus,zero
     bf4:	3a01                	jal	504 <_start-0x2fc>
     bf6:	5426                	lw	s0,104(sp)
     bf8:	0001                	nop
     bfa:	0200                	addi	s0,sp,256
     bfc:	6c91                	lui	s9,0x4
     bfe:	dd09                	beqz	a0,b18 <main+0x28>
     c00:	0008                	0x8
     c02:	0100                	addi	s0,sp,128
     c04:	393a                	fld	fs2,424(sp)
     c06:	0000007b          	0x7b
     c0a:	9102                	jalr	sp
     c0c:	0068                	addi	a0,sp,12
     c0e:	8a0a                	mv	s4,sp
     c10:	003c                	addi	a5,sp,8
     c12:	0100                	addi	s0,sp,128
     c14:	0a2e                	slli	s4,s4,0xb
     c16:	0000007b          	0x7b
     c1a:	1120                	addi	s0,sp,168
     c1c:	0000                	unimp
     c1e:	002c                	addi	a1,sp,8
     c20:	0000                	unimp
     c22:	9c01                	0x9c01
     c24:	023e                	slli	tp,tp,0xf
     c26:	0000                	unimp
     c28:	7309                	lui	t1,0xfffe2
     c2a:	003c                	addi	a5,sp,8
     c2c:	0100                	addi	s0,sp,128
     c2e:	252e                	fld	fa0,200(sp)
     c30:	0154                	addi	a3,sp,132
     c32:	0000                	unimp
     c34:	9102                	jalr	sp
     c36:	006c                	addi	a1,sp,12
     c38:	b408                	fsd	fa0,40(s0)
     c3a:	003c                	addi	a5,sp,8
     c3c:	0100                	addi	s0,sp,128
     c3e:	0622                	slli	a2,a2,0x8
     c40:	10d8                	addi	a4,sp,100
     c42:	0000                	unimp
     c44:	0048                	addi	a0,sp,4
     c46:	0000                	unimp
     c48:	9c01                	0x9c01
     c4a:	0282                	c.slli64	t0
     c4c:	0000                	unimp
     c4e:	7309                	lui	t1,0xfffe2
     c50:	003c                	addi	a5,sp,8
     c52:	0100                	addi	s0,sp,128
     c54:	2222                	fld	ft4,8(sp)
     c56:	0154                	addi	a3,sp,132
     c58:	0000                	unimp
     c5a:	9102                	jalr	sp
     c5c:	096c                	addi	a1,sp,156
     c5e:	0ba4                	addi	s1,sp,472
     c60:	0000                	unimp
     c62:	2201                	jal	d62 <main+0x272>
     c64:	7b35                	lui	s6,0xfffed
     c66:	0000                	unimp
     c68:	0200                	addi	s0,sp,256
     c6a:	6891                	lui	a7,0x4
     c6c:	9d09                	0x9d09
     c6e:	002a                	c.slli	zero,0xa
     c70:	0100                	addi	s0,sp,128
     c72:	4422                	lw	s0,8(sp)
     c74:	0000007b          	0x7b
     c78:	9102                	jalr	sp
     c7a:	0064                	addi	s1,sp,12
     c7c:	003c7c0b          	0x3c7c0b
     c80:	0100                	addi	s0,sp,128
     c82:	0615                	addi	a2,a2,5
     c84:	10a8                	addi	a0,sp,104
     c86:	0000                	unimp
     c88:	0030                	addi	a2,sp,8
     c8a:	0000                	unimp
     c8c:	9c01                	0x9c01
     c8e:	7309                	lui	t1,0xfffe2
     c90:	003c                	addi	a5,sp,8
     c92:	0100                	addi	s0,sp,128
     c94:	1d15                	addi	s10,s10,-27
     c96:	0154                	addi	a3,sp,132
     c98:	0000                	unimp
     c9a:	9102                	jalr	sp
     c9c:	096c                	addi	a1,sp,156
     c9e:	000030bb          	0x30bb
     ca2:	1501                	addi	a0,a0,-32
     ca4:	7b30                	flw	fa2,112(a4)
     ca6:	0000                	unimp
     ca8:	0200                	addi	s0,sp,256
     caa:	6891                	lui	a7,0x4
     cac:	0000                	unimp
     cae:	05b9                	addi	a1,a1,14
     cb0:	0000                	unimp
     cb2:	0004                	0x4
     cb4:	03a9                	addi	t2,t2,10
     cb6:	0000                	unimp
     cb8:	0104                	addi	s1,sp,128
     cba:	203d                	jal	ce8 <main+0x1f8>
     cbc:	0000                	unimp
     cbe:	d00c                	sw	a1,32(s0)
     cc0:	003d                	c.nop	15
     cc2:	0e00                	addi	s0,sp,784
     cc4:	0000                	unimp
     cc6:	d800                	sw	s0,48(s0)
     cc8:	0000                	unimp
     cca:	0000                	unimp
     ccc:	0000                	unimp
     cce:	7f00                	flw	fs0,56(a4)
     cd0:	0015                	c.nop	5
     cd2:	ca00                	sw	s0,16(a2)
     cd4:	000e                	c.slli	zero,0x3
     cd6:	0200                	addi	s0,sp,256
     cd8:	0601                	addi	a2,a2,0
     cda:	2a84                	fld	fs1,16(a3)
     cdc:	0000                	unimp
     cde:	002c5203          	lhu	tp,2(s8)
     ce2:	0200                	addi	s0,sp,256
     ce4:	003c182b          	0x3c182b
     ce8:	0000                	unimp
     cea:	0102                	c.slli64	sp
     cec:	3208                	fld	fa0,32(a2)
     cee:	002c                	addi	a1,sp,8
     cf0:	0200                	addi	s0,sp,256
     cf2:	0502                	c.slli64	a0
     cf4:	000007cb          	fnmsub.s	fa5,ft0,ft0,ft0,rne
     cf8:	0202                	c.slli64	tp
     cfa:	00069d07          	0x69d07
     cfe:	0200                	addi	s0,sp,256
     d00:	0504                	addi	s1,sp,640
     d02:	2930                	fld	fa2,80(a0)
     d04:	0000                	unimp
     d06:	0030ee03          	0x30ee03
     d0a:	0200                	addi	s0,sp,256
     d0c:	0064194f          	fnmadd.s	fs2,fs0,ft6,ft0,rtz
     d10:	0000                	unimp
     d12:	0402                	c.slli64	s0
     d14:	00265a07          	0x265a07
     d18:	0200                	addi	s0,sp,256
     d1a:	0508                	addi	a0,sp,640
     d1c:	1636                	slli	a2,a2,0x2d
     d1e:	0000                	unimp
     d20:	0802                	c.slli64	a6
     d22:	00349807          	0x349807
     d26:	0400                	addi	s0,sp,512
     d28:	0504                	addi	s1,sp,640
     d2a:	6e69                	lui	t3,0x1a
     d2c:	0074                	addi	a3,sp,12
     d2e:	0402                	c.slli64	s0
     d30:	00298507          	0x298507
     d34:	0300                	addi	s0,sp,384
     d36:	2c54                	fld	fa3,152(s0)
     d38:	0000                	unimp
     d3a:	30131803          	lh	a6,769(t1) # fffe2301 <__freertos_irq_stack_top+0xeffda301>
     d3e:	0000                	unimp
     d40:	0300                	addi	s0,sp,384
     d42:	30f0                	fld	fa2,224(s1)
     d44:	0000                	unimp
     d46:	58143003          	0x58143003
     d4a:	0000                	unimp
     d4c:	0500                	addi	s0,sp,640
     d4e:	0408                	addi	a0,sp,512
     d50:	092e                	slli	s2,s2,0xb
     d52:	000000c3          	fmadd.s	ft1,ft0,ft0,ft0,rne
     d56:	8906                	mv	s2,ra
     d58:	0028                	addi	a0,sp,8
     d5a:	0400                	addi	s0,sp,512
     d5c:	00930b2f          	0x930b2f
     d60:	0000                	unimp
     d62:	0600                	addi	s0,sp,768
     d64:	3d7d                	jal	c22 <main+0x132>
     d66:	0000                	unimp
     d68:	3004                	fld	fs1,32(s0)
     d6a:	0000930b          	0x930b
     d6e:	0400                	addi	s0,sp,512
     d70:	0300                	addi	s0,sp,384
     d72:	000000f3          	0xf3
     d76:	3104                	fld	fs1,32(a0)
     d78:	9f02                	jalr	t5
     d7a:	0000                	unimp
     d7c:	0500                	addi	s0,sp,640
     d7e:	0438                	addi	a4,sp,520
     d80:	0934                	addi	a3,sp,152
     d82:	0134                	addi	a3,sp,136
     d84:	0000                	unimp
     d86:	f406                	fsw	ft1,40(sp)
     d88:	003d                	c.nop	15
     d8a:	0400                	addi	s0,sp,512
     d8c:	0b35                	addi	s6,s6,13
     d8e:	00000093          	li	ra,0
     d92:	0600                	addi	s0,sp,768
     d94:	253a                	fld	fa0,392(sp)
     d96:	0000                	unimp
     d98:	3604                	fld	fs1,40(a2)
     d9a:	0000930b          	0x930b
     d9e:	0400                	addi	s0,sp,512
     da0:	dc06                	sw	ra,56(sp)
     da2:	000d                	c.nop	3
     da4:	0400                	addi	s0,sp,512
     da6:	00930b37          	lui	s6,0x930
     daa:	0000                	unimp
     dac:	0608                	addi	a0,sp,768
     dae:	113e                	slli	sp,sp,0x2f
     db0:	0000                	unimp
     db2:	3804                	fld	fs1,48(s0)
     db4:	0000930b          	0x930b
     db8:	0c00                	addi	s0,sp,528
     dba:	c606                	sw	ra,12(sp)
     dbc:	0400002f          	0x400002f
     dc0:	0b39                	addi	s6,s6,14
     dc2:	00000093          	li	ra,0
     dc6:	0610                	addi	a2,sp,768
     dc8:	3c6a                	fld	fs8,184(sp)
     dca:	0000                	unimp
     dcc:	3a04                	fld	fs1,48(a2)
     dce:	0000930b          	0x930b
     dd2:	1400                	addi	s0,sp,544
     dd4:	9006                	c.add	zero,ra
     dd6:	0400000f          	fence	o,unknown
     dda:	0134103b          	0x134103b
     dde:	0000                	unimp
     de0:	0018                	0x18
     de2:	0000c307          	flq	ft6,0(ra)
     de6:	4400                	lw	s0,8(s0)
     de8:	0001                	nop
     dea:	0800                	addi	s0,sp,16
     dec:	0080                	addi	s0,sp,64
     dee:	0000                	unimp
     df0:	5b030003          	lb	zero,1456(t1)
     df4:	000c                	0xc
     df6:	0400                	addi	s0,sp,512
     df8:	023c                	addi	a5,sp,264
     dfa:	000000cf          	fnmadd.s	ft1,ft0,ft0,ft0,rne
     dfe:	1005                	c.nop	-31
     e00:	3f04                	fld	fs1,56(a4)
     e02:	9b09                	andi	a4,a4,-30
     e04:	0001                	nop
     e06:	0600                	addi	s0,sp,768
     e08:	0a01                	addi	s4,s4,0
     e0a:	0000                	unimp
     e0c:	4004                	lw	s1,0(s0)
     e0e:	9b0e                	add	s6,s6,gp
     e10:	0001                	nop
     e12:	0000                	unimp
     e14:	f406                	fsw	ft1,40(sp)
     e16:	003d                	c.nop	15
     e18:	0400                	addi	s0,sp,512
     e1a:	0b41                	addi	s6,s6,16
     e1c:	00000093          	li	ra,0
     e20:	0604                	addi	s1,sp,768
     e22:	253a                	fld	fa0,392(sp)
     e24:	0000                	unimp
     e26:	4204                	lw	s1,0(a2)
     e28:	0000930b          	0x930b
     e2c:	0800                	addi	s0,sp,16
     e2e:	f706                	fsw	ft1,172(sp)
     e30:	04000027          	0x4000027
     e34:	00870a43          	fmadd.s	fs4,fa4,fs0,ft0,rne
     e38:	0000                	unimp
     e3a:	060c                	addi	a1,sp,768
     e3c:	000028cf          	fnmadd.s	fa7,ft0,ft0,ft0,rdn
     e40:	4404                	lw	s1,8(s0)
     e42:	870a                	mv	a4,sp
     e44:	0000                	unimp
     e46:	0d00                	addi	s0,sp,656
     e48:	0900                	addi	s0,sp,144
     e4a:	4404                	lw	s1,8(s0)
     e4c:	0001                	nop
     e4e:	0300                	addi	s0,sp,384
     e50:	0be5                	addi	s7,s7,25
     e52:	0000                	unimp
     e54:	4504                	lw	s1,8(a0)
     e56:	5002                	0x5002
     e58:	0001                	nop
     e5a:	0500                	addi	s0,sp,640
     e5c:	0424                	addi	s1,sp,520
     e5e:	0948                	addi	a0,sp,148
     e60:	0212                	slli	tp,tp,0x4
     e62:	0000                	unimp
     e64:	f706                	fsw	ft1,172(sp)
     e66:	04000027          	0x4000027
     e6a:	0a49                	addi	s4,s4,18
     e6c:	00000087          	0x87
     e70:	0600                	addi	s0,sp,768
     e72:	000028cf          	fnmadd.s	fa7,ft0,ft0,ft0,rdn
     e76:	4a04                	lw	s1,16(a2)
     e78:	870a                	mv	a4,sp
     e7a:	0000                	unimp
     e7c:	0100                	addi	s0,sp,128
     e7e:	f406                	fsw	ft1,40(sp)
     e80:	003d                	c.nop	15
     e82:	0400                	addi	s0,sp,512
     e84:	00930b4b          	fnmsub.s	fs6,ft6,fs1,ft0,rne
     e88:	0000                	unimp
     e8a:	0604                	addi	s1,sp,768
     e8c:	253a                	fld	fa0,392(sp)
     e8e:	0000                	unimp
     e90:	4c04                	lw	s1,24(s0)
     e92:	0000930b          	0x930b
     e96:	0800                	addi	s0,sp,16
     e98:	630a                	flw	ft6,128(sp)
     e9a:	706d                	c.lui	zero,0xffffb
     e9c:	0400                	addi	s0,sp,512
     e9e:	0b4d                	addi	s6,s6,19
     ea0:	0212                	slli	tp,tp,0x4
     ea2:	0000                	unimp
     ea4:	060c                	addi	a1,sp,768
     ea6:	30dd                	jal	78c <_start-0x74>
     ea8:	0000                	unimp
     eaa:	4e04                	lw	s1,24(a2)
     eac:	220a                	fld	ft4,128(sp)
     eae:	0002                	c.slli64	zero
     eb0:	1c00                	addi	s0,sp,560
     eb2:	3506                	fld	fa0,96(sp)
     eb4:	0036                	c.slli	zero,0xd
     eb6:	0400                	addi	s0,sp,512
     eb8:	02220a4f          	fnmadd.d	fs4,ft4,ft2,ft0,rne
     ebc:	0000                	unimp
     ebe:	0020                	addi	s0,sp,8
     ec0:	00009307          	0x9307
     ec4:	2200                	fld	fs0,0(a2)
     ec6:	0002                	c.slli64	zero
     ec8:	0800                	addi	s0,sp,16
     eca:	0080                	addi	s0,sp,64
     ecc:	0000                	unimp
     ece:	87070003          	lb	zero,-1936(a4) # fffea870 <__freertos_irq_stack_top+0xeffe2870>
     ed2:	0000                	unimp
     ed4:	3200                	fld	fs0,32(a2)
     ed6:	0002                	c.slli64	zero
     ed8:	0800                	addi	s0,sp,16
     eda:	0080                	addi	s0,sp,64
     edc:	0000                	unimp
     ede:	c2030003          	lb	zero,-992(t1)
     ee2:	0400001b          	0x400001b
     ee6:	0250                	addi	a2,sp,260
     ee8:	01ad                	addi	gp,gp,11
     eea:	0000                	unimp
     eec:	0002320b          	0x2320b
     ef0:	0c00                	addi	s0,sp,528
     ef2:	3d35                	jal	d2e <main+0x23e>
     ef4:	0000                	unimp
     ef6:	fb01                	bnez	a4,e06 <trap_handler+0x36>
     ef8:	930a                	add	t1,t1,sp
	...
     f02:	0000                	unimp
     f04:	0100                	addi	s0,sp,128
     f06:	7c9c                	flw	fa5,56(s1)
     f08:	0002                	c.slli64	zero
     f0a:	0d00                	addi	s0,sp,656
     f0c:	3e7d                	jal	aca <tube_scan_disp+0x8e>
     f0e:	0000                	unimp
     f10:	fb01                	bnez	a4,e20 <trap_handler+0x50>
     f12:	7c26                	flw	fs8,104(sp)
     f14:	0002                	c.slli64	zero
     f16:	0200                	addi	s0,sp,256
     f18:	6c91                	lui	s9,0x4
     f1a:	560d                	li	a2,-29
     f1c:	003d                	c.nop	15
     f1e:	0100                	addi	s0,sp,128
     f20:	008735fb          	0x8735fb
     f24:	0000                	unimp
     f26:	9102                	jalr	sp
     f28:	0409006b          	0x409006b
     f2c:	01a1                	addi	gp,gp,8
     f2e:	0000                	unimp
     f30:	5d0c                	lw	a1,56(a0)
     f32:	003d                	c.nop	15
     f34:	0100                	addi	s0,sp,128
     f36:	00930aef          	jal	s5,3173e <__stack_size+0x2f73e>
	...
     f42:	0000                	unimp
     f44:	9c01                	0x9c01
     f46:	02ac                	addi	a1,sp,328
     f48:	0000                	unimp
     f4a:	7d0d                	lui	s10,0xfffe3
     f4c:	003e                	c.slli	zero,0xf
     f4e:	0100                	addi	s0,sp,128
     f50:	027c26ef          	jal	a3,c3776 <__stack_size+0xc1776>
     f54:	0000                	unimp
     f56:	9102                	jalr	sp
     f58:	006c                	addi	a1,sp,12
     f5a:	880c                	0x880c
     f5c:	003d                	c.nop	15
     f5e:	0100                	addi	s0,sp,128
     f60:	0ae4                	addi	s1,sp,348
     f62:	00000093          	li	ra,0
	...
     f6e:	9c01                	0x9c01
     f70:	02d6                	slli	t0,t0,0x15
     f72:	0000                	unimp
     f74:	7d0d                	lui	s10,0xfffe3
     f76:	003e                	c.slli	zero,0xf
     f78:	0100                	addi	s0,sp,128
     f7a:	2be4                	fld	fs1,208(a5)
     f7c:	027c                	addi	a5,sp,268
     f7e:	0000                	unimp
     f80:	9102                	jalr	sp
     f82:	006c                	addi	a1,sp,12
     f84:	e60c                	fsw	fa1,8(a2)
     f86:	003d                	c.nop	15
     f88:	0100                	addi	s0,sp,128
     f8a:	0ad9                	addi	s5,s5,22
     f8c:	00000093          	li	ra,0
	...
     f98:	9c01                	0x9c01
     f9a:	0300                	addi	s0,sp,384
     f9c:	0000                	unimp
     f9e:	7d0d                	lui	s10,0xfffe3
     fa0:	003e                	c.slli	zero,0xf
     fa2:	0100                	addi	s0,sp,128
     fa4:	2bd9                	jal	157a <_data_lma+0x1ca>
     fa6:	027c                	addi	a5,sp,268
     fa8:	0000                	unimp
     faa:	9102                	jalr	sp
     fac:	006c                	addi	a1,sp,12
     fae:	6f0c                	flw	fa1,24(a4)
     fb0:	003d                	c.nop	15
     fb2:	0100                	addi	s0,sp,128
     fb4:	05c6                	slli	a1,a1,0x11
     fb6:	0079                	c.nop	30
	...
     fc0:	0000                	unimp
     fc2:	9c01                	0x9c01
     fc4:	00000357          	0x357
     fc8:	7d0d                	lui	s10,0xfffe3
     fca:	003e                	c.slli	zero,0xf
     fcc:	0100                	addi	s0,sp,128
     fce:	28c6                	fld	fa7,80(sp)
     fd0:	027c                	addi	a5,sp,268
     fd2:	0000                	unimp
     fd4:	9102                	jalr	sp
     fd6:	0d6c                	addi	a1,sp,668
     fd8:	3d56                	fld	fs10,368(sp)
     fda:	0000                	unimp
     fdc:	c601                	beqz	a2,fe4 <plic_set_priority+0x48>
     fde:	00008737          	lui	a4,0x8
     fe2:	0200                	addi	s0,sp,256
     fe4:	6b91                	lui	s7,0x4
     fe6:	dd0d                	beqz	a0,f20 <plic_enable_interrupt+0x28>
     fe8:	0030                	addi	a2,sp,8
     fea:	0100                	addi	s0,sp,128
     fec:	00870ac7          	fmsub.s	fs5,fa4,fs0,ft0,rne
     ff0:	0000                	unimp
     ff2:	9102                	jalr	sp
     ff4:	0d6a                	slli	s10,s10,0x1a
     ff6:	3635                	jal	b22 <main+0x32>
     ff8:	0000                	unimp
     ffa:	c701                	beqz	a4,1002 <plic_claim_interrupt+0x1a>
     ffc:	8724                	0x8724
     ffe:	0000                	unimp
    1000:	0200                	addi	s0,sp,256
    1002:	6991                	lui	s3,0x4
    1004:	0c00                	addi	s0,sp,528
    1006:	00003e4b          	fnmsub.s	ft8,ft0,ft0,ft0,rup
    100a:	b201                	j	90a <asynchronous_return+0x6>
    100c:	7905                	lui	s2,0xfffe1
	...
    1016:	0000                	unimp
    1018:	0100                	addi	s0,sp,128
    101a:	9f9c                	0x9f9c
    101c:	0d000003          	lb	zero,208(zero) # d0 <_start-0x730>
    1020:	3e7d                	jal	bde <main+0xee>
    1022:	0000                	unimp
    1024:	b201                	j	924 <asynchronous_return+0x20>
    1026:	7c21                	lui	s8,0xfffe8
    1028:	0002                	c.slli64	zero
    102a:	0200                	addi	s0,sp,256
    102c:	6c91                	lui	s9,0x4
    102e:	560d                	li	a2,-29
    1030:	003d                	c.nop	15
    1032:	0100                	addi	s0,sp,128
    1034:	30b2                	fld	ft1,296(sp)
    1036:	00000087          	0x87
    103a:	9102                	jalr	sp
    103c:	6d630e6b          	0x6d630e6b
    1040:	0070                	addi	a2,sp,12
    1042:	b201                	j	942 <asynchronous_return+0x3e>
    1044:	9341                	srli	a4,a4,0x30
    1046:	0000                	unimp
    1048:	0200                	addi	s0,sp,256
    104a:	6491                	lui	s1,0x4
    104c:	0f00                	addi	s0,sp,912
    104e:	00003e83          	0x3e83
    1052:	a501                	j	1652 <_data_lma+0x2a2>
    1054:	0006                	c.slli	zero,0x1
    1056:	0000                	unimp
    1058:	0000                	unimp
    105a:	0000                	unimp
    105c:	0100                	addi	s0,sp,128
    105e:	d49c                	sw	a5,40(s1)
    1060:	0d000003          	lb	zero,208(zero) # d0 <_start-0x730>
    1064:	3e7d                	jal	c22 <main+0x132>
    1066:	0000                	unimp
    1068:	a501                	j	1668 <_data_lma+0x2b8>
    106a:	7c22                	flw	fs8,40(sp)
    106c:	0002                	c.slli64	zero
    106e:	0200                	addi	s0,sp,256
    1070:	6c91                	lui	s9,0x4
    1072:	630e                	flw	ft6,192(sp)
    1074:	746e                	flw	fs0,248(sp)
    1076:	0100                	addi	s0,sp,128
    1078:	32a5                	jal	9e0 <ext_irq_handler+0x50>
    107a:	00000093          	li	ra,0
    107e:	9102                	jalr	sp
    1080:	0068                	addi	a0,sp,12
    1082:	003db90f          	0x3db90f
    1086:	0100                	addi	s0,sp,128
    1088:	0698                	addi	a4,sp,832
	...
    1092:	9c01                	0x9c01
    1094:	0409                	addi	s0,s0,2
    1096:	0000                	unimp
    1098:	7d0d                	lui	s10,0xfffe3
    109a:	003e                	c.slli	zero,0xf
    109c:	0100                	addi	s0,sp,128
    109e:	2798                	fld	fa4,8(a5)
    10a0:	027c                	addi	a5,sp,268
    10a2:	0000                	unimp
    10a4:	9102                	jalr	sp
    10a6:	0d6c                	addi	a1,sp,668
    10a8:	253a                	fld	fa0,392(sp)
    10aa:	0000                	unimp
    10ac:	9801                	andi	s0,s0,-32
    10ae:	00009337          	lui	t1,0x9
    10b2:	0200                	addi	s0,sp,256
    10b4:	6891                	lui	a7,0x4
    10b6:	0f00                	addi	s0,sp,912
    10b8:	3e5d                	jal	c6e <main+0x17e>
    10ba:	0000                	unimp
    10bc:	8b01                	andi	a4,a4,0
    10be:	0006                	c.slli	zero,0x1
    10c0:	0000                	unimp
    10c2:	0000                	unimp
    10c4:	0000                	unimp
    10c6:	0100                	addi	s0,sp,128
    10c8:	3e9c                	fld	fa5,56(a3)
    10ca:	0004                	0x4
    10cc:	0d00                	addi	s0,sp,656
    10ce:	3e7d                	jal	c8c <main+0x19c>
    10d0:	0000                	unimp
    10d2:	8b01                	andi	a4,a4,0
    10d4:	00027c27          	0x27c27
    10d8:	0200                	addi	s0,sp,256
    10da:	6c91                	lui	s9,0x4
    10dc:	f40d                	bnez	s0,1006 <plic_claim_interrupt+0x1e>
    10de:	003d                	c.nop	15
    10e0:	0100                	addi	s0,sp,128
    10e2:	0093378b          	0x93378b
    10e6:	0000                	unimp
    10e8:	9102                	jalr	sp
    10ea:	0068                	addi	a0,sp,12
    10ec:	003dfd0f          	0x3dfd0f
    10f0:	0100                	addi	s0,sp,128
    10f2:	067f                	0x67f
	...
    10fc:	9c01                	0x9c01
    10fe:	0464                	addi	s1,sp,524
    1100:	0000                	unimp
    1102:	7d0d                	lui	s10,0xfffe3
    1104:	003e                	c.slli	zero,0xf
    1106:	0100                	addi	s0,sp,128
    1108:	207f                	0x207f
    110a:	027c                	addi	a5,sp,268
    110c:	0000                	unimp
    110e:	9102                	jalr	sp
    1110:	006c                	addi	a1,sp,12
    1112:	003d470f          	0x3d470f
    1116:	0100                	addi	s0,sp,128
    1118:	0674                	addi	a3,sp,780
	...
    1122:	9c01                	0x9c01
    1124:	048a                	slli	s1,s1,0x2
    1126:	0000                	unimp
    1128:	7d0d                	lui	s10,0xfffe3
    112a:	003e                	c.slli	zero,0xf
    112c:	0100                	addi	s0,sp,128
    112e:	1f74                	addi	a3,sp,956
    1130:	027c                	addi	a5,sp,268
    1132:	0000                	unimp
    1134:	9102                	jalr	sp
    1136:	006c                	addi	a1,sp,12
    1138:	003e220f          	0x3e220f
    113c:	0100                	addi	s0,sp,128
    113e:	0669                	addi	a2,a2,26
	...
    1148:	9c01                	0x9c01
    114a:	04b0                	addi	a2,sp,584
    114c:	0000                	unimp
    114e:	7d0d                	lui	s10,0xfffe3
    1150:	003e                	c.slli	zero,0xf
    1152:	0100                	addi	s0,sp,128
    1154:	2069                	jal	11de <init_apb_timer+0x52>
    1156:	027c                	addi	a5,sp,268
    1158:	0000                	unimp
    115a:	9102                	jalr	sp
    115c:	006c                	addi	a1,sp,12
    115e:	003e320f          	0x3e320f
    1162:	0100                	addi	s0,sp,128
    1164:	065e                	slli	a2,a2,0x17
    1166:	1384                	addi	s1,sp,480
    1168:	0000                	unimp
    116a:	002c                	addi	a1,sp,8
    116c:	0000                	unimp
    116e:	9c01                	0x9c01
    1170:	04d6                	slli	s1,s1,0x15
    1172:	0000                	unimp
    1174:	7d0d                	lui	s10,0xfffe3
    1176:	003e                	c.slli	zero,0xf
    1178:	0100                	addi	s0,sp,128
    117a:	295e                	fld	fs2,464(sp)
    117c:	027c                	addi	a5,sp,268
    117e:	0000                	unimp
    1180:	9102                	jalr	sp
    1182:	006c                	addi	a1,sp,12
    1184:	1c0c                	addi	a1,sp,560
    1186:	003d                	c.nop	15
    1188:	0100                	addi	s0,sp,128
    118a:	00870953          	fadd.s	fs2,fa4,fs0,rne
    118e:	0000                	unimp
    1190:	1350                	addi	a2,sp,420
    1192:	0000                	unimp
    1194:	0034                	addi	a3,sp,8
    1196:	0000                	unimp
    1198:	9c01                	0x9c01
    119a:	0500                	addi	s0,sp,640
    119c:	0000                	unimp
    119e:	7d0d                	lui	s10,0xfffe3
    11a0:	003e                	c.slli	zero,0xf
    11a2:	0100                	addi	s0,sp,128
    11a4:	027c2c53          	fadd.d	fs8,fs8,ft7,rdn
    11a8:	0000                	unimp
    11aa:	9102                	jalr	sp
    11ac:	006c                	addi	a1,sp,12
    11ae:	003e950f          	0x3e950f
    11b2:	0100                	addi	s0,sp,128
    11b4:	0648                	addi	a0,sp,772
	...
    11be:	9c01                	0x9c01
    11c0:	0526                	slli	a0,a0,0x9
    11c2:	0000                	unimp
    11c4:	7d0d                	lui	s10,0xfffe3
    11c6:	003e                	c.slli	zero,0xf
    11c8:	0100                	addi	s0,sp,128
    11ca:	2648                	fld	fa0,136(a2)
    11cc:	027c                	addi	a5,sp,268
    11ce:	0000                	unimp
    11d0:	9102                	jalr	sp
    11d2:	006c                	addi	a1,sp,12
    11d4:	003e0d0f          	0x3e0d0f
    11d8:	0100                	addi	s0,sp,128
    11da:	063d                	addi	a2,a2,15
    11dc:	1310                	addi	a2,sp,416
    11de:	0000                	unimp
    11e0:	0040                	addi	s0,sp,4
    11e2:	0000                	unimp
    11e4:	9c01                	0x9c01
    11e6:	0000055b          	0x55b
    11ea:	7d0d                	lui	s10,0xfffe3
    11ec:	003e                	c.slli	zero,0xf
    11ee:	0100                	addi	s0,sp,128
    11f0:	253d                	jal	181e <_data_lma+0x46e>
    11f2:	027c                	addi	a5,sp,268
    11f4:	0000                	unimp
    11f6:	9102                	jalr	sp
    11f8:	0d6c                	addi	a1,sp,668
    11fa:	2fc6                	fld	ft11,80(sp)
    11fc:	0000                	unimp
    11fe:	3d01                	jal	100e <plic_claim_interrupt+0x26>
    1200:	8734                	0x8734
    1202:	0000                	unimp
    1204:	0200                	addi	s0,sp,256
    1206:	6b91                	lui	s7,0x4
    1208:	0f00                	addi	s0,sp,912
    120a:	3e74                	fld	fa3,248(a2)
    120c:	0000                	unimp
    120e:	1c01                	addi	s8,s8,-32
    1210:	8c06                	mv	s8,ra
    1212:	0011                	c.nop	4
    1214:	8400                	0x8400
    1216:	0001                	nop
    1218:	0100                	addi	s0,sp,128
    121a:	b69c                	fsd	fa5,40(a3)
    121c:	0005                	c.nop	1
    121e:	0d00                	addi	s0,sp,656
    1220:	3e7d                	jal	dde <trap_handler+0xe>
    1222:	0000                	unimp
    1224:	1c01                	addi	s8,s8,-32
    1226:	7c1f 0002 0200      	0x20000027c1f
    122c:	5c91                	li	s9,-28
    122e:	bb0d                	j	f60 <plic_enable_interrupt+0x68>
    1230:	0030                	addi	a2,sp,8
    1232:	0100                	addi	s0,sp,128
    1234:	2f1c                	fld	fa5,24(a4)
    1236:	00000093          	li	ra,0
    123a:	9102                	jalr	sp
    123c:	0d58                	addi	a4,sp,660
    123e:	3d81                	jal	108e <plic_complete_interrupt+0x4a>
    1240:	0000                	unimp
    1242:	1c01                	addi	s8,s8,-32
    1244:	b650                	fsd	fa2,168(a2)
    1246:	0005                	c.nop	1
    1248:	0200                	addi	s0,sp,256
    124a:	5491                	li	s1,-28
    124c:	4810                	lw	a2,16(s0)
    124e:	0012                	c.slli	zero,0x4
    1250:	b800                	fsd	fs0,48(s0)
    1252:	0000                	unimp
    1254:	1100                	addi	s0,sp,160
    1256:	0069                	c.nop	26
    1258:	2901                	jal	1668 <_data_lma+0x2b8>
    125a:	870e                	mv	a4,gp
    125c:	0000                	unimp
    125e:	0200                	addi	s0,sp,256
    1260:	6f91                	lui	t6,0x4
    1262:	0000                	unimp
    1264:	0409                	addi	s0,s0,2
    1266:	023e                	slli	tp,tp,0xf
    1268:	0000                	unimp
	...

Disassembly of section .debug_abbrev:

00000000 <.debug_abbrev>:
   0:	1101                	addi	sp,sp,-32
   2:	1000                	addi	s0,sp,32
   4:	1106                	slli	sp,sp,0x21
   6:	1201                	addi	tp,tp,-32
   8:	0301                	addi	t1,t1,0
   a:	1b0e                	slli	s6,s6,0x23
   c:	250e                	fld	fa0,192(sp)
   e:	130e                	slli	t1,t1,0x23
  10:	0005                	c.nop	1
  12:	0000                	unimp
  14:	1101                	addi	sp,sp,-32
  16:	1000                	addi	s0,sp,32
  18:	1106                	slli	sp,sp,0x21
  1a:	1201                	addi	tp,tp,-32
  1c:	0301                	addi	t1,t1,0
  1e:	1b0e                	slli	s6,s6,0x23
  20:	250e                	fld	fa0,192(sp)
  22:	130e                	slli	t1,t1,0x23
  24:	0005                	c.nop	1
  26:	0000                	unimp
  28:	1101                	addi	sp,sp,-32
  2a:	2501                	jal	62a <_start-0x1d6>
  2c:	130e                	slli	t1,t1,0x23
  2e:	1b0e030b          	0x1b0e030b
  32:	550e                	lw	a0,224(sp)
  34:	10011117          	auipc	sp,0x10011
  38:	17429917          	auipc	s2,0x17429
  3c:	0000                	unimp
  3e:	2402                	fld	fs0,0(sp)
  40:	0b00                	addi	s0,sp,400
  42:	030b3e0b          	0x30b3e0b
  46:	000e                	c.slli	zero,0x3
  48:	0300                	addi	s0,sp,384
  4a:	0016                	c.slli	zero,0x5
  4c:	0b3a0e03          	lb	t3,179(s4)
  50:	0b390b3b          	0xb390b3b
  54:	1349                	addi	t1,t1,-14
  56:	0000                	unimp
  58:	2404                	fld	fs1,8(s0)
  5a:	0b00                	addi	s0,sp,400
  5c:	030b3e0b          	0x30b3e0b
  60:	0008                	0x8
  62:	0500                	addi	s0,sp,640
  64:	0026                	c.slli	zero,0x9
  66:	1349                	addi	t1,t1,-14
  68:	0000                	unimp
  6a:	1306                	slli	t1,t1,0x21
  6c:	0b01                	addi	s6,s6,0
  6e:	3b0b3a0b          	0x3b0b3a0b
  72:	010b390b          	0x10b390b
  76:	07000013          	li	zero,112
  7a:	000d                	c.nop	3
  7c:	0b3a0e03          	lb	t3,179(s4)
  80:	0b390b3b          	0xb390b3b
  84:	1349                	addi	t1,t1,-14
  86:	0b38                	addi	a4,sp,408
  88:	0000                	unimp
  8a:	0f08                	addi	a0,sp,912
  8c:	0b00                	addi	s0,sp,400
  8e:	0013490b          	0x13490b
  92:	0900                	addi	s0,sp,144
  94:	0101                	addi	sp,sp,0
  96:	1349                	addi	t1,t1,-14
  98:	1301                	addi	t1,t1,-32
  9a:	0000                	unimp
  9c:	210a                	fld	ft2,128(sp)
  9e:	4900                	lw	s0,16(a0)
  a0:	000b2f13          	slti	t5,s6,0
  a4:	0b00                	addi	s0,sp,400
  a6:	000d                	c.nop	3
  a8:	0b3a0803          	lb	a6,179(s4)
  ac:	0b390b3b          	0xb390b3b
  b0:	1349                	addi	t1,t1,-14
  b2:	0b38                	addi	a4,sp,408
  b4:	0000                	unimp
  b6:	340c                	fld	fa1,40(s0)
  b8:	0300                	addi	s0,sp,384
  ba:	3a0e                	fld	fs4,224(sp)
  bc:	390b3b0b          	0x390b3b0b
  c0:	0213490b          	0x213490b
  c4:	0018                	0x18
  c6:	0d00                	addi	s0,sp,656
  c8:	012e                	slli	sp,sp,0xb
  ca:	0e03193f 0b3b0b3a 	0xb3b0b3a0e03193f
  d2:	0b39                	addi	s6,s6,14
  d4:	1349                	addi	t1,t1,-14
  d6:	0111                	addi	sp,sp,4
  d8:	0612                	slli	a2,a2,0x4
  da:	1840                	addi	s0,sp,52
  dc:	4296                	lw	t0,68(sp)
  de:	0119                	addi	sp,sp,6
  e0:	0e000013          	li	zero,224
  e4:	002e                	c.slli	zero,0xb
  e6:	0b3a0e03          	lb	t3,179(s4)
  ea:	0b390b3b          	0xb390b3b
  ee:	01111927          	0x1111927
  f2:	0612                	slli	a2,a2,0x4
  f4:	1840                	addi	s0,sp,52
  f6:	4296                	lw	t0,68(sp)
  f8:	0019                	c.nop	6
  fa:	0f00                	addi	s0,sp,912
  fc:	012e                	slli	sp,sp,0xb
  fe:	0b3a0e03          	lb	t3,179(s4)
 102:	0b390b3b          	0xb390b3b
 106:	0111                	addi	sp,sp,4
 108:	0612                	slli	a2,a2,0x4
 10a:	1840                	addi	s0,sp,52
 10c:	4296                	lw	t0,68(sp)
 10e:	0119                	addi	sp,sp,6
 110:	10000013          	li	zero,256
 114:	012e                	slli	sp,sp,0xb
 116:	0e03193f 0b3b0b3a 	0xb3b0b3a0e03193f
 11e:	0b39                	addi	s6,s6,14
 120:	0111                	addi	sp,sp,4
 122:	0612                	slli	a2,a2,0x4
 124:	1840                	addi	s0,sp,52
 126:	4296                	lw	t0,68(sp)
 128:	0019                	c.nop	6
 12a:	0000                	unimp
 12c:	1101                	addi	sp,sp,-32
 12e:	2501                	jal	72e <_start-0xd2>
 130:	130e                	slli	t1,t1,0x23
 132:	1b0e030b          	0x1b0e030b
 136:	550e                	lw	a0,224(sp)
 138:	10011117          	auipc	sp,0x10011
 13c:	17429917          	auipc	s2,0x17429
 140:	0000                	unimp
 142:	2402                	fld	fs0,0(sp)
 144:	0b00                	addi	s0,sp,400
 146:	030b3e0b          	0x30b3e0b
 14a:	000e                	c.slli	zero,0x3
 14c:	0300                	addi	s0,sp,384
 14e:	0024                	addi	s1,sp,8
 150:	0b3e0b0b          	0xb3e0b0b
 154:	00000803          	lb	a6,0(zero) # 0 <_start-0x800>
 158:	2e04                	fld	fs1,24(a2)
 15a:	3f00                	fld	fs0,56(a4)
 15c:	0319                	addi	t1,t1,6
 15e:	3a0e                	fld	fs4,224(sp)
 160:	390b3b0b          	0x390b3b0b
 164:	1201110b          	0x1201110b
 168:	4006                	0x4006
 16a:	9718                	0x9718
 16c:	1942                	slli	s2,s2,0x30
 16e:	0000                	unimp
 170:	0100                	addi	s0,sp,128
 172:	0111                	addi	sp,sp,4
 174:	0e25                	addi	t3,t3,9
 176:	0e030b13          	addi	s6,t1,224 # 90e0 <__stack_size+0x70e0>
 17a:	17550e1b          	0x17550e1b
 17e:	0111                	addi	sp,sp,4
 180:	1710                	addi	a2,sp,928
 182:	4299                	li	t0,6
 184:	02000017          	auipc	zero,0x2000
 188:	0024                	addi	s1,sp,8
 18a:	0b3e0b0b          	0xb3e0b0b
 18e:	00000e03          	lb	t3,0(zero) # 0 <_start-0x800>
 192:	03001603          	lh	a2,48(zero) # 30 <_start-0x7d0>
 196:	3a0e                	fld	fs4,224(sp)
 198:	390b3b0b          	0x390b3b0b
 19c:	0013490b          	0x13490b
 1a0:	0400                	addi	s0,sp,512
 1a2:	0024                	addi	s1,sp,8
 1a4:	0b3e0b0b          	0xb3e0b0b
 1a8:	00000803          	lb	a6,0(zero) # 0 <_start-0x800>
 1ac:	2e05                	jal	4dc <_start-0x324>
 1ae:	3f01                	jal	be <_start-0x742>
 1b0:	0319                	addi	t1,t1,6
 1b2:	3a0e                	fld	fs4,224(sp)
 1b4:	390b3b0b          	0x390b3b0b
 1b8:	1119270b          	0x1119270b
 1bc:	1201                	addi	tp,tp,-32
 1be:	4006                	0x4006
 1c0:	9718                	0x9718
 1c2:	1942                	slli	s2,s2,0x30
 1c4:	1301                	addi	t1,t1,-32
 1c6:	0000                	unimp
 1c8:	0506                	slli	a0,a0,0x1
 1ca:	0300                	addi	s0,sp,384
 1cc:	3a0e                	fld	fs4,224(sp)
 1ce:	390b3b0b          	0x390b3b0b
 1d2:	0213490b          	0x213490b
 1d6:	0018                	0x18
 1d8:	0700                	addi	s0,sp,896
 1da:	012e                	slli	sp,sp,0xb
 1dc:	0e03193f 0b3b0b3a 	0xb3b0b3a0e03193f
 1e4:	0b39                	addi	s6,s6,14
 1e6:	01111927          	0x1111927
 1ea:	0612                	slli	a2,a2,0x4
 1ec:	1840                	addi	s0,sp,52
 1ee:	4296                	lw	t0,68(sp)
 1f0:	0019                	c.nop	6
 1f2:	0000                	unimp
 1f4:	1101                	addi	sp,sp,-32
 1f6:	2501                	jal	7f6 <_start-0xa>
 1f8:	130e                	slli	t1,t1,0x23
 1fa:	1b0e030b          	0x1b0e030b
 1fe:	550e                	lw	a0,224(sp)
 200:	10011117          	auipc	sp,0x10011
 204:	17429917          	auipc	s2,0x17429
 208:	0000                	unimp
 20a:	2402                	fld	fs0,0(sp)
 20c:	0b00                	addi	s0,sp,400
 20e:	030b3e0b          	0x30b3e0b
 212:	000e                	c.slli	zero,0x3
 214:	0300                	addi	s0,sp,384
 216:	0016                	c.slli	zero,0x5
 218:	0b3a0e03          	lb	t3,179(s4)
 21c:	0b390b3b          	0xb390b3b
 220:	1349                	addi	t1,t1,-14
 222:	0000                	unimp
 224:	2404                	fld	fs1,8(s0)
 226:	0b00                	addi	s0,sp,400
 228:	030b3e0b          	0x30b3e0b
 22c:	0008                	0x8
 22e:	0500                	addi	s0,sp,640
 230:	0035                	c.nop	13
 232:	1349                	addi	t1,t1,-14
 234:	0000                	unimp
 236:	1306                	slli	t1,t1,0x21
 238:	0b01                	addi	s6,s6,0
 23a:	3b0b3a0b          	0x3b0b3a0b
 23e:	010b390b          	0x10b390b
 242:	07000013          	li	zero,112
 246:	000d                	c.nop	3
 248:	0b3a0e03          	lb	t3,179(s4)
 24c:	0b390b3b          	0xb390b3b
 250:	1349                	addi	t1,t1,-14
 252:	0b38                	addi	a4,sp,408
 254:	0000                	unimp
 256:	2e08                	fld	fa0,24(a2)
 258:	3f01                	jal	168 <_start-0x698>
 25a:	0319                	addi	t1,t1,6
 25c:	3a0e                	fld	fs4,224(sp)
 25e:	390b3b0b          	0x390b3b0b
 262:	1119270b          	0x1119270b
 266:	1201                	addi	tp,tp,-32
 268:	4006                	0x4006
 26a:	9718                	0x9718
 26c:	1942                	slli	s2,s2,0x30
 26e:	1301                	addi	t1,t1,-32
 270:	0000                	unimp
 272:	0509                	addi	a0,a0,2
 274:	0300                	addi	s0,sp,384
 276:	3a0e                	fld	fs4,224(sp)
 278:	390b3b0b          	0x390b3b0b
 27c:	0213490b          	0x213490b
 280:	0018                	0x18
 282:	0a00                	addi	s0,sp,272
 284:	0034                	addi	a3,sp,8
 286:	0b3a0e03          	lb	t3,179(s4)
 28a:	0b390b3b          	0xb390b3b
 28e:	1349                	addi	t1,t1,-14
 290:	1802                	slli	a6,a6,0x20
 292:	0000                	unimp
 294:	11010b0b          	0x11010b0b
 298:	1201                	addi	tp,tp,-32
 29a:	0006                	c.slli	zero,0x1
 29c:	0c00                	addi	s0,sp,528
 29e:	0b0b000f          	0xb0b000f
 2a2:	1349                	addi	t1,t1,-14
 2a4:	0000                	unimp
 2a6:	2e0d                	jal	5d8 <_start-0x228>
 2a8:	3f01                	jal	1b8 <_start-0x648>
 2aa:	0319                	addi	t1,t1,6
 2ac:	3a0e                	fld	fs4,224(sp)
 2ae:	390b3b0b          	0x390b3b0b
 2b2:	4919270b          	0x4919270b
 2b6:	12011113          	0x12011113
 2ba:	4006                	0x4006
 2bc:	9718                	0x9718
 2be:	1942                	slli	s2,s2,0x30
 2c0:	1301                	addi	t1,t1,-32
 2c2:	0000                	unimp
 2c4:	2e0e                	fld	ft8,192(sp)
 2c6:	3f01                	jal	1d6 <_start-0x62a>
 2c8:	0319                	addi	t1,t1,6
 2ca:	3a0e                	fld	fs4,224(sp)
 2cc:	390b3b0b          	0x390b3b0b
 2d0:	1119270b          	0x1119270b
 2d4:	1201                	addi	tp,tp,-32
 2d6:	4006                	0x4006
 2d8:	9718                	0x9718
 2da:	1942                	slli	s2,s2,0x30
 2dc:	0000                	unimp
 2de:	0100                	addi	s0,sp,128
 2e0:	0111                	addi	sp,sp,4
 2e2:	0e25                	addi	t3,t3,9
 2e4:	0e030b13          	addi	s6,t1,224
 2e8:	17550e1b          	0x17550e1b
 2ec:	0111                	addi	sp,sp,4
 2ee:	1710                	addi	a2,sp,928
 2f0:	4299                	li	t0,6
 2f2:	02000017          	auipc	zero,0x2000
 2f6:	0024                	addi	s1,sp,8
 2f8:	0b3e0b0b          	0xb3e0b0b
 2fc:	00000e03          	lb	t3,0(zero) # 0 <_start-0x800>
 300:	03001603          	lh	a2,48(zero) # 30 <_start-0x7d0>
 304:	3a0e                	fld	fs4,224(sp)
 306:	390b3b0b          	0x390b3b0b
 30a:	0013490b          	0x13490b
 30e:	0400                	addi	s0,sp,512
 310:	0024                	addi	s1,sp,8
 312:	0b3e0b0b          	0xb3e0b0b
 316:	00000803          	lb	a6,0(zero) # 0 <_start-0x800>
 31a:	1305                	addi	t1,t1,-31
 31c:	0b01                	addi	s6,s6,0
 31e:	3b0b3a0b          	0x3b0b3a0b
 322:	010b390b          	0x10b390b
 326:	06000013          	li	zero,96
 32a:	000d                	c.nop	3
 32c:	0b3a0e03          	lb	t3,179(s4)
 330:	0b390b3b          	0xb390b3b
 334:	1349                	addi	t1,t1,-14
 336:	0b38                	addi	a4,sp,408
 338:	0000                	unimp
 33a:	0b000f07          	0xb000f07
 33e:	0013490b          	0x13490b
 342:	0800                	addi	s0,sp,16
 344:	012e                	slli	sp,sp,0xb
 346:	0e03193f 0b3b0b3a 	0xb3b0b3a0e03193f
 34e:	0b39                	addi	s6,s6,14
 350:	01111927          	0x1111927
 354:	0612                	slli	a2,a2,0x4
 356:	1840                	addi	s0,sp,52
 358:	01194297          	auipc	t0,0x1194
 35c:	09000013          	li	zero,144
 360:	0005                	c.nop	1
 362:	0b3a0e03          	lb	t3,179(s4)
 366:	0b390b3b          	0xb390b3b
 36a:	1349                	addi	t1,t1,-14
 36c:	1802                	slli	a6,a6,0x20
 36e:	0000                	unimp
 370:	2e0a                	fld	ft8,128(sp)
 372:	3f01                	jal	282 <_start-0x57e>
 374:	0319                	addi	t1,t1,6
 376:	3a0e                	fld	fs4,224(sp)
 378:	390b3b0b          	0x390b3b0b
 37c:	4919270b          	0x4919270b
 380:	12011113          	0x12011113
 384:	4006                	0x4006
 386:	9718                	0x9718
 388:	1942                	slli	s2,s2,0x30
 38a:	1301                	addi	t1,t1,-32
 38c:	0000                	unimp
 38e:	3f012e0b          	0x3f012e0b
 392:	0319                	addi	t1,t1,6
 394:	3a0e                	fld	fs4,224(sp)
 396:	390b3b0b          	0x390b3b0b
 39a:	1119270b          	0x1119270b
 39e:	1201                	addi	tp,tp,-32
 3a0:	4006                	0x4006
 3a2:	9718                	0x9718
 3a4:	1942                	slli	s2,s2,0x30
 3a6:	0000                	unimp
 3a8:	0100                	addi	s0,sp,128
 3aa:	0111                	addi	sp,sp,4
 3ac:	0e25                	addi	t3,t3,9
 3ae:	0e030b13          	addi	s6,t1,224
 3b2:	17550e1b          	0x17550e1b
 3b6:	0111                	addi	sp,sp,4
 3b8:	1710                	addi	a2,sp,928
 3ba:	4299                	li	t0,6
 3bc:	02000017          	auipc	zero,0x2000
 3c0:	0024                	addi	s1,sp,8
 3c2:	0b3e0b0b          	0xb3e0b0b
 3c6:	00000e03          	lb	t3,0(zero) # 0 <_start-0x800>
 3ca:	03001603          	lh	a2,48(zero) # 30 <_start-0x7d0>
 3ce:	3a0e                	fld	fs4,224(sp)
 3d0:	390b3b0b          	0x390b3b0b
 3d4:	0013490b          	0x13490b
 3d8:	0400                	addi	s0,sp,512
 3da:	0024                	addi	s1,sp,8
 3dc:	0b3e0b0b          	0xb3e0b0b
 3e0:	00000803          	lb	a6,0(zero) # 0 <_start-0x800>
 3e4:	1305                	addi	t1,t1,-31
 3e6:	0b01                	addi	s6,s6,0
 3e8:	3b0b3a0b          	0x3b0b3a0b
 3ec:	010b390b          	0x10b390b
 3f0:	06000013          	li	zero,96
 3f4:	000d                	c.nop	3
 3f6:	0b3a0e03          	lb	t3,179(s4)
 3fa:	0b390b3b          	0xb390b3b
 3fe:	1349                	addi	t1,t1,-14
 400:	0b38                	addi	a4,sp,408
 402:	0000                	unimp
 404:	49010107          	0x49010107
 408:	00130113          	addi	sp,t1,1
 40c:	0800                	addi	s0,sp,16
 40e:	0021                	c.nop	8
 410:	1349                	addi	t1,t1,-14
 412:	00000b2f          	0xb2f
 416:	0f09                	addi	t5,t5,2
 418:	0b00                	addi	s0,sp,400
 41a:	0013490b          	0x13490b
 41e:	0a00                	addi	s0,sp,272
 420:	000d                	c.nop	3
 422:	0b3a0803          	lb	a6,179(s4)
 426:	0b390b3b          	0xb390b3b
 42a:	1349                	addi	t1,t1,-14
 42c:	0b38                	addi	a4,sp,408
 42e:	0000                	unimp
 430:	4900260b          	0x4900260b
 434:	0c000013          	li	zero,192
 438:	012e                	slli	sp,sp,0xb
 43a:	0e03193f 0b3b0b3a 	0xb3b0b3a0e03193f
 442:	0b39                	addi	s6,s6,14
 444:	13491927          	0x13491927
 448:	0111                	addi	sp,sp,4
 44a:	0612                	slli	a2,a2,0x4
 44c:	1840                	addi	s0,sp,52
 44e:	01194297          	auipc	t0,0x1194
 452:	0d000013          	li	zero,208
 456:	0005                	c.nop	1
 458:	0b3a0e03          	lb	t3,179(s4)
 45c:	0b390b3b          	0xb390b3b
 460:	1349                	addi	t1,t1,-14
 462:	1802                	slli	a6,a6,0x20
 464:	0000                	unimp
 466:	050e                	slli	a0,a0,0x3
 468:	0300                	addi	s0,sp,384
 46a:	3a08                	fld	fa0,48(a2)
 46c:	390b3b0b          	0x390b3b0b
 470:	0213490b          	0x213490b
 474:	0018                	0x18
 476:	0f00                	addi	s0,sp,912
 478:	012e                	slli	sp,sp,0xb
 47a:	0e03193f 0b3b0b3a 	0xb3b0b3a0e03193f
 482:	0b39                	addi	s6,s6,14
 484:	01111927          	0x1111927
 488:	0612                	slli	a2,a2,0x4
 48a:	1840                	addi	s0,sp,52
 48c:	01194297          	auipc	t0,0x1194
 490:	10000013          	li	zero,256
 494:	0111010b          	0x111010b
 498:	0612                	slli	a2,a2,0x4
 49a:	0000                	unimp
 49c:	3411                	jal	fffffea0 <__freertos_irq_stack_top+0xefff7ea0>
 49e:	0300                	addi	s0,sp,384
 4a0:	3a08                	fld	fa0,48(a2)
 4a2:	390b3b0b          	0x390b3b0b
 4a6:	0213490b          	0x213490b
 4aa:	0018                	0x18
	...

Disassembly of section .debug_aranges:

00000000 <.debug_aranges>:
   0:	001c                	0x1c
   2:	0000                	unimp
   4:	0002                	c.slli64	zero
   6:	0000                	unimp
   8:	0000                	unimp
   a:	0004                	0x4
   c:	0000                	unimp
   e:	0000                	unimp
  10:	0800                	addi	s0,sp,16
  12:	0000                	unimp
  14:	0068                	addi	a0,sp,12
	...
  1e:	0000                	unimp
  20:	001c                	0x1c
  22:	0000                	unimp
  24:	0002                	c.slli64	zero
  26:	0026                	c.slli	zero,0x9
  28:	0000                	unimp
  2a:	0004                	0x4
  2c:	0000                	unimp
  2e:	0000                	unimp
  30:	0868                	addi	a0,sp,28
  32:	0000                	unimp
  34:	0128                	addi	a0,sp,136
	...
  3e:	0000                	unimp
  40:	0034                	addi	a3,sp,8
  42:	0000                	unimp
  44:	0002                	c.slli64	zero
  46:	004c                	addi	a1,sp,4
  48:	0000                	unimp
  4a:	0004                	0x4
  4c:	0000                	unimp
  4e:	0000                	unimp
  50:	0990                	addi	a2,sp,208
  52:	0000                	unimp
  54:	005c                	addi	a5,sp,4
  56:	0000                	unimp
  58:	09ec                	addi	a1,sp,220
  5a:	0000                	unimp
  5c:	0050                	addi	a2,sp,4
  5e:	0000                	unimp
  60:	0a3c                	addi	a5,sp,280
  62:	0000                	unimp
  64:	00b4                	addi	a3,sp,72
  66:	0000                	unimp
  68:	0af0                	addi	a2,sp,348
  6a:	0000                	unimp
  6c:	02ac                	addi	a1,sp,328
	...
  76:	0000                	unimp
  78:	001c                	0x1c
  7a:	0000                	unimp
  7c:	0002                	c.slli64	zero
  7e:	04f8                	addi	a4,sp,588
  80:	0000                	unimp
  82:	0004                	0x4
  84:	0000                	unimp
  86:	0000                	unimp
  88:	0d9c                	addi	a5,sp,720
  8a:	0000                	unimp
  8c:	0034                	addi	a3,sp,8
	...
  96:	0000                	unimp
  98:	0024                	addi	s1,sp,8
  9a:	0000                	unimp
  9c:	0002                	c.slli64	zero
  9e:	057a                	slli	a0,a0,0x1e
  a0:	0000                	unimp
  a2:	0004                	0x4
  a4:	0000                	unimp
  a6:	0000                	unimp
  a8:	0dd0                	addi	a2,sp,724
  aa:	0000                	unimp
  ac:	0080                	addi	s0,sp,64
  ae:	0000                	unimp
  b0:	0e50                	addi	a2,sp,788
  b2:	0000                	unimp
  b4:	0018                	0x18
	...
  be:	0000                	unimp
  c0:	004c                	addi	a1,sp,4
  c2:	0000                	unimp
  c4:	0002                	c.slli64	zero
  c6:	0668                	addi	a0,sp,780
  c8:	0000                	unimp
  ca:	0004                	0x4
  cc:	0000                	unimp
  ce:	0000                	unimp
  d0:	0e68                	addi	a0,sp,796
  d2:	0000                	unimp
  d4:	0030                	addi	a2,sp,8
  d6:	0000                	unimp
  d8:	0e98                	addi	a4,sp,848
  da:	0000                	unimp
  dc:	0060                	addi	s0,sp,12
  de:	0000                	unimp
  e0:	0ef8                	addi	a4,sp,860
  e2:	0000                	unimp
  e4:	00a4                	addi	s1,sp,72
	...
  ee:	0000                	unimp
  f0:	0f9c                	addi	a5,sp,976
  f2:	0000                	unimp
  f4:	004c                	addi	a1,sp,4
  f6:	0000                	unimp
  f8:	0fe8                	addi	a0,sp,988
  fa:	0000                	unimp
  fc:	005c                	addi	a5,sp,4
  fe:	0000                	unimp
 100:	1044                	addi	s1,sp,36
 102:	0000                	unimp
 104:	0064                	addi	s1,sp,12
	...
 10e:	0000                	unimp
 110:	0054                	addi	a3,sp,4
 112:	0000                	unimp
 114:	0002                	c.slli64	zero
 116:	09fa                	slli	s3,s3,0x1e
 118:	0000                	unimp
 11a:	0004                	0x4
 11c:	0000                	unimp
 11e:	0000                	unimp
 120:	10a8                	addi	a0,sp,104
 122:	0000                	unimp
 124:	0030                	addi	a2,sp,8
 126:	0000                	unimp
 128:	10d8                	addi	a4,sp,100
 12a:	0000                	unimp
 12c:	0048                	addi	a0,sp,4
 12e:	0000                	unimp
 130:	1120                	addi	s0,sp,168
 132:	0000                	unimp
 134:	002c                	addi	a1,sp,8
 136:	0000                	unimp
 138:	114c                	addi	a1,sp,164
 13a:	0000                	unimp
 13c:	0040                	addi	s0,sp,4
	...
 166:	0000                	unimp
 168:	009c                	addi	a5,sp,64
 16a:	0000                	unimp
 16c:	0002                	c.slli64	zero
 16e:	0cae                	slli	s9,s9,0xb
 170:	0000                	unimp
 172:	0004                	0x4
 174:	0000                	unimp
 176:	0000                	unimp
 178:	118c                	addi	a1,sp,224
 17a:	0000                	unimp
 17c:	0184                	addi	s1,sp,192
 17e:	0000                	unimp
 180:	1310                	addi	a2,sp,416
 182:	0000                	unimp
 184:	0040                	addi	s0,sp,4
	...
 18e:	0000                	unimp
 190:	1350                	addi	a2,sp,420
 192:	0000                	unimp
 194:	0034                	addi	a3,sp,8
 196:	0000                	unimp
 198:	1384                	addi	s1,sp,480
 19a:	0000                	unimp
 19c:	002c                	addi	a1,sp,8
	...

Disassembly of section .debug_str:

00000000 <.debug_str>:
       0:	2e2e                	fld	ft8,200(sp)
       2:	2f2e2e2f          	0x2f2e2e2f
       6:	72617473          	csrrci	s0,0x726,2
       a:	2e74                	fld	fa3,216(a2)
       c:	3a450053          	0x3a450053
      10:	735c                	flw	fa5,36(a4)
      12:	6e656963          	bltu	a0,t1,704 <_start-0xfc>
      16:	6974                	flw	fa3,84(a0)
      18:	6966                	flw	fs2,88(sp)
      1a:	65725f63          	bge	tp,s7,678 <_start-0x188>
      1e:	72616573          	csrrsi	a0,0x726,2
      22:	725c6863          	bltu	s8,t0,752 <_start-0xae>
      26:	7369                	lui	t1,0xffffa
      28:	5c762d63          	0x5c762d63
      2c:	a1d0                	fsd	fa2,128(a1)
      2e:	d6c5                	beqz	a3,ffffffd6 <__freertos_irq_stack_top+0xefff7fd6>
      30:	efb4                	fsw	fa3,88(a5)
      32:	6972                	flw	fs2,28(sp)
      34:	762d6373          	csrrsi	t1,0x762,26
      38:	735c                	flw	fa5,36(a4)
      3a:	7774666f          	jal	a2,46fb0 <__stack_size+0x44fb0>
      3e:	7261                	lui	tp,0xffff8
      40:	5c65                	li	s8,-7
      42:	6574                	flw	fa3,76(a0)
      44:	745c7473          	csrrci	s0,0x745,24
      48:	6275                	lui	tp,0x1d
      4a:	5f65                	li	t5,-7
      4c:	6e616373          	csrrsi	t1,0x6e6,2
      50:	4700                	lw	s0,8(a4)
      52:	554e                	lw	a0,240(sp)
      54:	4120                	lw	s0,64(a0)
      56:	2e322053          	0x2e322053
      5a:	2e003233          	0x2e003233
      5e:	2f2e                	fld	ft10,200(sp)
      60:	2e2e                	fld	ft8,200(sp)
      62:	6172742f          	0x6172742f
      66:	5f70                	lw	a2,124(a4)
      68:	6e65                	lui	t3,0x19
      6a:	7274                	flw	fa3,100(a2)
      6c:	2e79                	jal	40a <_start-0x3f6>
      6e:	5f5f0053          	0x5f5f0053
      72:	4c46                	lw	s8,80(sp)
      74:	3654                	fld	fa3,168(a2)
      76:	5f34                	lw	a3,120(a4)
      78:	4148                	lw	a0,4(a0)
      7a:	55515f53          	0x55515f53
      7e:	4549                	li	a0,18
      80:	5f54                	lw	a3,60(a4)
      82:	414e                	lw	sp,208(sp)
      84:	5f4e                	lw	t5,240(sp)
      86:	205f 0031 4955      	0x49550031205f
      8c:	544e                	lw	s0,240(sp)
      8e:	5f38                	lw	a4,120(a4)
      90:	414d                	li	sp,19
      92:	2058                	fld	fa4,128(s0)
      94:	5f28                	lw	a0,120(a4)
      96:	555f 4e49 3854      	0x38544e49555f
      9c:	4d5f 5841 5f5f      	0x5f5f58414d5f
      a2:	0029                	c.nop	10
      a4:	6c70                	flw	fa2,92(s0)
      a6:	6369                	lui	t1,0x1a
      a8:	5f00                	lw	s0,56(a4)
      aa:	445f 4345 3436      	0x34364345445f
      b0:	535f 4255 4f4e      	0x4f4e4255535f
      b6:	4d52                	lw	s10,20(sp)
      b8:	4c41                	li	s8,16
      ba:	4d5f 4e49 5f5f      	0x5f5f4e494d5f
      c0:	3020                	fld	fs0,96(s0)
      c2:	302e                	fld	ft0,232(sp)
      c4:	3030                	fld	fa2,96(s0)
      c6:	3030                	fld	fa2,96(s0)
      c8:	3030                	fld	fa2,96(s0)
      ca:	3030                	fld	fa2,96(s0)
      cc:	3030                	fld	fa2,96(s0)
      ce:	3030                	fld	fa2,96(s0)
      d0:	3130                	fld	fa2,96(a0)
      d2:	2d45                	jal	782 <_start-0x7e>
      d4:	44333833          	0x44333833
      d8:	0044                	addi	s1,sp,4
      da:	5f5f 4c46 3354      	0x33544c465f5f
      e0:	5f32                	lw	t5,44(sp)
      e2:	4148                	lw	a0,4(a0)
      e4:	4e495f53          	0x4e495f53
      e8:	4946                	lw	s2,80(sp)
      ea:	494e                	lw	s2,208(sp)
      ec:	5954                	lw	a3,52(a0)
      ee:	5f5f 3120 4100      	0x410031205f5f
      f4:	6270                	flw	fa2,68(a2)
      f6:	6954                	flw	fa3,20(a0)
      f8:	656d                	lui	a0,0x1b
      fa:	4372                	lw	t1,28(sp)
      fc:	6e68                	flw	fa0,92(a2)
      fe:	6448                	flw	fa0,12(s0)
     100:	5f00                	lw	s0,56(a4)
     102:	555f 4e49 5f54      	0x5f544e49555f
     108:	4146                	lw	sp,80(sp)
     10a:	5f385453          	0x5f385453
     10e:	5954                	lw	a3,52(a0)
     110:	4550                	lw	a2,12(a0)
     112:	5f5f 7520 736e      	0x736e75205f5f
     118:	6769                	lui	a4,0x1a
     11a:	656e                	flw	fa0,216(sp)
     11c:	2064                	fld	fs1,192(s0)
     11e:	6e69                	lui	t3,0x1a
     120:	0074                	addi	a3,sp,12
     122:	5f5f 4c46 3654      	0x36544c465f5f
     128:	5f34                	lw	a3,120(a4)
     12a:	414d                	li	sp,19
     12c:	5f58                	lw	a4,60(a4)
     12e:	5845                	li	a6,-15
     130:	5f50                	lw	a2,60(a4)
     132:	205f 3031 3432      	0x34323031205f
     138:	5f00                	lw	s0,56(a4)
     13a:	465f 544c 4d5f      	0x4d5f544c465f
     140:	4e49                	li	t3,18
     142:	315f 5f30 5845      	0x58455f30315f
     148:	5f50                	lw	a2,60(a4)
     14a:	205f 2d28 3733      	0x37332d28205f
     150:	0029                	c.nop	10
     152:	5f5f 4c46 3654      	0x36544c465f5f
     158:	5834                	lw	a3,112(s0)
     15a:	445f 4e45 524f      	0x524f4e45445f
     160:	5f4d                	li	t5,-13
     162:	494d                	li	s2,19
     164:	5f4e                	lw	t5,240(sp)
     166:	205f 2e36 3734      	0x37342e36205f
     16c:	3135                	jal	fffffd98 <__freertos_irq_stack_top+0xefff7d98>
     16e:	31313537          	lui	a0,0x31313
     172:	3439                	jal	fffffb80 <__freertos_irq_stack_top+0xefff7b80>
     174:	32303833          	0x32303833
     178:	3135                	jal	fffffda4 <__freertos_irq_stack_top+0xefff7da4>
     17a:	3031                	jal	fffff986 <__freertos_irq_stack_top+0xefff7986>
     17c:	3239                	jal	fffffa8a <__freertos_irq_stack_top+0xefff7a8a>
     17e:	3434                	fld	fa3,104(s0)
     180:	35393833          	0x35393833
     184:	3238                	fld	fa4,96(a2)
     186:	3732                	fld	fa4,296(sp)
     188:	3436                	fld	fs0,360(sp)
     18a:	3536                	fld	fa0,360(sp)
     18c:	6535                	lui	a0,0xd
     18e:	342d                	jal	fffffbb8 <__freertos_irq_stack_top+0xefff7bb8>
     190:	3639                	jal	fffffc9e <__freertos_irq_stack_top+0xefff7c9e>
     192:	4636                	lw	a2,76(sp)
     194:	3436                	fld	fs0,360(sp)
     196:	0078                	addi	a4,sp,12
     198:	5f5f 6168 6576      	0x657661685f5f
     19e:	6c5f 6e6f 3367      	0x33676e6f6c5f
     1a4:	2032                	fld	ft0,264(sp)
     1a6:	0031                	c.nop	12
     1a8:	5f5f 4c46 3354      	0x33544c465f5f
     1ae:	5832                	lw	a6,44(sp)
     1b0:	4d5f 5841 455f      	0x455f58414d5f
     1b6:	5058                	lw	a4,36(s0)
     1b8:	5f5f 3120 3230      	0x323031205f5f
     1be:	0034                	addi	a3,sp,8
     1c0:	5f5f 4e49 5f54      	0x5f544e495f5f
     1c6:	4146                	lw	sp,80(sp)
     1c8:	36315453          	0x36315453
     1cc:	575f 4449 4854      	0x48544449575f
     1d2:	5f5f 3320 0032      	0x3233205f5f
     1d8:	616d                	addi	sp,sp,240
     1da:	6e69                	lui	t3,0x1a
     1dc:	632e                	flw	ft6,200(sp)
     1de:	4900                	lw	s0,16(a0)
     1e0:	544e                	lw	s0,240(sp)
     1e2:	414d                	li	sp,19
     1e4:	5f58                	lw	a4,60(a4)
     1e6:	494d                	li	s2,19
     1e8:	204e                	fld	ft0,208(sp)
     1ea:	2d28                	fld	fa0,88(a0)
     1ec:	4e49                	li	t3,18
     1ee:	4d54                	lw	a3,28(a0)
     1f0:	5841                	li	a6,-16
     1f2:	4d5f 5841 2d20      	0x2d2058414d5f
     1f8:	3120                	fld	fs0,96(a0)
     1fa:	0029                	c.nop	10
     1fc:	5f5f 4c46 3654      	0x36544c465f5f
     202:	5834                	lw	a3,112(s0)
     204:	455f 5350 4c49      	0x4c495350455f
     20a:	5f5f4e4f          	fnmadd.q	ft8,ft10,fs5,fa1,rmm
     20e:	3120                	fld	fs0,96(a0)
     210:	392e                	fld	fs2,232(sp)
     212:	3532                	fld	fa0,296(sp)
     214:	3239                	jal	fffffb22 <__freertos_irq_stack_top+0xefff7b22>
     216:	3939                	jal	fffffe34 <__freertos_irq_stack_top+0xefff7e34>
     218:	3434                	fld	fa3,104(s0)
     21a:	32373833          	0x32373833
     21e:	35383533          	0x35383533
     222:	35353033          	0x35353033
     226:	3739                	jal	134 <_start-0x6cc>
     228:	32343937          	lui	s2,0x32343
     22c:	3835                	jal	fffffa68 <__freertos_irq_stack_top+0xefff7a68>
     22e:	3934                	fld	fa3,112(a0)
     230:	3732                	fld	fa4,296(sp)
     232:	2d653233          	0x2d653233
     236:	36463433          	0x36463433
     23a:	7834                	flw	fa3,112(s0)
     23c:	5f00                	lw	s0,56(a4)
     23e:	445f 4345 3436      	0x34364345445f
     244:	455f 5350 4c49      	0x4c495350455f
     24a:	5f5f4e4f          	fnmadd.q	ft8,ft10,fs5,fa1,rmm
     24e:	3120                	fld	fs0,96(a0)
     250:	2d45                	jal	900 <handle_synchronous>
     252:	3531                	jal	5e <_start-0x7a2>
     254:	4444                	lw	s1,12(s0)
     256:	5f00                	lw	s0,56(a4)
     258:	445f 4c42 445f      	0x445f4c42445f
     25e:	4e45                	li	t3,17
     260:	5f4d524f          	fnmadd.q	ft4,fs10,fs4,fa1,unknown
     264:	494d                	li	s2,19
     266:	5f4e                	lw	t5,240(sp)
     268:	205f 2828 6f64      	0x6f642828205f
     26e:	6275                	lui	tp,0x1d
     270:	656c                	flw	fa1,76(a0)
     272:	3429                	jal	fffffc7c <__freertos_irq_stack_top+0xefff7c7c>
     274:	392e                	fld	fs2,232(sp)
     276:	3034                	fld	fa3,96(s0)
     278:	3536                	fld	fa0,360(sp)
     27a:	3436                	fld	fs0,360(sp)
     27c:	3835                	jal	fffffab8 <__freertos_irq_stack_top+0xefff7ab8>
     27e:	3134                	fld	fa3,96(a0)
     280:	3432                	fld	fs0,296(sp)
     282:	3536                	fld	fa0,360(sp)
     284:	3434                	fld	fa3,104(s0)
     286:	3731                	jal	192 <_start-0x66e>
     288:	3536                	fld	fa0,360(sp)
     28a:	3836                	fld	fa6,360(sp)
     28c:	38323937          	lui	s2,0x38323
     290:	3836                	fld	fa6,360(sp)
     292:	3232                	fld	ft4,296(sp)
     294:	3331                	jal	ffffffa0 <__freertos_irq_stack_top+0xefff7fa0>
     296:	2d653237          	lui	tp,0x2d653
     29a:	4c343233          	0x4c343233
     29e:	0029                	c.nop	10
     2a0:	726f6873          	csrrsi	a6,0x726,30
     2a4:	0074                	addi	a3,sp,12
     2a6:	5f5f 4146 5453      	0x545341465f5f
     2ac:	3436                	fld	fs0,360(sp)
     2ae:	2220                	fld	fs0,64(a2)
     2b0:	6c6c                	flw	fa1,92(s0)
     2b2:	0022                	c.slli	zero,0x8
     2b4:	5f504143          	fmadd.q	ft2,ft0,fs5,fa1,rmm
     2b8:	4f42                	lw	t5,16(sp)
     2ba:	4854                	lw	a3,20(s0)
     2bc:	455f 4744 2045      	0x20454744455f
     2c2:	7830                	flw	fa2,112(s0)
     2c4:	3230                	fld	fa2,96(a2)
     2c6:	5f00                	lw	s0,56(a4)
     2c8:	465f 544c 3233      	0x3233544c465f
     2ce:	4d5f 4e41 5f54      	0x5f544e414d5f
     2d4:	4944                	lw	s1,20(a0)
     2d6:	205f5f47          	fmsub.s	ft10,ft10,ft5,ft4,unknown
     2da:	3432                	fld	fs0,296(sp)
     2dc:	4900                	lw	s0,16(a0)
     2de:	544e                	lw	s0,240(sp)
     2e0:	4c5f 4145 5453      	0x545341454c5f
     2e6:	3436                	fld	fs0,360(sp)
     2e8:	4d5f 4e49 2820      	0x28204e494d5f
     2ee:	5f2d                	li	t5,-21
     2f0:	495f 544e 4c5f      	0x4c5f544e495f
     2f6:	4145                	li	sp,17
     2f8:	34365453          	0x34365453
     2fc:	4d5f 5841 5f5f      	0x5f5f58414d5f
     302:	2d20                	fld	fs0,88(a0)
     304:	3120                	fld	fs0,96(a0)
     306:	0029                	c.nop	10
     308:	5f5f 4955 544e      	0x544e49555f5f
     30e:	5f38                	lw	a4,120(a4)
     310:	29632843          	fmadd.s	fa6,ft6,fs6,ft5,rdn
     314:	6320                	flw	fs0,64(a4)
     316:	5f00                	lw	s0,56(a4)
     318:	4c5f 4244 5f4c      	0x5f4c42444c5f
     31e:	414d                	li	sp,19
     320:	544e                	lw	s0,240(sp)
     322:	445f 4749 5f5f      	0x5f5f4749445f
     328:	3120                	fld	fs0,96(a0)
     32a:	3331                	jal	36 <_start-0x7ca>
     32c:	4300                	lw	s0,0(a4)
     32e:	504d                	c.li	zero,-13
     330:	535f 4c45 435f      	0x435f4c45535f
     336:	4e48                	lw	a0,28(a2)
     338:	78302033          	0x78302033
     33c:	3830                	fld	fa2,112(s0)
     33e:	5500                	lw	s0,40(a0)
     340:	4e49                	li	t3,18
     342:	3654                	fld	fa3,168(a2)
     344:	5f34                	lw	a3,120(a4)
     346:	29782843          	fmadd.s	fa6,fa6,fs7,ft5,rdn
     34a:	5f20                	lw	s0,120(a4)
     34c:	555f 4e49 3654      	0x36544e49555f
     352:	5f34                	lw	a3,120(a4)
     354:	29782843          	fmadd.s	fa6,fa6,fs7,ft5,rdn
     358:	5500                	lw	s0,40(a0)
     35a:	4e49                	li	t3,18
     35c:	5f54                	lw	a3,60(a4)
     35e:	454c                	lw	a1,12(a0)
     360:	5341                	li	t1,-16
     362:	3354                	fld	fa3,160(a4)
     364:	5f32                	lw	t5,44(sp)
     366:	414d                	li	sp,19
     368:	2058                	fld	fa4,128(s0)
     36a:	5f28                	lw	a0,120(a4)
     36c:	555f 4e49 5f54      	0x5f544e49555f
     372:	454c                	lw	a1,12(a0)
     374:	5341                	li	t1,-16
     376:	3354                	fld	fa3,160(a4)
     378:	5f32                	lw	t5,44(sp)
     37a:	414d                	li	sp,19
     37c:	5f58                	lw	a4,60(a4)
     37e:	295f 5f00 465f      	0x465f5f00295f
     384:	544c                	lw	a1,44(s0)
     386:	5f583233          	0x5f583233
     38a:	4544                	lw	s1,12(a0)
     38c:	414d4943          	fmadd.s	fs2,fs10,fs4,fs0,rmm
     390:	5f4c                	lw	a1,60(a4)
     392:	4944                	lw	s1,20(a0)
     394:	205f5f47          	fmsub.s	ft10,ft10,ft5,ft4,unknown
     398:	3731                	jal	2a4 <_start-0x55c>
     39a:	5f00                	lw	s0,56(a4)
     39c:	725f 7369 7663      	0x76637369725f
     3a2:	635f 6f6d 6564      	0x65646f6d635f
     3a8:	5f6c                	lw	a1,124(a4)
     3aa:	656d                	lui	a0,0x1b
     3ac:	6c64                	flw	fs1,92(s0)
     3ae:	3120776f          	jal	a4,76c0 <__stack_size+0x56c0>
     3b2:	5f00                	lw	s0,56(a4)
     3b4:	445f 4c42 4d5f      	0x4d5f4c42445f
     3ba:	4e49                	li	t3,18
     3bc:	455f 5058 5f5f      	0x5f5f5058455f
     3c2:	2820                	fld	fs0,80(s0)
     3c4:	312d                	jal	ffffffee <__freertos_irq_stack_top+0xefff7fee>
     3c6:	3230                	fld	fa2,96(a2)
     3c8:	2931                	jal	7e4 <_start-0x1c>
     3ca:	5f00                	lw	s0,56(a4)
     3cc:	4c5f 4e4f 5f47      	0x5f474e4f4c5f
     3d2:	4f4c                	lw	a1,28(a4)
     3d4:	474e                	lw	a4,208(sp)
     3d6:	575f 4449 4854      	0x48544449575f
     3dc:	5f5f 3620 0034      	0x3436205f5f
     3e2:	5f5f 4347 5f43      	0x5f4343475f5f
     3e8:	5441                	li	s0,-16
     3ea:	43494d4f          	fnmadd.d	fs10,fs2,fs4,fs0,rmm
     3ee:	435f 4148 3152      	0x31524148435f
     3f4:	5f36                	lw	t5,108(sp)
     3f6:	5f54                	lw	a3,60(a4)
     3f8:	4f4c                	lw	a1,28(a4)
     3fa:	465f4b43          	fmadd.q	fs6,ft10,ft5,fs0,rmm
     3fe:	4552                	lw	a0,20(sp)
     400:	2045                	jal	4a0 <_start-0x360>
     402:	0031                	c.nop	12
     404:	5f5f 6168 5f73      	0x5f7361685f5f
     40a:	6e69                	lui	t3,0x1a
     40c:	64756c63          	bltu	a0,t2,a64 <tube_scan_disp+0x28>
     410:	5f65                	li	t5,-7
     412:	656e                	flw	fa0,216(sp)
     414:	7478                	flw	fa4,108(s0)
     416:	5328                	lw	a0,96(a4)
     418:	5254                	lw	a3,36(a2)
     41a:	2029                	jal	424 <_start-0x3dc>
     41c:	5f5f 6168 5f73      	0x5f7361685f5f
     422:	6e69                	lui	t3,0x1a
     424:	64756c63          	bltu	a0,t2,a7c <tube_scan_disp+0x40>
     428:	5f65                	li	t5,-7
     42a:	656e                	flw	fa0,216(sp)
     42c:	7478                	flw	fa4,108(s0)
     42e:	5f5f 5328 5254      	0x525453285f5f
     434:	0029                	c.nop	10
     436:	5f5f 7061 5f62      	0x5f6270615f5f
     43c:	6974                	flw	fa3,84(a0)
     43e:	656d                	lui	a0,0x1b
     440:	5f72                	lw	t5,60(sp)
     442:	706f7473          	csrrci	s0,0x706,30
     446:	7428                	flw	fa0,104(s0)
     448:	6d69                	lui	s10,0x1a
     44a:	7265                	lui	tp,0xffff9
     44c:	2029                	jal	456 <_start-0x3aa>
     44e:	7428                	flw	fa0,104(s0)
     450:	6d69                	lui	s10,0x1a
     452:	7265                	lui	tp,0xffff9
     454:	2d29                	jal	a6e <tube_scan_disp+0x32>
     456:	683e                	flw	fa6,204(sp)
     458:	7261                	lui	tp,0xffff8
     45a:	7764                	flw	fs1,108(a4)
     45c:	7261                	lui	tp,0xffff8
     45e:	2d65                	jal	b16 <main+0x26>
     460:	633e                	flw	ft6,204(sp)
     462:	7274                	flw	fa3,100(a2)
     464:	206c                	fld	fa1,192(s0)
     466:	203d                	jal	494 <_start-0x36c>
     468:	2828                	fld	fa0,80(s0)
     46a:	7528                	flw	fa0,104(a0)
     46c:	6e69                	lui	t3,0x1a
     46e:	3374                	fld	fa3,224(a4)
     470:	5f32                	lw	t5,44(sp)
     472:	2974                	fld	fa3,208(a0)
     474:	7428                	flw	fa0,104(s0)
     476:	6d69                	lui	s10,0x1a
     478:	7265                	lui	tp,0xffff9
     47a:	2d29                	jal	a94 <tube_scan_disp+0x58>
     47c:	633e                	flw	ft6,204(sp)
     47e:	7061                	c.lui	zero,0xffff8
     480:	635f 706d 735f      	0x735f706d635f
     486:	6c65                	lui	s8,0x19
     488:	2029                	jal	492 <_start-0x36e>
     48a:	3c3c                	fld	fa5,120(s0)
     48c:	3820                	fld	fs0,112(s0)
     48e:	0029                	c.nop	10
     490:	5f5f 4c46 3354      	0x33544c465f5f
     496:	5832                	lw	a6,44(sp)
     498:	4d5f 5841 5f5f      	0x5f5f58414d5f
     49e:	3120                	fld	fs0,96(a0)
     4a0:	372e                	fld	fa4,232(sp)
     4a2:	3739                	jal	3b0 <_start-0x450>
     4a4:	3936                	fld	fs2,360(sp)
     4a6:	34333133          	0x34333133
     4aa:	3638                	fld	fa4,104(a2)
     4ac:	3332                	fld	ft6,296(sp)
     4ae:	3531                	jal	2ba <_start-0x546>
     4b0:	31383037          	lui	zero,0x31383
     4b4:	3534                	fld	fa3,104(a0)
     4b6:	3732                	fld	fa4,296(sp)
     4b8:	3234                	fld	fa3,96(a2)
     4ba:	31333733          	0x31333733
     4be:	33343037          	lui	zero,0x33343
     4c2:	3735                	jal	3ee <_start-0x412>
     4c4:	2b65                	jal	a7c <tube_scan_disp+0x40>
     4c6:	46383033          	0x46383033
     4ca:	00783233          	sltu	tp,a6,t2
     4ce:	5f5f 4c46 3154      	0x31544c465f5f
     4d4:	3832                	fld	fa6,296(sp)
     4d6:	4d5f 5841 5f5f      	0x5f5f58414d5f
     4dc:	3120                	fld	fs0,96(a0)
     4de:	312e                	fld	ft2,232(sp)
     4e0:	3938                	fld	fa4,112(a0)
     4e2:	34313337          	lui	t1,0x34313
     4e6:	3539                	jal	2f4 <_start-0x50c>
     4e8:	32373533          	0x32373533
     4ec:	36373133          	0x36373133
     4f0:	3035                	jal	fffffd1c <__freertos_irq_stack_top+0xefff7d1c>
     4f2:	3538                	fld	fa4,104(a0)
     4f4:	33393537          	lui	a0,0x33393
     4f8:	3632                	fld	fa2,296(sp)
     4fa:	3236                	fld	ft4,360(sp)
     4fc:	3038                	fld	fa4,96(s0)
     4fe:	3730                	fld	fa2,104(a4)
     500:	3230                	fld	fa2,96(a2)
     502:	2b65                	jal	aba <tube_scan_disp+0x7e>
     504:	3934                	fld	fa3,112(a0)
     506:	31463233          	0x31463233
     50a:	3832                	fld	fa6,296(sp)
     50c:	5f00                	lw	s0,56(a4)
     50e:	535f 5a49 4f45      	0x4f455a49535f
     514:	5f46                	lw	t5,112(sp)
     516:	544e4957          	0x544e4957
     51a:	545f 5f5f 3420      	0x34205f5f545f
     520:	5f00                	lw	s0,56(a4)
     522:	475f 554e 5f43      	0x5f43554e475f
     528:	5250                	lw	a2,36(a2)
     52a:	5245                	li	tp,-15
     52c:	5145                	li	sp,-15
     52e:	6d28                	flw	fa0,88(a0)
     530:	6a61                	lui	s4,0x18
     532:	6d2c                	flw	fa1,88(a0)
     534:	6e69                	lui	t3,0x1a
     536:	2029                	jal	540 <_start-0x2c0>
     538:	2828                	fld	fa0,80(s0)
     53a:	5f5f 4e47 4355      	0x43554e475f5f
     540:	5f5f 3c20 203c      	0x203c3c205f5f
     546:	3631                	jal	52 <_start-0x7ae>
     548:	2029                	jal	552 <_start-0x2ae>
     54a:	5f5f202b          	0x5f5f202b
     54e:	43554e47          	fmsub.d	ft8,fa0,fs5,fs0,rmm
     552:	4d5f 4e49 524f      	0x524f4e494d5f
     558:	5f5f 3e20 203d      	0x203d3e205f5f
     55e:	2828                	fld	fa0,80(s0)
     560:	616d                	addi	sp,sp,240
     562:	296a                	fld	fs2,152(sp)
     564:	3c20                	fld	fs0,120(s0)
     566:	203c                	fld	fa5,64(s0)
     568:	3631                	jal	74 <_start-0x78c>
     56a:	2029                	jal	574 <_start-0x28c>
     56c:	6d28202b          	0x6d28202b
     570:	6e69                	lui	t3,0x1a
     572:	2929                	jal	98c <asynchronous_return+0x88>
     574:	7400                	flw	fs0,40(s0)
     576:	6d69                	lui	s10,0x1a
     578:	7265                	lui	tp,0xffff9
     57a:	635f 6e6f 6966      	0x69666e6f635f
     580:	4e490067          	jr	1252(s2) # 383234e4 <__freertos_irq_stack_top+0x2831b4e4>
     584:	5f54                	lw	a3,60(a4)
     586:	4146                	lw	sp,80(sp)
     588:	34365453          	0x34365453
     58c:	4d5f 4e49 2820      	0x28204e494d5f
     592:	5f2d                	li	t5,-21
     594:	495f 544e 465f      	0x465f544e495f
     59a:	5341                	li	t1,-16
     59c:	3654                	fld	fa3,168(a2)
     59e:	5f34                	lw	a3,120(a4)
     5a0:	414d                	li	sp,19
     5a2:	5f58                	lw	a4,60(a4)
     5a4:	205f 202d 2931      	0x2931202d205f
     5aa:	5f00                	lw	s0,56(a4)
     5ac:	475f 554e 5f43      	0x5f43554e475f
     5b2:	494d                	li	s2,19
     5b4:	4f4e                	lw	t5,208(sp)
     5b6:	5f52                	lw	t5,52(sp)
     5b8:	205f 0032 5f5f      	0x5f5f0032205f
     5be:	4544                	lw	s1,12(a0)
     5c0:	414d4943          	fmadd.s	fs2,fs10,fs4,fs0,rmm
     5c4:	5f4c                	lw	a1,60(a4)
     5c6:	4944                	lw	s1,20(a0)
     5c8:	205f5f47          	fmsub.s	ft10,ft10,ft5,ft4,unknown
     5cc:	43003633          	0x43003633
     5d0:	5550                	lw	a2,44(a0)
     5d2:	465f 4552 5f51      	0x5f514552465f
     5d8:	5a48                	lw	a0,52(a2)
     5da:	2820                	fld	fs0,80(s0)
     5dc:	3035                	jal	fffffe08 <__freertos_irq_stack_top+0xefff7e08>
     5de:	3030                	fld	fa2,96(s0)
     5e0:	3030                	fld	fa2,96(s0)
     5e2:	3030                	fld	fa2,96(s0)
     5e4:	0029                	c.nop	10
     5e6:	5f504143          	fmadd.q	ft2,ft0,fs5,fa1,rmm
     5ea:	5f4c4553          	0x5f4c4553
     5ee:	334e4843          	fmadd.d	fa6,ft8,fs4,ft6,rmm
     5f2:	3020                	fld	fs0,96(s0)
     5f4:	3078                	fld	fa4,224(s0)
     5f6:	0030                	addi	a2,sp,8
     5f8:	5f474953          	0x5f474953
     5fc:	5441                	li	s0,-16
     5fe:	43494d4f          	fnmadd.d	fs10,fs2,fs4,fs0,rmm
     602:	4d5f 5841 2820      	0x282058414d5f
     608:	5f5f 5453 4944      	0x494454535f5f
     60e:	544e                	lw	s0,240(sp)
     610:	455f 5058 4928      	0x49285058455f
     616:	544e                	lw	s0,240(sp)
     618:	4d5f 5841 2929      	0x292958414d5f
     61e:	5f00                	lw	s0,56(a4)
     620:	465f 544c 3436      	0x3436544c465f
     626:	4d5f 4e49 5f5f      	0x5f5f4e494d5f
     62c:	3220                	fld	fs0,96(a2)
     62e:	322e                	fld	ft4,232(sp)
     630:	3532                	fld	fa0,296(sp)
     632:	3730                	fld	fa2,104(a4)
     634:	38353833          	0x38353833
     638:	3035                	jal	fffffe64 <__freertos_irq_stack_top+0xefff7e64>
     63a:	31303237          	lui	tp,0x31303
     63e:	30333833          	0x30333833
     642:	3039                	jal	fffffe50 <__freertos_irq_stack_top+0xefff7e50>
     644:	3332                	fld	ft6,296(sp)
     646:	3732                	fld	fa4,296(sp)
     648:	3731                	jal	554 <_start-0x2ac>
     64a:	34323333          	0x34323333
     64e:	3430                	fld	fa2,104(s0)
     650:	3630                	fld	fa2,104(a2)
     652:	2d65                	jal	d0a <main+0x21a>
     654:	46383033          	0x46383033
     658:	3436                	fld	fs0,360(sp)
     65a:	5f00                	lw	s0,56(a4)
     65c:	555f 4e49 3154      	0x31544e49555f
     662:	5f36                	lw	t5,108(sp)
     664:	29632843          	fmadd.s	fa6,ft6,fs6,ft5,rdn
     668:	6320                	flw	fs0,64(a4)
     66a:	5f00                	lw	s0,56(a4)
     66c:	4f50                	lw	a2,28(a4)
     66e:	5f584953          	0x5f584953
     672:	52554f53          	0x52554f53
     676:	5f004543          	fmadd.q	fa0,ft0,fa6,fa1,rmm
     67a:	535f 5a49 4f45      	0x4f455a49535f
     680:	5f46                	lw	t5,112(sp)
     682:	455a4953          	0x455a4953
     686:	545f 5f5f 3420      	0x34205f5f545f
     68c:	5f00                	lw	s0,56(a4)
     68e:	435f 4148 3152      	0x31524148435f
     694:	5f36                	lw	t5,108(sp)
     696:	5954                	lw	a3,52(a0)
     698:	4550                	lw	a2,12(a0)
     69a:	5f5f 7320 6f68      	0x6f6873205f5f
     6a0:	7472                	flw	fs0,60(sp)
     6a2:	7520                	flw	fs0,104(a0)
     6a4:	736e                	flw	ft6,248(sp)
     6a6:	6769                	lui	a4,0x1a
     6a8:	656e                	flw	fa0,216(sp)
     6aa:	2064                	fld	fs1,192(s0)
     6ac:	6e69                	lui	t3,0x1a
     6ae:	0074                	addi	a3,sp,12
     6b0:	5f504143          	fmadd.q	ft2,ft0,fs5,fa1,rmm
     6b4:	4f50                	lw	a2,28(a4)
     6b6:	44455f53          	0x44455f53
     6ba:	30204547          	fmsub.s	fa0,ft0,ft2,ft6,rmm
     6be:	3078                	fld	fa4,224(s0)
     6c0:	0030                	addi	a2,sp,8
     6c2:	5f5f 4e49 5f54      	0x5f544e495f5f
     6c8:	4146                	lw	sp,80(sp)
     6ca:	5f385453          	0x5f385453
     6ce:	414d                	li	sp,19
     6d0:	5f58                	lw	a4,60(a4)
     6d2:	205f 7830 6637      	0x66377830205f
     6d8:	6666                	flw	fa2,88(sp)
     6da:	6666                	flw	fa2,88(sp)
     6dc:	6666                	flw	fa2,88(sp)
     6de:	5f00                	lw	s0,56(a4)
     6e0:	4f5f 4452 5245      	0x524544524f5f
     6e6:	425f 4749 455f      	0x455f4749425f
     6ec:	444e                	lw	s0,208(sp)
     6ee:	4149                	li	sp,18
     6f0:	5f4e                	lw	t5,240(sp)
     6f2:	205f 3334 3132      	0x31323334205f
     6f8:	5f00                	lw	s0,56(a4)
     6fa:	475f 554e 5f43      	0x5f43554e475f
     700:	205f 0038 6873      	0x68730038205f
     706:	2074726f          	jal	tp,4810c <__stack_size+0x4610c>
     70a:	5f00312b          	0x5f00312b
     70e:	445f 4c42 4d5f      	0x4d5f4c42445f
     714:	4e41                	li	t3,16
     716:	5f54                	lw	a3,60(a4)
     718:	4944                	lw	s1,20(a0)
     71a:	205f5f47          	fmsub.s	ft10,ft10,ft5,ft4,unknown
     71e:	3335                	jal	44a <_start-0x3b6>
     720:	5f00                	lw	s0,56(a4)
     722:	555f 4e49 5f54      	0x5f544e49555f
     728:	454c                	lw	a1,12(a0)
     72a:	5341                	li	t1,-16
     72c:	3654                	fld	fa3,168(a2)
     72e:	5f34                	lw	a3,120(a4)
     730:	5954                	lw	a3,52(a0)
     732:	4550                	lw	a2,12(a0)
     734:	5f5f 6c20 6e6f      	0x6e6f6c205f5f
     73a:	6f6c2067          	0x6f6c2067
     73e:	676e                	flw	fa4,216(sp)
     740:	7520                	flw	fs0,104(a0)
     742:	736e                	flw	ft6,248(sp)
     744:	6769                	lui	a4,0x1a
     746:	656e                	flw	fa0,216(sp)
     748:	2064                	fld	fs1,192(s0)
     74a:	6e69                	lui	t3,0x1a
     74c:	0074                	addi	a3,sp,12
     74e:	4c50                	lw	a2,28(s0)
     750:	4349                	li	t1,18
     752:	425f 5341 4145      	0x41455341425f
     758:	4444                	lw	s1,12(s0)
     75a:	2045                	jal	7fa <_start-0x6>
     75c:	7830                	flw	fa2,112(s0)
     75e:	3046                	fld	ft0,112(sp)
     760:	3030                	fld	fa2,96(s0)
     762:	3030                	fld	fa2,96(s0)
     764:	3030                	fld	fa2,96(s0)
     766:	5f00                	lw	s0,56(a4)
     768:	575f 4e49 5f54      	0x5f544e49575f
     76e:	414d                	li	sp,19
     770:	5f58                	lw	a4,60(a4)
     772:	205f 7830 6666      	0x66667830205f
     778:	6666                	flw	fa2,88(sp)
     77a:	6666                	flw	fa2,88(sp)
     77c:	6666                	flw	fa2,88(sp)
     77e:	0055                	c.nop	21
     780:	5f5f 5441 4d4f      	0x4d4f54415f5f
     786:	4349                	li	t1,18
     788:	525f 4c45 4145      	0x41454c45525f
     78e:	33204553          	0x33204553
     792:	5f00                	lw	s0,56(a4)
     794:	505f 5254 4944      	0x49445254505f
     79a:	4646                	lw	a2,80(sp)
     79c:	545f 5059 5f45      	0x5f455059545f
     7a2:	205f 6e69 0074      	0x746e69205f
     7a8:	5f5f 4843 5241      	0x524148435f5f
     7ae:	555f 534e 4749      	0x4749534e555f
     7b4:	454e                	lw	a0,208(sp)
     7b6:	5f44                	lw	s1,60(a4)
     7b8:	205f 0031 5f5f      	0x5f5f0031205f
     7be:	4e49                	li	t3,18
     7c0:	3154                	fld	fa3,160(a0)
     7c2:	5f36                	lw	t5,108(sp)
     7c4:	5954                	lw	a3,52(a0)
     7c6:	4550                	lw	a2,12(a0)
     7c8:	5f5f 7320 6f68      	0x6f6873205f5f
     7ce:	7472                	flw	fs0,60(sp)
     7d0:	6920                	flw	fs0,80(a0)
     7d2:	746e                	flw	fs0,248(sp)
     7d4:	7400                	flw	fs0,40(s0)
     7d6:	6275                	lui	tp,0x1d
     7d8:	5f65                	li	t5,-7
     7da:	5f676573          	csrrsi	a0,0x5f6,14
     7de:	65646f63          	bltu	s0,s6,e3c <trap_handler+0x6c>
     7e2:	5f00                	lw	s0,56(a4)
     7e4:	445f 4345 3233      	0x32334345445f
     7ea:	455f 5350 4c49      	0x4c495350455f
     7f0:	5f5f4e4f          	fnmadd.q	ft8,ft10,fs5,fa1,rmm
     7f4:	3120                	fld	fs0,96(a0)
     7f6:	2d45                	jal	ea6 <plic_set_threshold+0xe>
     7f8:	4436                	lw	s0,76(sp)
     7fa:	0046                	c.slli	zero,0x11
     7fc:	535f 5359 5f5f      	0x5f5f5359535f
     802:	4e49                	li	t3,18
     804:	5354                	lw	a3,36(a4)
     806:	5055                	c.li	zero,-11
     808:	485f 0020 5449      	0x54490020485f
     80e:	5f52                	lw	t5,52(sp)
     810:	4954                	lw	a3,20(a0)
     812:	454d                	li	a0,19
     814:	5f52                	lw	t5,52(sp)
     816:	4c45                	li	s8,17
     818:	5041                	c.li	zero,-16
     81a:	5f444553          	0x5f444553
     81e:	414d                	li	sp,19
     820:	30204b53          	0x30204b53
     824:	3078                	fld	fa4,224(s0)
     826:	0031                	c.nop	12
     828:	6e75                	lui	t3,0x1d
     82a:	6e676973          	csrrsi	s2,0x6e6,14
     82e:	6465                	lui	s0,0x19
     830:	5f00                	lw	s0,56(a4)
     832:	465f 544c 3436      	0x3436544c465f
     838:	5f58                	lw	a4,60(a4)
     83a:	414d                	li	sp,19
     83c:	5f58                	lw	a4,60(a4)
     83e:	5845                	li	a6,-15
     840:	5f50                	lw	a2,60(a4)
     842:	205f 3631 3833      	0x38333631205f
     848:	0034                	addi	a3,sp,8
     84a:	5f5f 5441 4d4f      	0x4d4f54415f5f
     850:	4349                	li	t1,18
     852:	535f 5145 435f      	0x435f5145535f
     858:	35205453          	0x35205453
     85c:	5f00                	lw	s0,56(a4)
     85e:	4c5f 4145 5453      	0x545341454c5f
     864:	2038                	fld	fa4,64(s0)
     866:	6822                	flw	fa6,8(sp)
     868:	2268                	fld	fa0,192(a2)
     86a:	5f00                	lw	s0,56(a4)
     86c:	535f 5a49 4f45      	0x4f455a49535f
     872:	5f46                	lw	t5,112(sp)
     874:	524f4853          	0x524f4853
     878:	5f54                	lw	a3,60(a4)
     87a:	205f 0032 756f      	0x756f0032205f
     880:	5f74                	lw	a3,124(a4)
     882:	0076                	c.slli	zero,0x1d
     884:	5f5f 4e49 5f54      	0x5f544e495f5f
     88a:	454c                	lw	a1,12(a0)
     88c:	5341                	li	t1,-16
     88e:	3854                	fld	fa3,176(s0)
     890:	4d5f 5841 5f5f      	0x5f5f58414d5f
     896:	3020                	fld	fs0,96(s0)
     898:	3778                	fld	fa4,232(a4)
     89a:	0066                	c.slli	zero,0x19
     89c:	5449                	li	s0,-14
     89e:	5f52                	lw	t5,52(sp)
     8a0:	4e49                	li	t3,18
     8a2:	5550                	lw	a2,44(a0)
     8a4:	5f54                	lw	a3,60(a4)
     8a6:	5f504143          	fmadd.q	ft2,ft0,fs5,fa1,rmm
     8aa:	314e4843          	fmadd.s	fa6,ft8,fs4,ft6,rmm
     8ae:	4d5f 5341 204b      	0x204b53414d5f
     8b4:	7830                	flw	fa2,112(s0)
     8b6:	3430                	fld	fa2,104(s0)
     8b8:	5f00                	lw	s0,56(a4)
     8ba:	495f 544e 4c5f      	0x4c5f544e495f
     8c0:	4145                	li	sp,17
     8c2:	5f385453          	0x5f385453
     8c6:	5954                	lw	a3,52(a0)
     8c8:	4550                	lw	a2,12(a0)
     8ca:	5f5f 7320 6769      	0x676973205f5f
     8d0:	656e                	flw	fa0,216(sp)
     8d2:	2064                	fld	fs1,192(s0)
     8d4:	72616863          	bltu	sp,t1,1004 <plic_claim_interrupt+0x1c>
     8d8:	6e00                	flw	fs0,24(a2)
     8da:	645f776f          	jal	a4,f871e <__stack_size+0xf671e>
     8de:	7269                	lui	tp,0xffffa
     8e0:	0065                	c.nop	25
     8e2:	5f5f 4955 544e      	0x544e49555f5f
     8e8:	414d                	li	sp,19
     8ea:	5f58                	lw	a4,60(a4)
     8ec:	29632843          	fmadd.s	fa6,ft6,fs6,ft5,rdn
     8f0:	6320                	flw	fs0,64(a4)
     8f2:	2320                	fld	fs0,64(a4)
     8f4:	4c552023          	sw	t0,1216(a0) # 333934c0 <__freertos_irq_stack_top+0x2338b4c0>
     8f8:	004c                	addi	a1,sp,4
     8fa:	4e49                	li	t3,18
     8fc:	3354                	fld	fa3,160(a4)
     8fe:	5f32                	lw	t5,44(sp)
     900:	29782843          	fmadd.s	fa6,fa6,fs7,ft5,rdn
     904:	5f20                	lw	s0,120(a4)
     906:	495f 544e 3233      	0x3233544e495f
     90c:	435f 7828 0029      	0x297828435f
     912:	5f5f 454e 4c57      	0x4c57454e5f5f
     918:	4249                	li	tp,18
     91a:	5f5f 3320 5f00      	0x5f0033205f5f
     920:	425f 5459 5f45      	0x5f455459425f
     926:	4544524f          	0x4544524f
     92a:	5f52                	lw	t5,52(sp)
     92c:	205f 5f5f 524f      	0x524f5f5f205f
     932:	4544                	lw	s1,12(a0)
     934:	5f52                	lw	t5,52(sp)
     936:	494c                	lw	a1,20(a0)
     938:	5454                	lw	a3,44(s0)
     93a:	454c                	lw	a1,12(a0)
     93c:	455f 444e 4149      	0x4149444e455f
     942:	5f4e                	lw	t5,240(sp)
     944:	005f 5f5f 444c      	0x444c5f5f005f
     94a:	4c42                	lw	s8,16(sp)
     94c:	4d5f 4e49 5f5f      	0x5f5f4e494d5f
     952:	3320                	fld	fs0,96(a4)
     954:	332e                	fld	ft6,232(sp)
     956:	3236                	fld	ft4,360(sp)
     958:	3031                	jal	164 <_start-0x69c>
     95a:	33343133          	0x33343133
     95e:	3131                	jal	56a <_start-0x296>
     960:	3032                	fld	ft0,296(sp)
     962:	3339                	jal	670 <_start-0x190>
     964:	3035                	jal	190 <_start-0x670>
     966:	3236                	fld	ft4,360(sp)
     968:	3236                	fld	ft4,360(sp)
     96a:	3736                	fld	fa4,360(sp)
     96c:	37313837          	lui	a6,0x37313
     970:	37313233          	0x37313233
     974:	3235                	jal	2a0 <_start-0x560>
     976:	3036                	fld	ft0,360(sp)
     978:	2d65                	jal	1030 <plic_claim_interrupt+0x48>
     97a:	3934                	fld	fa3,112(a0)
     97c:	004c3233          	sltu	tp,s8,tp
     980:	5f5f 4c46 3354      	0x33544c465f5f
     986:	5f32                	lw	t5,44(sp)
     988:	494d                	li	s2,19
     98a:	5f4e                	lw	t5,240(sp)
     98c:	3031                	jal	198 <_start-0x668>
     98e:	455f 5058 5f5f      	0x5f5f5058455f
     994:	2820                	fld	fs0,80(s0)
     996:	332d                	jal	6c0 <_start-0x140>
     998:	5f002937          	lui	s2,0x5f002
     99c:	445f 4c42 485f      	0x485f4c42445f
     9a2:	5341                	li	t1,-16
     9a4:	445f 4e45 524f      	0x524f4e45445f
     9aa:	5f4d                	li	t5,-13
     9ac:	205f 0031 5f5f      	0x5f5f0031205f
     9b2:	41484357          	0x41484357
     9b6:	5f52                	lw	t5,52(sp)
     9b8:	494d                	li	s2,19
     9ba:	5f4e                	lw	t5,240(sp)
     9bc:	205f 2d28 5f5f      	0x5f5f2d28205f
     9c2:	41484357          	0x41484357
     9c6:	5f52                	lw	t5,52(sp)
     9c8:	414d                	li	sp,19
     9ca:	5f58                	lw	a4,60(a4)
     9cc:	205f 202d 2931      	0x2931202d205f
     9d2:	6300                	flw	fs0,0(a4)
     9d4:	6168                	flw	fa0,68(a0)
     9d6:	2072                	fld	ft0,280(sp)
     9d8:	5f00302b          	0x5f00302b
     9dc:	4955                	li	s2,21
     9de:	544e                	lw	s0,240(sp)
     9e0:	3631                	jal	4ec <_start-0x314>
     9e2:	545f 445f 4345      	0x4345445f545f
     9e8:	414c                	lw	a1,4(a0)
     9ea:	4552                	lw	a0,20(sp)
     9ec:	2044                	fld	fs1,128(s0)
     9ee:	5f00                	lw	s0,56(a4)
     9f0:	535f 4454 5f43      	0x5f434454535f
     9f6:	5455                	li	s0,-11
     9f8:	5f46                	lw	t5,112(sp)
     9fa:	5f5f3233          	0x5f5f3233
     9fe:	3120                	fld	fs0,96(a0)
     a00:	6800                	flw	fs0,16(s0)
     a02:	7261                	lui	tp,0xffff8
     a04:	7764                	flw	fs1,108(a4)
     a06:	7261                	lui	tp,0xffff8
     a08:	0065                	c.nop	25
     a0a:	5f5f 4e49 5f54      	0x5f544e495f5f
     a10:	454c                	lw	a1,12(a0)
     a12:	5341                	li	t1,-16
     a14:	3154                	fld	fa3,160(a0)
     a16:	5f36                	lw	t5,108(sp)
     a18:	414d                	li	sp,19
     a1a:	5f58                	lw	a4,60(a4)
     a1c:	205f 7830 6637      	0x66377830205f
     a22:	6666                	flw	fa2,88(sp)
     a24:	4900                	lw	s0,16(a0)
     a26:	544e                	lw	s0,240(sp)
     a28:	5450                	lw	a2,44(s0)
     a2a:	5f52                	lw	t5,52(sp)
     a2c:	414d                	li	sp,19
     a2e:	2058                	fld	fa4,128(s0)
     a30:	5f28                	lw	a0,120(a4)
     a32:	495f 544e 5450      	0x5450544e495f
     a38:	5f52                	lw	t5,52(sp)
     a3a:	414d                	li	sp,19
     a3c:	5f58                	lw	a4,60(a4)
     a3e:	295f 5f00 535f      	0x535f5f00295f
     a44:	52414843          	fmadd.d	fa6,ft2,ft4,fa0,rmm
     a48:	4d5f 5841 5f5f      	0x5f5f58414d5f
     a4e:	3020                	fld	fs0,96(s0)
     a50:	3778                	fld	fa4,232(a4)
     a52:	0066                	c.slli	zero,0x19
     a54:	5f5f 444c 4c42      	0x4c42444c5f5f
     a5a:	445f 4e45 524f      	0x524f4e45445f
     a60:	5f4d                	li	t5,-13
     a62:	494d                	li	s2,19
     a64:	5f4e                	lw	t5,240(sp)
     a66:	205f 2e36 3734      	0x37342e36205f
     a6c:	3135                	jal	698 <_start-0x168>
     a6e:	31313537          	lui	a0,0x31313
     a72:	3439                	jal	480 <_start-0x380>
     a74:	32303833          	0x32303833
     a78:	3135                	jal	6a4 <_start-0x15c>
     a7a:	3031                	jal	286 <_start-0x57a>
     a7c:	3239                	jal	38a <_start-0x476>
     a7e:	3434                	fld	fa3,104(s0)
     a80:	35393833          	0x35393833
     a84:	3238                	fld	fa4,96(a2)
     a86:	3732                	fld	fa4,296(sp)
     a88:	3436                	fld	fs0,360(sp)
     a8a:	3536                	fld	fa0,360(sp)
     a8c:	6535                	lui	a0,0xd
     a8e:	342d                	jal	4b8 <_start-0x348>
     a90:	3639                	jal	59e <_start-0x262>
     a92:	4c36                	lw	s8,76(sp)
     a94:	5f00                	lw	s0,56(a4)
     a96:	445f 4345 3231      	0x32314345445f
     a9c:	5f38                	lw	a4,120(a4)
     a9e:	4e425553          	0x4e425553
     aa2:	414d524f          	fnmadd.s	ft4,fs10,fs4,fs0,unknown
     aa6:	5f4c                	lw	a1,60(a4)
     aa8:	494d                	li	s2,19
     aaa:	5f4e                	lw	t5,240(sp)
     aac:	205f 2e30 3030      	0x30302e30205f
     ab2:	3030                	fld	fa2,96(s0)
     ab4:	3030                	fld	fa2,96(s0)
     ab6:	3030                	fld	fa2,96(s0)
     ab8:	3030                	fld	fa2,96(s0)
     aba:	3030                	fld	fa2,96(s0)
     abc:	3030                	fld	fa2,96(s0)
     abe:	3030                	fld	fa2,96(s0)
     ac0:	3030                	fld	fa2,96(s0)
     ac2:	3030                	fld	fa2,96(s0)
     ac4:	3030                	fld	fa2,96(s0)
     ac6:	3030                	fld	fa2,96(s0)
     ac8:	3030                	fld	fa2,96(s0)
     aca:	3030                	fld	fa2,96(s0)
     acc:	3030                	fld	fa2,96(s0)
     ace:	3030                	fld	fa2,96(s0)
     ad0:	4531                	li	a0,12
     ad2:	362d                	jal	5fc <_start-0x204>
     ad4:	3431                	jal	4e0 <_start-0x320>
     ad6:	004c4433          	xor	s0,s8,tp
     ada:	5f5f 6972 6373      	0x637369725f5f
     ae0:	5f76                	lw	t5,124(sp)
     ae2:	756d                	lui	a0,0xffffb
     ae4:	646c                	flw	fa1,76(s0)
     ae6:	7669                	lui	a2,0xffffa
     ae8:	3120                	fld	fs0,96(a0)
     aea:	5f00                	lw	s0,56(a4)
     aec:	465f 544c 3436      	0x3436544c465f
     af2:	445f 4749 5f5f      	0x5f5f4749445f
     af8:	3120                	fld	fs0,96(a0)
     afa:	0035                	c.nop	13
     afc:	5f5f 4146 5453      	0x545341465f5f
     b02:	00203233          	snez	tp,sp
     b06:	5f5f 5441 4d4f      	0x4d4f54415f5f
     b0c:	4349                	li	t1,18
     b0e:	525f 4c45 5841      	0x58414c45525f
     b14:	4445                	li	s0,17
     b16:	3020                	fld	fs0,96(s0)
     b18:	5f00                	lw	s0,56(a4)
     b1a:	495f 544e 4c5f      	0x4c5f544e495f
     b20:	4145                	li	sp,17
     b22:	32335453          	0x32335453
     b26:	545f 5059 5f45      	0x5f455059545f
     b2c:	205f 6f6c 676e      	0x676e6f6c205f
     b32:	6920                	flw	fs0,80(a0)
     b34:	746e                	flw	fs0,248(sp)
     b36:	5500                	lw	s0,40(a0)
     b38:	4e49                	li	t3,18
     b3a:	5f54                	lw	a3,60(a4)
     b3c:	454c                	lw	a1,12(a0)
     b3e:	5341                	li	t1,-16
     b40:	3654                	fld	fa3,168(a2)
     b42:	5f34                	lw	a3,120(a4)
     b44:	414d                	li	sp,19
     b46:	2058                	fld	fa4,128(s0)
     b48:	5f28                	lw	a0,120(a4)
     b4a:	555f 4e49 5f54      	0x5f544e49555f
     b50:	454c                	lw	a1,12(a0)
     b52:	5341                	li	t1,-16
     b54:	3654                	fld	fa3,168(a2)
     b56:	5f34                	lw	a3,120(a4)
     b58:	414d                	li	sp,19
     b5a:	5f58                	lw	a4,60(a4)
     b5c:	295f 5f00 535f      	0x535f5f00295f
     b62:	5a49                	li	s4,-14
     b64:	5f45                	li	t5,-15
     b66:	414d                	li	sp,19
     b68:	5f58                	lw	a4,60(a4)
     b6a:	205f 7830 6666      	0x66667830205f
     b70:	6666                	flw	fa2,88(sp)
     b72:	6666                	flw	fa2,88(sp)
     b74:	6666                	flw	fa2,88(sp)
     b76:	0055                	c.nop	21
     b78:	555f 4e49 3354      	0x33544e49555f
     b7e:	5f32                	lw	t5,44(sp)
     b80:	5f54                	lw	a3,60(a4)
     b82:	4544                	lw	s1,12(a0)
     b84:	52414c43          	fmadd.d	fs8,ft2,ft4,fa0,rmm
     b88:	4445                	li	s0,17
     b8a:	0020                	addi	s0,sp,8
     b8c:	5f5f 4556 5352      	0x535245565f5f
     b92:	4f49                	li	t5,18
     b94:	5f4e                	lw	t5,240(sp)
     b96:	205f 3822 322e      	0x322e3822205f
     b9c:	302e                	fld	ft0,232(sp)
     b9e:	0022                	c.slli	zero,0x8
     ba0:	5f74756f          	jal	a0,48996 <__stack_size+0x46996>
     ba4:	616d                	addi	sp,sp,240
     ba6:	5f006b73          	csrrsi	s6,0x5f0,0
     baa:	4e5f 5745 494c      	0x494c57454e5f
     bb0:	5f42                	lw	t5,48(sp)
     bb2:	494d                	li	s2,19
     bb4:	4f4e                	lw	t5,208(sp)
     bb6:	5f52                	lw	t5,52(sp)
     bb8:	205f 0030 5f5f      	0x5f5f0030205f
     bbe:	4c46                	lw	s8,80(sp)
     bc0:	3154                	fld	fa3,160(a0)
     bc2:	3832                	fld	fa6,296(sp)
     bc4:	485f 5341 495f      	0x495f5341485f
     bca:	464e                	lw	a2,208(sp)
     bcc:	4e49                	li	t3,18
     bce:	5449                	li	s0,-14
     bd0:	5f59                	li	t5,-10
     bd2:	205f 0031 415f      	0x415f0031205f
     bd8:	4654                	lw	a3,12(a2)
     bda:	4c49                	li	s8,18
     bdc:	5f45                	li	t5,-15
     bde:	52554f53          	0x52554f53
     be2:	41004543          	fmadd.s	fa0,ft0,fa6,fs0,rmm
     be6:	6270                	flw	fa2,68(a2)
     be8:	6954                	flw	fa3,20(a0)
     bea:	656d                	lui	a0,0x1b
     bec:	0072                	c.slli	zero,0x1c
     bee:	555f 4e49 3854      	0x38544e49555f
     bf4:	545f 445f 4345      	0x4345445f545f
     bfa:	414c                	lw	a1,4(a0)
     bfc:	4552                	lw	a0,20(sp)
     bfe:	2044                	fld	fs1,128(s0)
     c00:	5f00                	lw	s0,56(a4)
     c02:	495f 544e 465f      	0x465f544e495f
     c08:	5341                	li	t1,-16
     c0a:	3654                	fld	fa3,168(a2)
     c0c:	5f34                	lw	a3,120(a4)
     c0e:	5954                	lw	a3,52(a0)
     c10:	4550                	lw	a2,12(a0)
     c12:	5f5f 6c20 6e6f      	0x6e6f6c205f5f
     c18:	6f6c2067          	0x6f6c2067
     c1c:	676e                	flw	fa4,216(sp)
     c1e:	6920                	flw	fs0,80(a0)
     c20:	746e                	flw	fs0,248(sp)
     c22:	5f00                	lw	s0,56(a4)
     c24:	495f 544e 5f38      	0x5f38544e495f
     c2a:	29632843          	fmadd.s	fa6,ft6,fs6,ft5,rdn
     c2e:	6320                	flw	fs0,64(a4)
     c30:	5f00                	lw	s0,56(a4)
     c32:	5441                	li	s0,-16
     c34:	4946                	lw	s2,80(sp)
     c36:	454c                	lw	a1,12(a0)
     c38:	535f 554f 4352      	0x4352554f535f
     c3e:	2045                	jal	cde <main+0x1ee>
     c40:	0031                	c.nop	12
     c42:	5f5f 4e49 5f54      	0x5f544e495f5f
     c48:	454c                	lw	a1,12(a0)
     c4a:	5341                	li	t1,-16
     c4c:	3154                	fld	fa3,160(a0)
     c4e:	5f36                	lw	t5,108(sp)
     c50:	54444957          	0x54444957
     c54:	5f48                	lw	a0,60(a4)
     c56:	205f 3631 4100      	0x41003631205f
     c5c:	6270                	flw	fa2,68(a2)
     c5e:	6954                	flw	fa3,20(a0)
     c60:	656d                	lui	a0,0x1b
     c62:	4872                	lw	a6,28(sp)
     c64:	0064                	addi	s1,sp,12
     c66:	5f5f 6168 6576      	0x657661685f5f
     c6c:	6c5f 6e6f 6c67      	0x6c676e6f6c5f
     c72:	36676e6f          	jal	t3,76fd8 <__stack_size+0x74fd8>
     c76:	2034                	fld	fa3,64(s0)
     c78:	0031                	c.nop	12
     c7a:	495f 544e 3233      	0x3233544e495f
     c80:	455f 5f51 4f4c      	0x4f4c5f51455f
     c86:	474e                	lw	a4,208(sp)
     c88:	0020                	addi	s0,sp,8
     c8a:	6e69                	lui	t3,0x1a
     c8c:	2074                	fld	fa3,192(s0)
     c8e:	5f00322b          	0x5f00322b
     c92:	555f 4e49 5054      	0x50544e49555f
     c98:	5254                	lw	a3,36(a2)
     c9a:	545f 5059 5f45      	0x5f455059545f
     ca0:	205f 6e75 6973      	0x69736e75205f
     ca6:	64656e67          	0x64656e67
     caa:	6920                	flw	fs0,80(a0)
     cac:	746e                	flw	fs0,248(sp)
     cae:	4300                	lw	s0,0(a4)
     cb0:	5041                	c.li	zero,-16
     cb2:	4e5f 4745 455f      	0x455f47454e5f
     cb8:	4744                	lw	s1,12(a4)
     cba:	2045                	jal	d5a <main+0x26a>
     cbc:	7830                	flw	fa2,112(s0)
     cbe:	3130                	fld	fa2,96(a0)
     cc0:	5f00                	lw	s0,56(a4)
     cc2:	465f 544c 3233      	0x3233544c465f
     cc8:	485f 5341 445f      	0x445f5341485f
     cce:	4e45                	li	t3,17
     cd0:	5f4d524f          	fnmadd.q	ft4,fs10,fs4,fa1,unknown
     cd4:	205f 0031 535f      	0x535f0031205f
     cda:	5359                	li	t1,-10
     cdc:	5f5f 5453 4944      	0x494454535f5f
     ce2:	544e                	lw	s0,240(sp)
     ce4:	485f 0020 5f5f      	0x5f5f0020485f
     cea:	7061                	c.lui	zero,0xffff8
     cec:	5f62                	lw	t5,56(sp)
     cee:	6974                	flw	fa3,84(a0)
     cf0:	656d                	lui	a0,0x1b
     cf2:	5f72                	lw	t5,60(sp)
     cf4:	5f746567          	0x5f746567
     cf8:	28746e63          	bltu	s0,t2,f94 <plic_enable_interrupt+0x9c>
     cfc:	6974                	flw	fa3,84(a0)
     cfe:	656d                	lui	a0,0x1b
     d00:	2972                	fld	fs2,280(sp)
     d02:	2820                	fld	fs0,80(s0)
     d04:	7428                	flw	fa0,104(s0)
     d06:	6d69                	lui	s10,0x1a
     d08:	7265                	lui	tp,0xffff9
     d0a:	2d29                	jal	1324 <apb_timer_enable_itr+0x14>
     d0c:	683e                	flw	fa6,204(sp)
     d0e:	7261                	lui	tp,0xffff8
     d10:	7764                	flw	fs1,108(a4)
     d12:	7261                	lui	tp,0xffff8
     d14:	2d65                	jal	13cc <_data_lma+0x1c>
     d16:	633e                	flw	ft6,204(sp)
     d18:	746e756f          	jal	a0,e845e <__stack_size+0xe645e>
     d1c:	0029                	c.nop	10
     d1e:	5f5f 4c46 3654      	0x36544c465f5f
     d24:	5834                	lw	a3,112(s0)
     d26:	4d5f 4e49 455f      	0x455f4e494d5f
     d2c:	5058                	lw	a4,36(s0)
     d2e:	5f5f 2820 312d      	0x312d28205f5f
     d34:	3336                	fld	ft6,360(sp)
     d36:	3138                	fld	fa4,96(a0)
     d38:	0029                	c.nop	10
     d3a:	5f5f 4e49 5f54      	0x5f544e495f5f
     d40:	4146                	lw	sp,80(sp)
     d42:	34365453          	0x34365453
     d46:	4d5f 5841 5f5f      	0x5f5f58414d5f
     d4c:	3020                	fld	fs0,96(s0)
     d4e:	3778                	fld	fa4,232(a4)
     d50:	6666                	flw	fa2,88(sp)
     d52:	6666                	flw	fa2,88(sp)
     d54:	6666                	flw	fa2,88(sp)
     d56:	6666                	flw	fa2,88(sp)
     d58:	6666                	flw	fa2,88(sp)
     d5a:	6666                	flw	fa2,88(sp)
     d5c:	6666                	flw	fa2,88(sp)
     d5e:	4c66                	lw	s8,88(sp)
     d60:	004c                	addi	a1,sp,4
     d62:	5f5f 5353 5f50      	0x5f5053535f5f
     d68:	4f46                	lw	t5,80(sp)
     d6a:	5452                	lw	s0,52(sp)
     d6c:	4649                	li	a2,18
     d6e:	5f59                	li	t5,-10
     d70:	454c                	lw	a1,12(a0)
     d72:	4556                	lw	a0,84(sp)
     d74:	204c                	fld	fa1,128(s0)
     d76:	0030                	addi	a2,sp,8
     d78:	5f5f 4c46 5f54      	0x5f544c465f5f
     d7e:	4944                	lw	s1,20(a0)
     d80:	205f5f47          	fmsub.s	ft10,ft10,ft5,ft4,unknown
     d84:	0036                	c.slli	zero,0xd
     d86:	5f504143          	fmadd.q	ft2,ft0,fs5,fa1,rmm
     d8a:	5f4c4553          	0x5f4c4553
     d8e:	314e4843          	fmadd.s	fa6,ft8,fs4,ft6,rmm
     d92:	3020                	fld	fs0,96(s0)
     d94:	3078                	fld	fa4,224(s0)
     d96:	0030                	addi	a2,sp,8
     d98:	6f6c                	flw	fa1,92(a4)
     d9a:	676e                	flw	fa4,216(sp)
     d9c:	4900                	lw	s0,16(a0)
     d9e:	544e                	lw	s0,240(sp)
     da0:	465f 5341 3354      	0x33545341465f
     da6:	5f32                	lw	t5,44(sp)
     da8:	494d                	li	s2,19
     daa:	204e                	fld	ft0,208(sp)
     dac:	2d28                	fld	fa0,88(a0)
     dae:	5f5f 4e49 5f54      	0x5f544e495f5f
     db4:	4146                	lw	sp,80(sp)
     db6:	32335453          	0x32335453
     dba:	4d5f 5841 5f5f      	0x5f5f58414d5f
     dc0:	2d20                	fld	fs0,88(a0)
     dc2:	3120                	fld	fs0,96(a0)
     dc4:	0029                	c.nop	10
     dc6:	5f5f 4544 3343      	0x334345445f5f
     dcc:	5f32                	lw	t5,44(sp)
     dce:	494d                	li	s2,19
     dd0:	5f4e                	lw	t5,240(sp)
     dd2:	205f 4531 392d      	0x392d4531205f
     dd8:	4435                	li	s0,13
     dda:	0046                	c.slli	zero,0x11
     ddc:	6e756f63          	bltu	a0,t2,14da <_data_lma+0x12a>
     de0:	0074                	addi	a3,sp,12
     de2:	5f5f 4c46 3654      	0x36544c465f5f
     de8:	5f34                	lw	a3,120(a4)
     dea:	5045                	c.li	zero,-15
     dec:	4f4c4953          	0x4f4c4953
     df0:	5f4e                	lw	t5,240(sp)
     df2:	205f 2e32 3232      	0x32322e32205f
     df8:	3430                	fld	fa2,104(s0)
     dfa:	3634                	fld	fa3,104(a2)
     dfc:	3430                	fld	fa2,104(s0)
     dfe:	3239                	jal	70c <_start-0xf4>
     e00:	3035                	jal	62c <_start-0x1d4>
     e02:	30333133          	0x30333133
     e06:	3038                	fld	fa4,96(s0)
     e08:	3438                	fld	fa4,104(s0)
     e0a:	33363237          	lui	tp,0x33363
     e0e:	31363333          	0x31363333
     e12:	3138                	fld	fa4,96(a0)
     e14:	3436                	fld	fs0,360(sp)
     e16:	3630                	fld	fa2,104(a2)
     e18:	6532                	flw	fa0,12(sp)
     e1a:	312d                	jal	a44 <tube_scan_disp+0x8>
     e1c:	4636                	lw	a2,76(sp)
     e1e:	3436                	fld	fs0,360(sp)
     e20:	5f00                	lw	s0,56(a4)
     e22:	465f 544c 3231      	0x3231544c465f
     e28:	5f38                	lw	a4,120(a4)
     e2a:	494d                	li	s2,19
     e2c:	5f4e                	lw	t5,240(sp)
     e2e:	5845                	li	a6,-15
     e30:	5f50                	lw	a2,60(a4)
     e32:	205f 2d28 3631      	0x36312d28205f
     e38:	29313833          	0x29313833
     e3c:	5f00                	lw	s0,56(a4)
     e3e:	505f 5254 4944      	0x49445254505f
     e44:	4646                	lw	a2,80(sp)
     e46:	4d5f 5841 5f5f      	0x5f5f58414d5f
     e4c:	3020                	fld	fs0,96(s0)
     e4e:	3778                	fld	fa4,232(a4)
     e50:	6666                	flw	fa2,88(sp)
     e52:	6666                	flw	fa2,88(sp)
     e54:	6666                	flw	fa2,88(sp)
     e56:	0066                	c.slli	zero,0x19
     e58:	5f5f 4c46 3354      	0x33544c465f5f
     e5e:	5f32                	lw	t5,44(sp)
     e60:	4148                	lw	a0,4(a0)
     e62:	55515f53          	0x55515f53
     e66:	4549                	li	a0,18
     e68:	5f54                	lw	a3,60(a4)
     e6a:	414e                	lw	sp,208(sp)
     e6c:	5f4e                	lw	t5,240(sp)
     e6e:	205f 0031 4955      	0x49550031205f
     e74:	544e                	lw	s0,240(sp)
     e76:	4d5f3233          	0x4d5f3233
     e7a:	5841                	li	a6,-16
     e7c:	2820                	fld	fs0,80(s0)
     e7e:	5f5f 4955 544e      	0x544e49555f5f
     e84:	4d5f3233          	0x4d5f3233
     e88:	5841                	li	a6,-16
     e8a:	5f5f 0029 5f5f      	0x5f5f00295f5f
     e90:	4955                	li	s2,21
     e92:	544e                	lw	s0,240(sp)
     e94:	4c5f 4145 5453      	0x545341454c5f
     e9a:	3631                	jal	9a6 <ext_irq_handler+0x16>
     e9c:	4d5f 5841 5f5f      	0x5f5f58414d5f
     ea2:	3020                	fld	fs0,96(s0)
     ea4:	6678                	flw	fa4,76(a2)
     ea6:	6666                	flw	fa2,88(sp)
     ea8:	0066                	c.slli	zero,0x19
     eaa:	5f5f 4c46 3354      	0x33544c465f5f
     eb0:	5f32                	lw	t5,44(sp)
     eb2:	4544                	lw	s1,12(a0)
     eb4:	414d4943          	fmadd.s	fs2,fs10,fs4,fs0,rmm
     eb8:	5f4c                	lw	a1,60(a4)
     eba:	4944                	lw	s1,20(a0)
     ebc:	205f5f47          	fmsub.s	ft10,ft10,ft5,ft4,unknown
     ec0:	0039                	c.nop	14
     ec2:	5f5f 4955 544e      	0x544e49555f5f
     ec8:	465f 5341 3654      	0x36545341465f
     ece:	5f34                	lw	a3,120(a4)
     ed0:	5954                	lw	a3,52(a0)
     ed2:	4550                	lw	a2,12(a0)
     ed4:	5f5f 6c20 6e6f      	0x6e6f6c205f5f
     eda:	6f6c2067          	0x6f6c2067
     ede:	676e                	flw	fa4,216(sp)
     ee0:	7520                	flw	fs0,104(a0)
     ee2:	736e                	flw	ft6,248(sp)
     ee4:	6769                	lui	a4,0x1a
     ee6:	656e                	flw	fa0,216(sp)
     ee8:	2064                	fld	fs1,192(s0)
     eea:	6e69                	lui	t3,0x1a
     eec:	0074                	addi	a3,sp,12
     eee:	535f 5359 465f      	0x465f5359535f
     ef4:	4145                	li	sp,17
     ef6:	5554                	lw	a3,44(a0)
     ef8:	4552                	lw	a0,20(sp)
     efa:	20485f53          	0x20485f53
     efe:	5f00                	lw	s0,56(a4)
     f00:	555f 4e49 5f54      	0x5f544e49555f
     f06:	454c                	lw	a1,12(a0)
     f08:	5341                	li	t1,-16
     f0a:	3854                	fld	fa3,176(s0)
     f0c:	4d5f 5841 5f5f      	0x5f5f58414d5f
     f12:	3020                	fld	fs0,96(s0)
     f14:	6678                	flw	fa4,76(a2)
     f16:	0066                	c.slli	zero,0x19
     f18:	5f5f 4544 3143      	0x314345445f5f
     f1e:	3832                	fld	fa6,296(sp)
     f20:	4d5f 4e49 455f      	0x455f4e494d5f
     f26:	5058                	lw	a4,36(s0)
     f28:	5f5f 2820 362d      	0x362d28205f5f
     f2e:	3431                	jal	93a <asynchronous_return+0x36>
     f30:	2932                	fld	fs2,264(sp)
     f32:	5400                	lw	s0,40(s0)
     f34:	4d49                	li	s10,18
     f36:	5245                	li	tp,-15
     f38:	5f30                	lw	a2,120(a4)
     f3a:	5350                	lw	a2,36(a4)
     f3c:	35362043          	0x35362043
     f40:	5f00                	lw	s0,56(a4)
     f42:	415f 4250 545f      	0x545f4250415f
     f48:	4d49                	li	s10,18
     f4a:	5245                	li	tp,-15
     f4c:	485f 0020 5f5f      	0x5f5f0020485f
     f52:	41484357          	0x41484357
     f56:	5f52                	lw	t5,52(sp)
     f58:	5954                	lw	a3,52(a0)
     f5a:	4550                	lw	a2,12(a0)
     f5c:	5f5f 6920 746e      	0x746e69205f5f
     f62:	5f00                	lw	s0,56(a4)
     f64:	495f 544e 5f38      	0x5f38544e495f
     f6a:	414d                	li	sp,19
     f6c:	5f58                	lw	a4,60(a4)
     f6e:	205f 7830 6637      	0x66377830205f
     f74:	5f00                	lw	s0,56(a4)
     f76:	445f 4345 3231      	0x32314345445f
     f7c:	5f38                	lw	a4,120(a4)
     f7e:	5045                	c.li	zero,-15
     f80:	4f4c4953          	0x4f4c4953
     f84:	5f4e                	lw	t5,240(sp)
     f86:	205f 4531 332d      	0x332d4531205f
     f8c:	004c4433          	xor	s0,s8,tp
     f90:	5f6e6863          	bltu	t3,s6,1580 <_data_lma+0x1d0>
     f94:	6468                	flw	fa0,76(s0)
     f96:	5f00                	lw	s0,56(a4)
     f98:	4c5f 4145 5453      	0x545341454c5f
     f9e:	3631                	jal	aaa <tube_scan_disp+0x6e>
     fa0:	2220                	fld	fs0,64(a2)
     fa2:	2268                	fld	fa0,192(a2)
     fa4:	5f00                	lw	s0,56(a4)
     fa6:	465f 544c 3231      	0x3231544c465f
     fac:	5f38                	lw	a4,120(a4)
     fae:	414d                	li	sp,19
     fb0:	5f58                	lw	a4,60(a4)
     fb2:	5845                	li	a6,-15
     fb4:	5f50                	lw	a2,60(a4)
     fb6:	205f 3631 3833      	0x38333631205f
     fbc:	0034                	addi	a3,sp,8
     fbe:	5f5f 4955 544e      	0x544e49555f5f
     fc4:	4c5f 4145 5453      	0x545341454c5f
     fca:	3436                	fld	fs0,360(sp)
     fcc:	4d5f 5841 5f5f      	0x5f5f58414d5f
     fd2:	3020                	fld	fs0,96(s0)
     fd4:	6678                	flw	fa4,76(a2)
     fd6:	6666                	flw	fa2,88(sp)
     fd8:	6666                	flw	fa2,88(sp)
     fda:	6666                	flw	fa2,88(sp)
     fdc:	6666                	flw	fa2,88(sp)
     fde:	6666                	flw	fa2,88(sp)
     fe0:	6666                	flw	fa2,88(sp)
     fe2:	6666                	flw	fa2,88(sp)
     fe4:	5566                	lw	a0,120(sp)
     fe6:	4c4c                	lw	a1,28(s0)
     fe8:	5f00                	lw	s0,56(a4)
     fea:	465f 544c 525f      	0x525f544c465f
     ff0:	4441                	li	s0,16
     ff2:	5849                	li	a6,-14
     ff4:	5f5f 3220 5f00      	0x5f0032205f5f
     ffa:	465f 544c 3233      	0x3233544c465f
    1000:	5f58                	lw	a4,60(a4)
    1002:	4544                	lw	s1,12(a0)
    1004:	4f4e                	lw	t5,208(sp)
    1006:	4d52                	lw	s10,20(sp)
    1008:	4d5f 4e49 5f5f      	0x5f5f4e494d5f
    100e:	3420                	fld	fs0,104(s0)
    1010:	392e                	fld	fs2,232(sp)
    1012:	3034                	fld	fa3,96(s0)
    1014:	3536                	fld	fa0,360(sp)
    1016:	3436                	fld	fs0,360(sp)
    1018:	3835                	jal	854 <_start+0x54>
    101a:	3134                	fld	fa3,96(a0)
    101c:	3432                	fld	fs0,296(sp)
    101e:	3536                	fld	fa0,360(sp)
    1020:	3434                	fld	fa3,104(s0)
    1022:	3731                	jal	f2e <plic_enable_interrupt+0x36>
    1024:	3536                	fld	fa0,360(sp)
    1026:	3836                	fld	fa6,360(sp)
    1028:	38323937          	lui	s2,0x38323
    102c:	3836                	fld	fa6,360(sp)
    102e:	3232                	fld	ft4,296(sp)
    1030:	3331                	jal	d3c <main+0x24c>
    1032:	2d653237          	lui	tp,0x2d653
    1036:	46343233          	0x46343233
    103a:	00783233          	sltu	tp,a6,t2
    103e:	5f5f 4953 455a      	0x455a49535f5f
    1044:	4c5f464f          	0x4c5f464f
    1048:	5f474e4f          	fnmadd.q	ft8,fa4,fs4,fa1,rmm
    104c:	4f44                	lw	s1,28(a4)
    104e:	4255                	li	tp,21
    1050:	454c                	lw	a1,12(a0)
    1052:	5f5f 3120 0036      	0x3631205f5f
    1058:	5f5f 4244 5f4c      	0x5f4c42445f5f
    105e:	4148                	lw	a0,4(a0)
    1060:	55515f53          	0x55515f53
    1064:	4549                	li	a0,18
    1066:	5f54                	lw	a3,60(a4)
    1068:	414e                	lw	sp,208(sp)
    106a:	5f4e                	lw	t5,240(sp)
    106c:	205f 0031 5449      	0x54490031205f
    1072:	5f52                	lw	t5,52(sp)
    1074:	4e49                	li	t3,18
    1076:	5550                	lw	a2,44(a0)
    1078:	5f54                	lw	a3,60(a4)
    107a:	5f504143          	fmadd.q	ft2,ft0,fs5,fa1,rmm
    107e:	304e4843          	fmadd.s	fa6,ft8,ft4,ft6,rmm
    1082:	4d5f 5341 204b      	0x204b53414d5f
    1088:	7830                	flw	fa2,112(s0)
    108a:	3230                	fld	fa2,96(a2)
    108c:	5f00                	lw	s0,56(a4)
    108e:	755f 6e69 3174      	0x31746e69755f
    1094:	5f36                	lw	t5,108(sp)
    1096:	0074                	addi	a3,sp,12
    1098:	5f5f 4e49 5f54      	0x5f544e495f5f
    109e:	4146                	lw	sp,80(sp)
    10a0:	5f385453          	0x5f385453
    10a4:	5954                	lw	a3,52(a0)
    10a6:	4550                	lw	a2,12(a0)
    10a8:	5f5f 6920 746e      	0x746e69205f5f
    10ae:	5f00                	lw	s0,56(a4)
    10b0:	465f 544c 3436      	0x3436544c465f
    10b6:	485f 5341 495f      	0x495f5341485f
    10bc:	464e                	lw	a2,208(sp)
    10be:	4e49                	li	t3,18
    10c0:	5449                	li	s0,-14
    10c2:	5f59                	li	t5,-10
    10c4:	205f 0031 5f5f      	0x5f5f0031205f
    10ca:	444c                	lw	a1,12(s0)
    10cc:	4c42                	lw	s8,16(sp)
    10ce:	4d5f 5841 455f      	0x455f58414d5f
    10d4:	5058                	lw	a4,36(s0)
    10d6:	5f5f 3120 3336      	0x333631205f5f
    10dc:	3438                	fld	fa4,104(s0)
    10de:	7200                	flw	fs0,32(a2)
    10e0:	6165                	addi	sp,sp,112
    10e2:	5f64                	lw	s1,124(a4)
    10e4:	28727363          	bgeu	tp,t2,136a <apb_timer_get_itr_status+0x1a>
    10e8:	6572                	flw	fa0,28(sp)
    10ea:	28202967          	0x28202967
    10ee:	6e75207b          	0x6e75207b
    10f2:	6e676973          	csrrsi	s2,0x6e6,14
    10f6:	6465                	lui	s0,0x19
    10f8:	6c20                	flw	fs0,88(s0)
    10fa:	20676e6f          	jal	t3,77300 <__stack_size+0x75300>
    10fe:	5f5f 6d74 3b70      	0x3b706d745f5f
    1104:	6120                	flw	fs0,64(a0)
    1106:	76206d73          	csrrsi	s10,0x762,0
    110a:	74616c6f          	jal	s8,17850 <__stack_size+0x15850>
    110e:	6c69                	lui	s8,0x1a
    1110:	2065                	jal	11b8 <init_apb_timer+0x2c>
    1112:	2228                	fld	fa0,64(a2)
    1114:	72727363          	bgeu	tp,t2,183a <_data_lma+0x48a>
    1118:	2520                	fld	fs0,72(a0)
    111a:	2c30                	fld	fa2,88(s0)
    111c:	2220                	fld	fs0,64(a2)
    111e:	2320                	fld	fs0,64(a4)
    1120:	6572                	flw	fa0,28(sp)
    1122:	203a2067          	0x203a2067
    1126:	3d22                	fld	fs10,40(sp)
    1128:	2272                	fld	ft4,280(sp)
    112a:	5f28                	lw	a0,120(a4)
    112c:	745f 706d 2929      	0x2929706d745f
    1132:	5f5f203b          	0x5f5f203b
    1136:	6d74                	flw	fa3,92(a0)
    1138:	3b70                	fld	fa2,240(a4)
    113a:	7d20                	flw	fs0,120(a0)
    113c:	0029                	c.nop	10
    113e:	6c727463          	bgeu	tp,t2,1806 <_data_lma+0x456>
    1142:	5f00                	lw	s0,56(a4)
    1144:	445f 4345 3436      	0x34364345445f
    114a:	4d5f 5841 5f5f      	0x5f5f58414d5f
    1150:	3920                	fld	fs0,112(a0)
    1152:	392e                	fld	fs2,232(sp)
    1154:	3939                	jal	d72 <main+0x282>
    1156:	3939                	jal	d74 <main+0x284>
    1158:	3939                	jal	d76 <main+0x286>
    115a:	3939                	jal	d78 <main+0x288>
    115c:	3939                	jal	d7a <main+0x28a>
    115e:	3939                	jal	d7c <main+0x28c>
    1160:	3939                	jal	d7e <main+0x28e>
    1162:	3345                	jal	f02 <plic_enable_interrupt+0xa>
    1164:	3438                	fld	fa4,104(s0)
    1166:	4444                	lw	s1,12(s0)
    1168:	5f00                	lw	s0,56(a4)
    116a:	475f 4343 415f      	0x415f4343475f
    1170:	4f54                	lw	a3,28(a4)
    1172:	494d                	li	s2,19
    1174:	4e495f43          	fmadd.q	ft10,fs2,ft4,fs1,unknown
    1178:	5f54                	lw	a3,60(a4)
    117a:	4f4c                	lw	a1,28(a4)
    117c:	465f4b43          	fmadd.q	fs6,ft10,ft5,fs0,rmm
    1180:	4552                	lw	a0,20(sp)
    1182:	2045                	jal	1222 <init_apb_timer+0x96>
    1184:	0031                	c.nop	12
    1186:	555f 4e49 3654      	0x36544e49555f
    118c:	5f34                	lw	a3,120(a4)
    118e:	5f54                	lw	a3,60(a4)
    1190:	4544                	lw	s1,12(a0)
    1192:	52414c43          	fmadd.d	fs8,ft2,ft4,fa0,rmm
    1196:	4445                	li	s0,17
    1198:	0020                	addi	s0,sp,8
    119a:	4e49                	li	t3,18
    119c:	3154                	fld	fa3,160(a0)
    119e:	5f36                	lw	t5,108(sp)
    11a0:	494d                	li	s2,19
    11a2:	204e                	fld	ft0,208(sp)
    11a4:	2d28                	fld	fa0,88(a0)
    11a6:	5f5f 4e49 3154      	0x31544e495f5f
    11ac:	5f36                	lw	t5,108(sp)
    11ae:	414d                	li	sp,19
    11b0:	5f58                	lw	a4,60(a4)
    11b2:	205f 202d 2931      	0x2931202d205f
    11b8:	5500                	lw	s0,40(a0)
    11ba:	4e49                	li	t3,18
    11bc:	4d54                	lw	a3,28(a0)
    11be:	5841                	li	a6,-16
    11c0:	4d5f 5841 2820      	0x282058414d5f
    11c6:	5f5f 4955 544e      	0x544e49555f5f
    11cc:	414d                	li	sp,19
    11ce:	5f58                	lw	a4,60(a4)
    11d0:	414d                	li	sp,19
    11d2:	5f58                	lw	a4,60(a4)
    11d4:	295f 5500 4e49      	0x4e495500295f
    11da:	3154                	fld	fa3,160(a0)
    11dc:	5f36                	lw	t5,108(sp)
    11de:	414d                	li	sp,19
    11e0:	2058                	fld	fa4,128(s0)
    11e2:	5f28                	lw	a0,120(a4)
    11e4:	555f 4e49 3154      	0x31544e49555f
    11ea:	5f36                	lw	t5,108(sp)
    11ec:	414d                	li	sp,19
    11ee:	5f58                	lw	a4,60(a4)
    11f0:	295f 5f00 495f      	0x495f5f00295f
    11f6:	544e                	lw	s0,240(sp)
    11f8:	4c5f 4145 5453      	0x545341454c5f
    11fe:	3436                	fld	fs0,360(sp)
    1200:	575f 4449 4854      	0x48544449575f
    1206:	5f5f 3620 0034      	0x3436205f5f
    120c:	5f5f 4c46 3654      	0x36544c465f5f
    1212:	5834                	lw	a3,112(s0)
    1214:	4d5f 5841 5f5f      	0x5f5f58414d5f
    121a:	3120                	fld	fs0,96(a0)
    121c:	312e                	fld	ft2,232(sp)
    121e:	3938                	fld	fa4,112(a0)
    1220:	34313337          	lui	t1,0x34313
    1224:	3539                	jal	1032 <plic_claim_interrupt+0x4a>
    1226:	32373533          	0x32373533
    122a:	36373133          	0x36373133
    122e:	3035                	jal	a5a <tube_scan_disp+0x1e>
    1230:	3538                	fld	fa4,104(a0)
    1232:	33393537          	lui	a0,0x33393
    1236:	3632                	fld	fa2,296(sp)
    1238:	3236                	fld	ft4,360(sp)
    123a:	3038                	fld	fa4,96(s0)
    123c:	3730                	fld	fa2,104(a4)
    123e:	3230                	fld	fa2,96(a2)
    1240:	2b65                	jal	17f8 <_data_lma+0x448>
    1242:	3934                	fld	fa3,112(a0)
    1244:	36463233          	0x36463233
    1248:	7834                	flw	fa3,112(s0)
    124a:	5f00                	lw	s0,56(a4)
    124c:	465f 544c 3436      	0x3436544c465f
    1252:	4d5f 5841 315f      	0x315f58414d5f
    1258:	5f30                	lw	a2,120(a4)
    125a:	5845                	li	a6,-15
    125c:	5f50                	lw	a2,60(a4)
    125e:	205f 3033 0038      	0x383033205f
    1264:	5f5f 524f 4544      	0x4544524f5f5f
    126a:	5f52                	lw	t5,52(sp)
    126c:	494c                	lw	a1,20(a0)
    126e:	5454                	lw	a3,44(s0)
    1270:	454c                	lw	a1,12(a0)
    1272:	455f 444e 4149      	0x4149444e455f
    1278:	5f4e                	lw	t5,240(sp)
    127a:	205f 3231 3433      	0x34333231205f
    1280:	5f00                	lw	s0,56(a4)
    1282:	535f 5a49 4f45      	0x4f455a49535f
    1288:	5f46                	lw	t5,112(sp)
    128a:	5450                	lw	a2,44(s0)
    128c:	4452                	lw	s0,20(sp)
    128e:	4649                	li	a2,18
    1290:	5f46                	lw	t5,112(sp)
    1292:	5f54                	lw	a3,60(a4)
    1294:	205f 0034 5041      	0x50410034205f
    129a:	5f42                	lw	t5,48(sp)
    129c:	4954                	lw	a3,20(a0)
    129e:	454d                	li	a0,19
    12a0:	5f52                	lw	t5,52(sp)
    12a2:	20334843          	fmadd.s	fa6,ft6,ft3,ft4,rmm
    12a6:	7830                	flw	fa2,112(s0)
    12a8:	3330                	fld	fa2,96(a4)
    12aa:	4900                	lw	s0,16(a0)
    12ac:	544e                	lw	s0,240(sp)
    12ae:	4c5f 4145 5453      	0x545341454c5f
    12b4:	5f38                	lw	a4,120(a4)
    12b6:	494d                	li	s2,19
    12b8:	204e                	fld	ft0,208(sp)
    12ba:	2d28                	fld	fa0,88(a0)
    12bc:	5f5f 4e49 5f54      	0x5f544e495f5f
    12c2:	454c                	lw	a1,12(a0)
    12c4:	5341                	li	t1,-16
    12c6:	3854                	fld	fa3,176(s0)
    12c8:	4d5f 5841 5f5f      	0x5f5f58414d5f
    12ce:	2d20                	fld	fs0,88(a0)
    12d0:	3120                	fld	fs0,96(a0)
    12d2:	0029                	c.nop	10
    12d4:	5f5f 695f 746e      	0x746e695f5f5f
    12da:	3436                	fld	fs0,360(sp)
    12dc:	745f 645f 6665      	0x6665645f745f
    12e2:	6e69                	lui	t3,0x1a
    12e4:	6465                	lui	s0,0x19
    12e6:	3120                	fld	fs0,96(a0)
    12e8:	5f00                	lw	s0,56(a4)
    12ea:	445f 4345 3231      	0x32314345445f
    12f0:	5f38                	lw	a4,120(a4)
    12f2:	414d                	li	sp,19
    12f4:	544e                	lw	s0,240(sp)
    12f6:	445f 4749 5f5f      	0x5f5f4749445f
    12fc:	3320                	fld	fs0,96(a4)
    12fe:	0034                	addi	a3,sp,8
    1300:	4e49                	li	t3,18
    1302:	3154                	fld	fa3,160(a0)
    1304:	5f36                	lw	t5,108(sp)
    1306:	29782843          	fmadd.s	fa6,fa6,fs7,ft5,rdn
    130a:	5f20                	lw	s0,120(a4)
    130c:	495f 544e 3631      	0x3631544e495f
    1312:	435f 7828 0029      	0x297828435f
    1318:	5f5f 4c46 3654      	0x36544c465f5f
    131e:	5834                	lw	a3,112(s0)
    1320:	445f 4749 5f5f      	0x5f5f4749445f
    1326:	3320                	fld	fs0,96(a4)
    1328:	5f5f0033          	0x5f5f0033
    132c:	4c46                	lw	s8,80(sp)
    132e:	3654                	fld	fa3,168(a2)
    1330:	5834                	lw	a3,112(s0)
    1332:	485f 5341 445f      	0x445f5341485f
    1338:	4e45                	li	t3,17
    133a:	5f4d524f          	fnmadd.q	ft4,fs10,fs4,fa1,unknown
    133e:	205f 0031 5f5f      	0x5f5f0031205f
    1344:	4544                	lw	s1,12(a0)
    1346:	5f323343          	fmadd.q	ft6,ft4,fs3,fa1,rup
    134a:	414d                	li	sp,19
    134c:	5f58                	lw	a4,60(a4)
    134e:	5845                	li	a6,-15
    1350:	5f50                	lw	a2,60(a4)
    1352:	205f 3739 6900      	0x69003739205f
    1358:	7274                	flw	fa3,100(a2)
    135a:	675f 6f6c 6162      	0x61626f6c675f
    1360:	006c                	addi	a1,sp,12
    1362:	5f504143          	fmadd.q	ft2,ft0,fs5,fa1,rmm
    1366:	5f4c4553          	0x5f4c4553
    136a:	304e4843          	fmadd.s	fa6,ft8,ft4,ft6,rmm
    136e:	3020                	fld	fs0,96(s0)
    1370:	3078                	fld	fa4,224(s0)
    1372:	0030                	addi	a2,sp,8
    1374:	4e49                	li	t3,18
    1376:	5f54                	lw	a3,60(a4)
    1378:	454c                	lw	a1,12(a0)
    137a:	5341                	li	t1,-16
    137c:	3354                	fld	fa3,160(a4)
    137e:	5f32                	lw	t5,44(sp)
    1380:	414d                	li	sp,19
    1382:	2058                	fld	fa4,128(s0)
    1384:	5f28                	lw	a0,120(a4)
    1386:	495f 544e 4c5f      	0x4c5f544e495f
    138c:	4145                	li	sp,17
    138e:	32335453          	0x32335453
    1392:	4d5f 5841 5f5f      	0x5f5f58414d5f
    1398:	0029                	c.nop	10
    139a:	5f5f 4c46 3654      	0x36544c465f5f
    13a0:	5834                	lw	a3,112(s0)
    13a2:	4d5f 4e49 315f      	0x315f4e494d5f
    13a8:	5f30                	lw	a2,120(a4)
    13aa:	5845                	li	a6,-15
    13ac:	5f50                	lw	a2,60(a4)
    13ae:	205f 2d28 3934      	0x39342d28205f
    13b4:	00293133          	sltu	sp,s2,sp
    13b8:	5f5f 4953 5f47      	0x5f4749535f5f
    13be:	5441                	li	s0,-16
    13c0:	43494d4f          	fnmadd.d	fs10,fs2,fs4,fs0,rmm
    13c4:	4d5f 5841 5f5f      	0x5f5f58414d5f
    13ca:	3020                	fld	fs0,96(s0)
    13cc:	3778                	fld	fa4,232(a4)
    13ce:	6666                	flw	fa2,88(sp)
    13d0:	6666                	flw	fa2,88(sp)
    13d2:	6666                	flw	fa2,88(sp)
    13d4:	0066                	c.slli	zero,0x19
    13d6:	5f5f 4955 544e      	0x544e49555f5f
    13dc:	465f 5341 3854      	0x38545341465f
    13e2:	4d5f 5841 5f5f      	0x5f5f58414d5f
    13e8:	3020                	fld	fs0,96(s0)
    13ea:	6678                	flw	fa4,76(a2)
    13ec:	6666                	flw	fa2,88(sp)
    13ee:	6666                	flw	fa2,88(sp)
    13f0:	6666                	flw	fa2,88(sp)
    13f2:	5566                	lw	a0,120(sp)
    13f4:	5f00                	lw	s0,56(a4)
    13f6:	425f 4453 565f      	0x565f4453425f
    13fc:	5349                	li	t1,-14
    13fe:	4249                	li	tp,18
    1400:	454c                	lw	a1,12(a0)
    1402:	3120                	fld	fs0,96(a0)
    1404:	4900                	lw	s0,16(a0)
    1406:	544e                	lw	s0,240(sp)
    1408:	3631                	jal	f14 <plic_enable_interrupt+0x1c>
    140a:	4d5f 5841 2820      	0x282058414d5f
    1410:	5f5f 4e49 3154      	0x31544e495f5f
    1416:	5f36                	lw	t5,108(sp)
    1418:	414d                	li	sp,19
    141a:	5f58                	lw	a4,60(a4)
    141c:	295f 5f00 465f      	0x465f5f00295f
    1422:	544c                	lw	a1,44(s0)
    1424:	3231                	jal	d30 <main+0x240>
    1426:	5f38                	lw	a4,120(a4)
    1428:	414d                	li	sp,19
    142a:	5f58                	lw	a4,60(a4)
    142c:	3031                	jal	c38 <main+0x148>
    142e:	455f 5058 5f5f      	0x5f5f5058455f
    1434:	3420                	fld	fs0,104(s0)
    1436:	3339                	jal	1144 <apb_gpio_read_pin+0x24>
    1438:	0032                	c.slli	zero,0xc
    143a:	5f5f 4c46 3154      	0x31544c465f5f
    1440:	3832                	fld	fa6,296(sp)
    1442:	4d5f 4e49 5f5f      	0x5f5f4e494d5f
    1448:	3320                	fld	fs0,96(a4)
    144a:	332e                	fld	ft6,232(sp)
    144c:	3236                	fld	ft4,360(sp)
    144e:	3031                	jal	c5a <main+0x16a>
    1450:	33343133          	0x33343133
    1454:	3131                	jal	1060 <plic_complete_interrupt+0x1c>
    1456:	3032                	fld	ft0,296(sp)
    1458:	3339                	jal	1166 <apb_gpio_set_direction+0x1a>
    145a:	3035                	jal	c86 <main+0x196>
    145c:	3236                	fld	ft4,360(sp)
    145e:	3236                	fld	ft4,360(sp)
    1460:	3736                	fld	fa4,360(sp)
    1462:	37313837          	lui	a6,0x37313
    1466:	37313233          	0x37313233
    146a:	3235                	jal	d96 <main+0x2a6>
    146c:	3036                	fld	ft0,360(sp)
    146e:	2d65                	jal	1b26 <_data_lma+0x776>
    1470:	3934                	fld	fa3,112(a0)
    1472:	31463233          	0x31463233
    1476:	3832                	fld	fa6,296(sp)
    1478:	4900                	lw	s0,16(a0)
    147a:	544e                	lw	s0,240(sp)
    147c:	3436                	fld	fs0,360(sp)
    147e:	4d5f 4e49 2820      	0x28204e494d5f
    1484:	5f2d                	li	t5,-21
    1486:	495f 544e 3436      	0x3436544e495f
    148c:	4d5f 5841 5f5f      	0x5f5f58414d5f
    1492:	2d20                	fld	fs0,88(a0)
    1494:	3120                	fld	fs0,96(a0)
    1496:	0029                	c.nop	10
    1498:	5f5f 4c46 3654      	0x36544c465f5f
    149e:	5f34                	lw	a3,120(a4)
    14a0:	494d                	li	s2,19
    14a2:	5f4e                	lw	t5,240(sp)
    14a4:	3031                	jal	cb0 <main+0x1c0>
    14a6:	455f 5058 5f5f      	0x5f5f5058455f
    14ac:	2820                	fld	fs0,80(s0)
    14ae:	332d                	jal	11d8 <init_apb_timer+0x4c>
    14b0:	3730                	fld	fa2,104(a4)
    14b2:	0029                	c.nop	10
    14b4:	5f5f 4e49 5f54      	0x5f544e495f5f
    14ba:	414d                	li	sp,19
    14bc:	5f58                	lw	a4,60(a4)
    14be:	205f 7830 6637      	0x66377830205f
    14c4:	6666                	flw	fa2,88(sp)
    14c6:	6666                	flw	fa2,88(sp)
    14c8:	6666                	flw	fa2,88(sp)
    14ca:	5f00                	lw	s0,56(a4)
    14cc:	4544                	lw	s1,12(a0)
    14ce:	4146                	lw	sp,80(sp)
    14d0:	4c55                	li	s8,21
    14d2:	5f54                	lw	a3,60(a4)
    14d4:	52554f53          	0x52554f53
    14d8:	31204543          	fmadd.s	fa0,ft0,fs2,ft6,rmm
    14dc:	5f00                	lw	s0,56(a4)
    14de:	5f5f 6e69 3374      	0x33746e695f5f
    14e4:	5f32                	lw	t5,44(sp)
    14e6:	5f74                	lw	a3,124(a4)
    14e8:	6564                	flw	fs1,76(a0)
    14ea:	6966                	flw	fs2,88(sp)
    14ec:	656e                	flw	fa0,216(sp)
    14ee:	2064                	fld	fs1,192(s0)
    14f0:	0031                	c.nop	12
    14f2:	5f5f 4e49 5f54      	0x5f544e495f5f
    14f8:	4146                	lw	sp,80(sp)
    14fa:	36315453          	0x36315453
    14fe:	545f 5059 5f45      	0x5f455059545f
    1504:	205f 6e69 0074      	0x746e69205f
    150a:	5f5f 4e49 3854      	0x38544e495f5f
    1510:	2220                	fld	fs0,64(a2)
    1512:	6868                	flw	fa0,84(s0)
    1514:	0022                	c.slli	zero,0x8
    1516:	5f5f 4e47 5f55      	0x5f554e475f5f
    151c:	4956                	lw	s2,84(sp)
    151e:	4c424953          	0x4c424953
    1522:	2045                	jal	15c2 <_data_lma+0x212>
    1524:	0030                	addi	a2,sp,8
    1526:	5f5f 4c46 3154      	0x31544c465f5f
    152c:	3832                	fld	fa6,296(sp)
    152e:	445f 4749 5f5f      	0x5f5f4749445f
    1534:	3320                	fld	fs0,96(a4)
    1536:	5f5f0033          	0x5f5f0033
    153a:	4955                	li	s2,21
    153c:	544e                	lw	s0,240(sp)
    153e:	3631                	jal	104a <plic_complete_interrupt+0x6>
    1540:	545f 5059 5f45      	0x5f455059545f
    1546:	205f 6873 726f      	0x726f6873205f
    154c:	2074                	fld	fa3,192(s0)
    154e:	6e75                	lui	t3,0x1d
    1550:	6e676973          	csrrsi	s2,0x6e6,14
    1554:	6465                	lui	s0,0x19
    1556:	6920                	flw	fs0,80(a0)
    1558:	746e                	flw	fs0,248(sp)
    155a:	5f00                	lw	s0,56(a4)
    155c:	4c5f 4244 5f4c      	0x5f4c42444c5f
    1562:	414d                	li	sp,19
    1564:	5f58                	lw	a4,60(a4)
    1566:	205f 2e31 3831      	0x38312e31205f
    156c:	3739                	jal	147a <_data_lma+0xca>
    156e:	39343133          	0x39343133
    1572:	3335                	jal	129e <init_apb_timer+0x112>
    1574:	3735                	jal	14a0 <_data_lma+0xf0>
    1576:	3332                	fld	ft6,296(sp)
    1578:	3731                	jal	1484 <_data_lma+0xd4>
    157a:	3536                	fld	fa0,360(sp)
    157c:	3830                	fld	fa2,112(s0)
    157e:	3735                	jal	14aa <_data_lma+0xfa>
    1580:	3935                	jal	11bc <init_apb_timer+0x30>
    1582:	36363233          	0x36363233
    1586:	3832                	fld	fa6,296(sp)
    1588:	3030                	fld	fa2,96(s0)
    158a:	65323037          	lui	zero,0x65323
    158e:	3339342b          	0x3339342b
    1592:	4c32                	lw	s8,12(sp)
    1594:	5f00                	lw	s0,56(a4)
    1596:	575f 4843 5241      	0x52414843575f
    159c:	575f 4449 4854      	0x48544449575f
    15a2:	5f5f 3320 0032      	0x3233205f5f
    15a8:	5f5f 4e47 4355      	0x43554e475f5f
    15ae:	535f 4454 5f43      	0x5f434454535f
    15b4:	4e49                	li	t3,18
    15b6:	494c                	lw	a1,20(a0)
    15b8:	454e                	lw	a0,208(sp)
    15ba:	5f5f 3120 4900      	0x490031205f5f
    15c0:	544e                	lw	s0,240(sp)
    15c2:	4c5f 4145 5453      	0x545341454c5f
    15c8:	3631                	jal	10d4 <apb_gpio_init+0x2c>
    15ca:	4d5f 4e49 2820      	0x28204e494d5f
    15d0:	5f2d                	li	t5,-21
    15d2:	495f 544e 4c5f      	0x4c5f544e495f
    15d8:	4145                	li	sp,17
    15da:	36315453          	0x36315453
    15de:	4d5f 5841 5f5f      	0x5f5f58414d5f
    15e4:	2d20                	fld	fs0,88(a0)
    15e6:	3120                	fld	fs0,96(a0)
    15e8:	0029                	c.nop	10
    15ea:	5f5f 4f4c 474e      	0x474e4f4c5f5f
    15f0:	4c5f 4e4f 5f47      	0x5f474e4f4c5f
    15f6:	414d                	li	sp,19
    15f8:	5f58                	lw	a4,60(a4)
    15fa:	205f 7830 6637      	0x66377830205f
    1600:	6666                	flw	fa2,88(sp)
    1602:	6666                	flw	fa2,88(sp)
    1604:	6666                	flw	fa2,88(sp)
    1606:	6666                	flw	fa2,88(sp)
    1608:	6666                	flw	fa2,88(sp)
    160a:	6666                	flw	fa2,88(sp)
    160c:	6666                	flw	fa2,88(sp)
    160e:	4c4c                	lw	a1,28(s0)
    1610:	7400                	flw	fs0,40(s0)
    1612:	6d69                	lui	s10,0x1a
    1614:	7265                	lui	tp,0xffff9
    1616:	5f30                	lw	a2,120(a4)
    1618:	6570                	flw	fa2,76(a0)
    161a:	6972                	flw	fs2,28(sp)
    161c:	655f646f          	jal	s0,f8470 <__stack_size+0xf6470>
    1620:	616c                	flw	fa1,68(a0)
    1622:	7370                	flw	fa2,100(a4)
    1624:	6465                	lui	s0,0x19
    1626:	5f00                	lw	s0,56(a4)
    1628:	495f 544e 3436      	0x3436544e495f
    162e:	545f 5059 5f45      	0x5f455059545f
    1634:	205f 6f6c 676e      	0x676e6f6c205f
    163a:	6c20                	flw	fs0,88(s0)
    163c:	20676e6f          	jal	t3,77842 <__stack_size+0x75842>
    1640:	6e69                	lui	t3,0x1a
    1642:	0074                	addi	a3,sp,12
    1644:	5f5f 4c46 5f54      	0x5f544c465f5f
    164a:	414d                	li	sp,19
    164c:	5f58                	lw	a4,60(a4)
    164e:	3031                	jal	e5a <serr_handler+0xa>
    1650:	455f 5058 5f5f      	0x5f5f5058455f
    1656:	3320                	fld	fs0,96(a4)
    1658:	0038                	addi	a4,sp,8
    165a:	5f5f 444c 4c42      	0x4c42444c5f5f
    1660:	455f 5350 4c49      	0x4c495350455f
    1666:	5f5f4e4f          	fnmadd.q	ft8,ft10,fs5,fa1,rmm
    166a:	3120                	fld	fs0,96(a0)
    166c:	392e                	fld	fs2,232(sp)
    166e:	3532                	fld	fa0,296(sp)
    1670:	3239                	jal	f7e <plic_enable_interrupt+0x86>
    1672:	3939                	jal	1290 <init_apb_timer+0x104>
    1674:	3434                	fld	fa3,104(s0)
    1676:	32373833          	0x32373833
    167a:	35383533          	0x35383533
    167e:	35353033          	0x35353033
    1682:	3739                	jal	1590 <_data_lma+0x1e0>
    1684:	32343937          	lui	s2,0x32343
    1688:	3835                	jal	ec4 <plic_set_threshold+0x2c>
    168a:	3934                	fld	fa3,112(a0)
    168c:	3732                	fld	fa4,296(sp)
    168e:	2d653233          	0x2d653233
    1692:	004c3433          	sltu	s0,s8,tp
    1696:	5f5f 4146 5453      	0x545341465f5f
    169c:	3631                	jal	11a8 <init_apb_timer+0x1c>
    169e:	0020                	addi	s0,sp,8
    16a0:	5f5f 4c46 3354      	0x33544c465f5f
    16a6:	5832                	lw	a6,44(sp)
    16a8:	455f 5350 4c49      	0x4c495350455f
    16ae:	5f5f4e4f          	fnmadd.q	ft8,ft10,fs5,fa1,rmm
    16b2:	3220                	fld	fs0,96(a2)
    16b4:	322e                	fld	ft4,232(sp)
    16b6:	3032                	fld	ft0,296(sp)
    16b8:	3434                	fld	fa3,104(s0)
    16ba:	3036                	fld	ft0,360(sp)
    16bc:	3934                	fld	fa3,112(a0)
    16be:	3532                	fld	fa0,296(sp)
    16c0:	3330                	fld	fa2,96(a4)
    16c2:	3331                	jal	13ce <_data_lma+0x1e>
    16c4:	3830                	fld	fa2,112(s0)
    16c6:	3830                	fld	fa2,112(s0)
    16c8:	3734                	fld	fa3,104(a4)
    16ca:	3632                	fld	fa2,296(sp)
    16cc:	36333333          	0x36333333
    16d0:	3831                	jal	eec <plic_set_threshold+0x54>
    16d2:	3631                	jal	11de <init_apb_timer+0x52>
    16d4:	3034                	fld	fa3,96(s0)
    16d6:	3236                	fld	ft4,360(sp)
    16d8:	2d65                	jal	1d90 <_data_lma+0x9e0>
    16da:	3631                	jal	11e6 <init_apb_timer+0x5a>
    16dc:	3346                	fld	ft6,112(sp)
    16de:	7832                	flw	fa6,44(sp)
    16e0:	4700                	lw	s0,8(a4)
    16e2:	4950                	lw	a2,20(a0)
    16e4:	495f304f          	fnmadd.s	ft0,ft10,fs5,fs1,rup
    16e8:	5254                	lw	a3,36(a2)
    16ea:	495f 2044 0031      	0x312044495f
    16f0:	4e49                	li	t3,18
    16f2:	3654                	fld	fa3,168(a2)
    16f4:	5f34                	lw	a3,120(a4)
    16f6:	414d                	li	sp,19
    16f8:	2058                	fld	fa4,128(s0)
    16fa:	5f28                	lw	a0,120(a4)
    16fc:	495f 544e 3436      	0x3436544e495f
    1702:	4d5f 5841 5f5f      	0x5f5f58414d5f
    1708:	0029                	c.nop	10
    170a:	6c66                	flw	fs8,88(sp)
    170c:	6c5f776f          	jal	a4,f95d0 <__stack_size+0xf75d0>
    1710:	6465                	lui	s0,0x19
    1712:	695f 0064 5f5f      	0x5f5f0064695f
    1718:	4f4e                	lw	t5,208(sp)
    171a:	495f 4c4e 4e49      	0x4e494c4e495f
    1720:	5f45                	li	t5,-15
    1722:	205f 0031 5f5f      	0x5f5f0031205f
    1728:	6972                	flw	fs2,28(sp)
    172a:	5f766373          	csrrsi	t1,0x5f7,12
    172e:	6c78                	flw	fa4,92(s0)
    1730:	6e65                	lui	t3,0x19
    1732:	3320                	fld	fs0,96(a4)
    1734:	0032                	c.slli	zero,0xc
    1736:	4e49                	li	t3,18
    1738:	5f54                	lw	a3,60(a4)
    173a:	454c                	lw	a1,12(a0)
    173c:	5341                	li	t1,-16
    173e:	3654                	fld	fa3,168(a2)
    1740:	5f34                	lw	a3,120(a4)
    1742:	414d                	li	sp,19
    1744:	2058                	fld	fa4,128(s0)
    1746:	5f28                	lw	a0,120(a4)
    1748:	495f 544e 4c5f      	0x4c5f544e495f
    174e:	4145                	li	sp,17
    1750:	34365453          	0x34365453
    1754:	4d5f 5841 5f5f      	0x5f5f58414d5f
    175a:	0029                	c.nop	10
    175c:	5f5f 4c46 5f54      	0x5f544c465f5f
    1762:	414d                	li	sp,19
    1764:	544e                	lw	s0,240(sp)
    1766:	445f 4749 5f5f      	0x5f5f4749445f
    176c:	3220                	fld	fs0,96(a2)
    176e:	0034                	addi	a3,sp,8
    1770:	7041                	c.lui	zero,0xffff0
    1772:	4762                	lw	a4,24(sp)
    1774:	4950                	lw	a2,20(a0)
    1776:	0064484f          	fnmadd.s	fa6,fs0,ft6,ft0,rmm
    177a:	5f5f 4c46 3654      	0x36544c465f5f
    1780:	5f34                	lw	a3,120(a4)
    1782:	4544                	lw	s1,12(a0)
    1784:	414d4943          	fmadd.s	fs2,fs10,fs4,fs0,rmm
    1788:	5f4c                	lw	a1,60(a4)
    178a:	4944                	lw	s1,20(a0)
    178c:	205f5f47          	fmsub.s	ft10,ft10,ft5,ft4,unknown
    1790:	3731                	jal	169c <_data_lma+0x2ec>
    1792:	5f00                	lw	s0,56(a4)
    1794:	525f 4745 5349      	0x53494745525f
    179a:	4554                	lw	a3,12(a0)
    179c:	5f52                	lw	t5,52(sp)
    179e:	5250                	lw	a2,36(a2)
    17a0:	4645                	li	a2,17
    17a2:	5849                	li	a6,-14
    17a4:	5f5f 0020 4d43      	0x4d4300205f5f
    17aa:	5f50                	lw	a2,60(a4)
    17ac:	5f4c4553          	0x5f4c4553
    17b0:	324e4843          	fmadd.d	fa6,ft8,ft4,ft6,rmm
    17b4:	3020                	fld	fs0,96(s0)
    17b6:	3078                	fld	fa4,224(s0)
    17b8:	0034                	addi	a3,sp,8
    17ba:	5f5f 4955 544e      	0x544e49555f5f
    17c0:	465f 5341 3154      	0x31545341465f
    17c6:	5f36                	lw	t5,108(sp)
    17c8:	414d                	li	sp,19
    17ca:	5f58                	lw	a4,60(a4)
    17cc:	205f 7830 6666      	0x66667830205f
    17d2:	6666                	flw	fa2,88(sp)
    17d4:	6666                	flw	fa2,88(sp)
    17d6:	6666                	flw	fa2,88(sp)
    17d8:	0055                	c.nop	21
    17da:	5f5f 4955 544e      	0x544e49555f5f
    17e0:	465f 5341 3154      	0x31545341465f
    17e6:	5f36                	lw	t5,108(sp)
    17e8:	5954                	lw	a3,52(a0)
    17ea:	4550                	lw	a2,12(a0)
    17ec:	5f5f 7520 736e      	0x736e75205f5f
    17f2:	6769                	lui	a4,0x1a
    17f4:	656e                	flw	fa0,216(sp)
    17f6:	2064                	fld	fs1,192(s0)
    17f8:	6e69                	lui	t3,0x1a
    17fa:	0074                	addi	a3,sp,12
    17fc:	5f5f 4c46 5f54      	0x5f544c465f5f
    1802:	414d                	li	sp,19
    1804:	5f58                	lw	a4,60(a4)
    1806:	205f 2e33 3034      	0x30342e33205f
    180c:	3832                	fld	fa6,296(sp)
    180e:	3332                	fld	ft6,296(sp)
    1810:	3634                	fld	fa3,104(a2)
    1812:	3336                	fld	ft6,360(sp)
    1814:	3538                	fld	fa4,104(a0)
    1816:	3832                	fld	fa6,296(sp)
    1818:	3538                	fld	fa4,104(a0)
    181a:	3839                	jal	1038 <plic_claim_interrupt+0x50>
    181c:	3131                	jal	1428 <_data_lma+0x78>
    181e:	31343037          	lui	zero,0x31343
    1822:	3338                	fld	fa4,96(a4)
    1824:	3834                	fld	fa3,112(s0)
    1826:	3534                	fld	fa3,104(a0)
    1828:	3631                	jal	1334 <apb_timer_enable_itr+0x24>
    182a:	3239                	jal	1138 <apb_gpio_read_pin+0x18>
    182c:	6535                	lui	a0,0xd
    182e:	4638332b          	0x4638332b
    1832:	5f00                	lw	s0,56(a4)
    1834:	445f 4c42 4d5f      	0x4d5f4c42445f
    183a:	4e49                	li	t3,18
    183c:	315f 5f30 5845      	0x58455f30315f
    1842:	5f50                	lw	a2,60(a4)
    1844:	205f 2d28 3033      	0x30332d28205f
    184a:	5f002937          	lui	s2,0x5f002
    184e:	465f 544c 3233      	0x3233544c465f
    1854:	4d5f 4e49 455f      	0x455f4e494d5f
    185a:	5058                	lw	a4,36(s0)
    185c:	5f5f 2820 312d      	0x312d28205f5f
    1862:	3532                	fld	fa0,296(sp)
    1864:	0029                	c.nop	10
    1866:	5f5f 454e 4c57      	0x4c57454e5f5f
    186c:	4249                	li	tp,18
    186e:	505f 5441 4843      	0x48435441505f
    1874:	454c                	lw	a1,12(a0)
    1876:	4556                	lw	a0,84(sp)
    1878:	5f4c                	lw	a1,60(a4)
    187a:	205f 0030 5f5f      	0x5f5f0030205f
    1880:	5f585847          	fmsub.q	fa6,fa6,fs5,fa1,unknown
    1884:	4241                	li	tp,16
    1886:	5f49                	li	t5,-14
    1888:	4556                	lw	a0,84(sp)
    188a:	5352                	lw	t1,52(sp)
    188c:	4f49                	li	t5,18
    188e:	204e                	fld	ft0,208(sp)
    1890:	3031                	jal	109c <plic_complete_interrupt+0x58>
    1892:	3331                	jal	159e <_data_lma+0x1ee>
    1894:	4300                	lw	s0,0(a4)
    1896:	504d                	c.li	zero,-13
    1898:	535f 4c45 435f      	0x435f4c45535f
    189e:	4e48                	lw	a0,28(a2)
    18a0:	2030                	fld	fa2,64(s0)
    18a2:	7830                	flw	fa2,112(s0)
    18a4:	3130                	fld	fa2,96(a0)
    18a6:	5f00                	lw	s0,56(a4)
    18a8:	4c5f 4244 5f4c      	0x5f4c42444c5f
    18ae:	494d                	li	s2,19
    18b0:	5f4e                	lw	t5,240(sp)
    18b2:	3031                	jal	10be <apb_gpio_init+0x16>
    18b4:	455f 5058 5f5f      	0x5f5f5058455f
    18ba:	2820                	fld	fs0,80(s0)
    18bc:	342d                	jal	12e6 <init_apb_timer+0x15a>
    18be:	3339                	jal	15cc <_data_lma+0x21c>
    18c0:	2931                	jal	1cdc <_data_lma+0x92c>
    18c2:	5f00                	lw	s0,56(a4)
    18c4:	465f 544c 3233      	0x3233544c465f
    18ca:	5f58                	lw	a4,60(a4)
    18cc:	4148                	lw	a0,4(a0)
    18ce:	4e495f53          	0x4e495f53
    18d2:	4946                	lw	s2,80(sp)
    18d4:	494e                	lw	s2,208(sp)
    18d6:	5954                	lw	a3,52(a0)
    18d8:	5f5f 3120 5f00      	0x5f0031205f5f
    18de:	465f 544c 3233      	0x3233544c465f
    18e4:	445f 4749 5f5f      	0x5f5f4749445f
    18ea:	3620                	fld	fs0,104(a2)
    18ec:	5f00                	lw	s0,56(a4)
    18ee:	465f 544c 3436      	0x3436544c465f
    18f4:	485f 5341 445f      	0x445f5341485f
    18fa:	4e45                	li	t3,17
    18fc:	5f4d524f          	fnmadd.q	ft4,fs10,fs4,fa1,unknown
    1900:	205f 0031 5f5f      	0x5f5f0031205f
    1906:	695f 746e 6c5f      	0x6c5f746e695f
    190c:	6165                	addi	sp,sp,112
    190e:	34367473          	csrrci	s0,mtval,12
    1912:	745f 645f 6665      	0x6665645f745f
    1918:	6e69                	lui	t3,0x1a
    191a:	6465                	lui	s0,0x19
    191c:	3120                	fld	fs0,96(a0)
    191e:	5f00                	lw	s0,56(a4)
    1920:	465f 544c 455f      	0x455f544c465f
    1926:	4156                	lw	sp,84(sp)
    1928:	5f4c                	lw	a1,60(a4)
    192a:	454d                	li	a0,19
    192c:	4854                	lw	a3,20(s0)
    192e:	5f5f444f          	fnmadd.q	fs0,ft10,fs5,fa1,rmm
    1932:	3020                	fld	fs0,96(s0)
    1934:	5f00                	lw	s0,56(a4)
    1936:	465f 544c 3233      	0x3233544c465f
    193c:	5f58                	lw	a4,60(a4)
    193e:	4148                	lw	a0,4(a0)
    1940:	45445f53          	0x45445f53
    1944:	4f4e                	lw	t5,208(sp)
    1946:	4d52                	lw	s10,20(sp)
    1948:	5f5f 3120 4300      	0x430031205f5f
    194e:	5550                	lw	a2,44(a0)
    1950:	465f 4552 5f51      	0x5f514552465f
    1956:	484d                	li	a6,19
    1958:	205a                	fld	ft0,400(sp)
    195a:	3528                	fld	fa0,104(a0)
    195c:	2930                	fld	fa2,80(a0)
    195e:	5f00                	lw	s0,56(a4)
    1960:	4e49                	li	t3,18
    1962:	5054                	lw	a3,36(s0)
    1964:	5254                	lw	a3,36(a2)
    1966:	455f 5f51 4e49      	0x4e495f51455f
    196c:	2054                	fld	fa3,128(s0)
    196e:	5f00                	lw	s0,56(a4)
    1970:	495f 544e 4c5f      	0x4c5f544e495f
    1976:	4145                	li	sp,17
    1978:	34365453          	0x34365453
    197c:	4d5f 5841 5f5f      	0x5f5f58414d5f
    1982:	3020                	fld	fs0,96(s0)
    1984:	3778                	fld	fa4,232(a4)
    1986:	6666                	flw	fa2,88(sp)
    1988:	6666                	flw	fa2,88(sp)
    198a:	6666                	flw	fa2,88(sp)
    198c:	6666                	flw	fa2,88(sp)
    198e:	6666                	flw	fa2,88(sp)
    1990:	6666                	flw	fa2,88(sp)
    1992:	6666                	flw	fa2,88(sp)
    1994:	4c66                	lw	s8,88(sp)
    1996:	004c                	addi	a1,sp,4
    1998:	5f5f 4347 5f43      	0x5f4343475f5f
    199e:	5441                	li	s0,-16
    19a0:	43494d4f          	fnmadd.d	fs10,fs2,fs4,fs0,rmm
    19a4:	575f 4843 5241      	0x52414843575f
    19aa:	545f 4c5f 434f      	0x434f4c5f545f
    19b0:	52465f4b          	fnmsub.d	ft10,fa2,ft4,fa0,unknown
    19b4:	4545                	li	a0,17
    19b6:	3120                	fld	fs0,96(a0)
    19b8:	5f00                	lw	s0,56(a4)
    19ba:	445f 4345 3436      	0x34364345445f
    19c0:	4d5f 4e49 455f      	0x455f4e494d5f
    19c6:	5058                	lw	a4,36(s0)
    19c8:	5f5f 2820 332d      	0x332d28205f5f
    19ce:	3238                	fld	fa4,96(a2)
    19d0:	0029                	c.nop	10
    19d2:	5f5f 4244 5f4c      	0x5f4c42445f5f
    19d8:	414d                	li	sp,19
    19da:	5f58                	lw	a4,60(a4)
    19dc:	205f 2828 6f64      	0x6f642828205f
    19e2:	6275                	lui	tp,0x1d
    19e4:	656c                	flw	fa1,76(a0)
    19e6:	3129                	jal	15f0 <_data_lma+0x240>
    19e8:	372e                	fld	fa4,232(sp)
    19ea:	3739                	jal	18f8 <_data_lma+0x548>
    19ec:	3936                	fld	fs2,360(sp)
    19ee:	34333133          	0x34333133
    19f2:	3638                	fld	fa4,104(a2)
    19f4:	3332                	fld	ft6,296(sp)
    19f6:	3531                	jal	1802 <_data_lma+0x452>
    19f8:	31383037          	lui	zero,0x31383
    19fc:	3534                	fld	fa3,104(a0)
    19fe:	3732                	fld	fa4,296(sp)
    1a00:	3234                	fld	fa3,96(a2)
    1a02:	31333733          	0x31333733
    1a06:	33343037          	lui	zero,0x33343
    1a0a:	3735                	jal	1936 <_data_lma+0x586>
    1a0c:	2b65                	jal	1fc4 <_data_lma+0xc14>
    1a0e:	4c383033          	0x4c383033
    1a12:	0029                	c.nop	10
    1a14:	41484357          	0x41484357
    1a18:	5f52                	lw	t5,52(sp)
    1a1a:	414d                	li	sp,19
    1a1c:	2058                	fld	fa4,128(s0)
    1a1e:	5f28                	lw	a0,120(a4)
    1a20:	575f 4843 5241      	0x52414843575f
    1a26:	4d5f 5841 5f5f      	0x5f5f58414d5f
    1a2c:	0029                	c.nop	10
    1a2e:	4955                	li	s2,21
    1a30:	544e                	lw	s0,240(sp)
    1a32:	414d                	li	sp,19
    1a34:	5f58                	lw	a4,60(a4)
    1a36:	29782843          	fmadd.s	fa6,fa6,fs7,ft5,rdn
    1a3a:	5f20                	lw	s0,120(a4)
    1a3c:	555f 4e49 4d54      	0x4d544e49555f
    1a42:	5841                	li	a6,-16
    1a44:	435f 7828 0029      	0x297828435f
    1a4a:	4155                	li	sp,21
    1a4c:	5452                	lw	s0,52(sp)
    1a4e:	5f30                	lw	a2,120(a4)
    1a50:	5449                	li	s0,-14
    1a52:	5f52                	lw	t5,52(sp)
    1a54:	4449                	li	s0,18
    1a56:	3320                	fld	fs0,96(a4)
    1a58:	5f00                	lw	s0,56(a4)
    1a5a:	495f 544e 4c5f      	0x4c5f544e495f
    1a60:	4145                	li	sp,17
    1a62:	5f385453          	0x5f385453
    1a66:	54444957          	0x54444957
    1a6a:	5f48                	lw	a0,60(a4)
    1a6c:	205f 0038 5f5f      	0x5f5f0038205f
    1a72:	4955                	li	s2,21
    1a74:	544e                	lw	s0,240(sp)
    1a76:	5f38                	lw	a4,120(a4)
    1a78:	414d                	li	sp,19
    1a7a:	5f58                	lw	a4,60(a4)
    1a7c:	205f 7830 6666      	0x66667830205f
    1a82:	5f00                	lw	s0,56(a4)
    1a84:	555f 4e49 3154      	0x31544e49555f
    1a8a:	5f36                	lw	t5,108(sp)
    1a8c:	414d                	li	sp,19
    1a8e:	5f58                	lw	a4,60(a4)
    1a90:	205f 7830 6666      	0x66667830205f
    1a96:	6666                	flw	fa2,88(sp)
    1a98:	4900                	lw	s0,16(a0)
    1a9a:	544e                	lw	s0,240(sp)
    1a9c:	4c5f 4145 5453      	0x545341454c5f
    1aa2:	4d5f3233          	0x4d5f3233
    1aa6:	4e49                	li	t3,18
    1aa8:	2820                	fld	fs0,80(s0)
    1aaa:	5f2d                	li	t5,-21
    1aac:	495f 544e 4c5f      	0x4c5f544e495f
    1ab2:	4145                	li	sp,17
    1ab4:	32335453          	0x32335453
    1ab8:	4d5f 5841 5f5f      	0x5f5f58414d5f
    1abe:	2d20                	fld	fs0,88(a0)
    1ac0:	3120                	fld	fs0,96(a0)
    1ac2:	0029                	c.nop	10
    1ac4:	4955                	li	s2,21
    1ac6:	544e                	lw	s0,240(sp)
    1ac8:	3436                	fld	fs0,360(sp)
    1aca:	4d5f 5841 2820      	0x282058414d5f
    1ad0:	5f5f 4955 544e      	0x544e49555f5f
    1ad6:	3436                	fld	fs0,360(sp)
    1ad8:	4d5f 5841 5f5f      	0x5f5f58414d5f
    1ade:	0029                	c.nop	10
    1ae0:	5f5f 695f 746e      	0x746e695f5f5f
    1ae6:	6c5f 6165 7473      	0x747361656c5f
    1aec:	3631                	jal	15f8 <_data_lma+0x248>
    1aee:	745f 645f 6665      	0x6665645f745f
    1af4:	6e69                	lui	t3,0x1a
    1af6:	6465                	lui	s0,0x19
    1af8:	3120                	fld	fs0,96(a0)
    1afa:	5f00                	lw	s0,56(a4)
    1afc:	495f 544e 414d      	0x414d544e495f
    1b02:	5f58                	lw	a4,60(a4)
    1b04:	54444957          	0x54444957
    1b08:	5f48                	lw	a0,60(a4)
    1b0a:	205f 3436 5f00      	0x5f003436205f
    1b10:	445f 4345 3233      	0x32334345445f
    1b16:	4d5f 5841 5f5f      	0x5f5f58414d5f
    1b1c:	3920                	fld	fs0,112(a0)
    1b1e:	392e                	fld	fs2,232(sp)
    1b20:	3939                	jal	173e <_data_lma+0x38e>
    1b22:	3939                	jal	1740 <_data_lma+0x390>
    1b24:	4539                	li	a0,14
    1b26:	3639                	jal	1634 <_data_lma+0x284>
    1b28:	4644                	lw	s1,12(a2)
    1b2a:	5f00                	lw	s0,56(a4)
    1b2c:	475f 4343 495f      	0x495f4343475f
    1b32:	4345                	li	t1,17
    1b34:	355f 3935 3020      	0x30203935355f
    1b3a:	5500                	lw	s0,40(a0)
    1b3c:	4e49                	li	t3,18
    1b3e:	5f54                	lw	a3,60(a4)
    1b40:	454c                	lw	a1,12(a0)
    1b42:	5341                	li	t1,-16
    1b44:	3854                	fld	fa3,176(s0)
    1b46:	4d5f 5841 2820      	0x282058414d5f
    1b4c:	5f5f 4955 544e      	0x544e49555f5f
    1b52:	4c5f 4145 5453      	0x545341454c5f
    1b58:	5f38                	lw	a4,120(a4)
    1b5a:	414d                	li	sp,19
    1b5c:	5f58                	lw	a4,60(a4)
    1b5e:	295f 5f00 495f      	0x495f5f00295f
    1b64:	544e                	lw	s0,240(sp)
    1b66:	4c5f 4145 5453      	0x545341454c5f
    1b6c:	3631                	jal	1678 <_data_lma+0x2c8>
    1b6e:	545f 5059 5f45      	0x5f455059545f
    1b74:	205f 6873 726f      	0x726f6873205f
    1b7a:	2074                	fld	fa3,192(s0)
    1b7c:	6e69                	lui	t3,0x1a
    1b7e:	0074                	addi	a3,sp,12
    1b80:	5f5f 4c46 3354      	0x33544c465f5f
    1b86:	5f32                	lw	t5,44(sp)
    1b88:	414d                	li	sp,19
    1b8a:	5f58                	lw	a4,60(a4)
    1b8c:	5845                	li	a6,-15
    1b8e:	5f50                	lw	a2,60(a4)
    1b90:	205f 3231 0038      	0x383231205f
    1b96:	5f5f 4347 5f43      	0x5f4343475f5f
    1b9c:	5441                	li	s0,-16
    1b9e:	43494d4f          	fnmadd.d	fs10,fs2,fs4,fs0,rmm
    1ba2:	435f 4148 5f52      	0x5f524148435f
    1ba8:	4f4c                	lw	a1,28(a4)
    1baa:	465f4b43          	fmadd.q	fs6,ft10,ft5,fs0,rmm
    1bae:	4552                	lw	a0,20(sp)
    1bb0:	2045                	jal	1c50 <_data_lma+0x8a0>
    1bb2:	0031                	c.nop	12
    1bb4:	5f5f 454c 5341      	0x5341454c5f5f
    1bba:	3354                	fld	fa3,160(a4)
    1bbc:	2032                	fld	ft0,264(sp)
    1bbe:	6c22                	flw	fs8,8(sp)
    1bc0:	0022                	c.slli	zero,0x8
    1bc2:	7041                	c.lui	zero,0xffff0
    1bc4:	5462                	lw	s0,56(sp)
    1bc6:	6d69                	lui	s10,0x1a
    1bc8:	7265                	lui	tp,0xffff9
    1bca:	666e6f43          	fmadd.q	ft10,ft8,ft6,fa2,unknown
    1bce:	6769                	lui	a4,0x1a
    1bd0:	5f00                	lw	s0,56(a4)
    1bd2:	445f 4c42 445f      	0x445f4c42445f
    1bd8:	4749                	li	a4,18
    1bda:	5f5f 3120 0035      	0x3531205f5f
    1be0:	5f5f 695f 746e      	0x746e695f5f5f
    1be6:	6c5f 6165 7473      	0x747361656c5f
    1bec:	745f3233          	0x745f3233
    1bf0:	645f 6665 6e69      	0x6e696665645f
    1bf6:	6465                	lui	s0,0x19
    1bf8:	3120                	fld	fs0,96(a0)
    1bfa:	5f00                	lw	s0,56(a4)
    1bfc:	5f5f 6e69 3174      	0x31746e695f5f
    1c02:	5f36                	lw	t5,108(sp)
    1c04:	5f74                	lw	a3,124(a4)
    1c06:	6564                	flw	fs1,76(a0)
    1c08:	6966                	flw	fs2,88(sp)
    1c0a:	656e                	flw	fa0,216(sp)
    1c0c:	2064                	fld	fs1,192(s0)
    1c0e:	0031                	c.nop	12
    1c10:	5f5f 454c 5341      	0x5341454c5f5f
    1c16:	3654                	fld	fa3,168(a2)
    1c18:	2034                	fld	fa3,64(s0)
    1c1a:	6c22                	flw	fs8,8(sp)
    1c1c:	226c                	fld	fa1,192(a2)
    1c1e:	5f00                	lw	s0,56(a4)
    1c20:	475f 4343 415f      	0x415f4343475f
    1c26:	4f54                	lw	a3,28(a4)
    1c28:	494d                	li	s2,19
    1c2a:	4f4c5f43          	fmadd.q	ft10,fs8,fs4,fs1,unknown
    1c2e:	474e                	lw	a4,208(sp)
    1c30:	4c5f 434f 5f4b      	0x5f4b434f4c5f
    1c36:	5246                	lw	tp,112(sp)
    1c38:	4545                	li	a0,17
    1c3a:	3120                	fld	fs0,96(a0)
    1c3c:	5f00                	lw	s0,56(a4)
    1c3e:	465f 544c 3233      	0x3233544c465f
    1c44:	5f58                	lw	a4,60(a4)
    1c46:	4944                	lw	s1,20(a0)
    1c48:	205f5f47          	fmsub.s	ft10,ft10,ft5,ft4,unknown
    1c4c:	3531                	jal	1a58 <_data_lma+0x6a8>
    1c4e:	5f00                	lw	s0,56(a4)
    1c50:	465f 544c 3233      	0x3233544c465f
    1c56:	5f58                	lw	a4,60(a4)
    1c58:	414d                	li	sp,19
    1c5a:	544e                	lw	s0,240(sp)
    1c5c:	445f 4749 5f5f      	0x5f5f4749445f
    1c62:	3520                	fld	fs0,104(a0)
    1c64:	495f0033          	0x495f0033
    1c68:	544e                	lw	s0,240(sp)
    1c6a:	5450                	lw	a2,44(s0)
    1c6c:	5f52                	lw	t5,52(sp)
    1c6e:	5f54                	lw	a3,60(a4)
    1c70:	4544                	lw	s1,12(a0)
    1c72:	52414c43          	fmadd.d	fs8,ft2,ft4,fa0,rmm
    1c76:	4445                	li	s0,17
    1c78:	0020                	addi	s0,sp,8
    1c7a:	5f5f 6e69 5f74      	0x5f746e695f5f
    1c80:	6166                	flw	ft2,88(sp)
    1c82:	34367473          	csrrci	s0,mtval,12
    1c86:	745f 645f 6665      	0x6665645f745f
    1c8c:	6e69                	lui	t3,0x1a
    1c8e:	6465                	lui	s0,0x19
    1c90:	3120                	fld	fs0,96(a0)
    1c92:	5f00                	lw	s0,56(a4)
    1c94:	585f 4953 565f      	0x565f4953585f
    1c9a:	5349                	li	t1,-14
    1c9c:	4249                	li	tp,18
    1c9e:	454c                	lw	a1,12(a0)
    1ca0:	3020                	fld	fs0,96(s0)
    1ca2:	5500                	lw	s0,40(a0)
    1ca4:	4e49                	li	t3,18
    1ca6:	3154                	fld	fa3,160(a0)
    1ca8:	5f36                	lw	t5,108(sp)
    1caa:	29782843          	fmadd.s	fa6,fa6,fs7,ft5,rdn
    1cae:	5f20                	lw	s0,120(a4)
    1cb0:	555f 4e49 3154      	0x31544e49555f
    1cb6:	5f36                	lw	t5,108(sp)
    1cb8:	29782843          	fmadd.s	fa6,fa6,fs7,ft5,rdn
    1cbc:	5f00                	lw	s0,56(a4)
    1cbe:	495f 544e 465f      	0x465f544e495f
    1cc4:	5341                	li	t1,-16
    1cc6:	3354                	fld	fa3,160(a4)
    1cc8:	5f32                	lw	t5,44(sp)
    1cca:	54444957          	0x54444957
    1cce:	5f48                	lw	a0,60(a4)
    1cd0:	205f 3233 5f00      	0x5f003233205f
    1cd6:	454e                	lw	a0,208(sp)
    1cd8:	42494c57          	0x42494c57
    1cdc:	565f 5245 4953      	0x49535245565f
    1ce2:	22204e4f          	fnmadd.d	ft8,ft0,ft2,ft4,rmm
    1ce6:	2e302e33          	0x2e302e33
    1cea:	2230                	fld	fa2,64(a2)
    1cec:	5f00                	lw	s0,56(a4)
    1cee:	445f 4c42 4d5f      	0x4d5f4c42445f
    1cf4:	4e49                	li	t3,18
    1cf6:	5f5f 2820 6428      	0x642828205f5f
    1cfc:	6c62756f          	jal	a0,293c2 <__stack_size+0x273c2>
    1d00:	2965                	jal	21b8 <__stack_size+0x1b8>
    1d02:	2e32                	fld	ft8,264(sp)
    1d04:	3232                	fld	ft4,296(sp)
    1d06:	3035                	jal	1532 <_data_lma+0x182>
    1d08:	35383337          	lui	t1,0x35383
    1d0c:	3538                	fld	fa4,104(a0)
    1d0e:	3730                	fld	fa2,104(a4)
    1d10:	3032                	fld	ft0,296(sp)
    1d12:	3331                	jal	1a1e <_data_lma+0x66e>
    1d14:	3338                	fld	fa4,96(a4)
    1d16:	3930                	fld	fa2,112(a0)
    1d18:	3230                	fld	fa2,96(a2)
    1d1a:	31373233          	0x31373233
    1d1e:	32333337          	lui	t1,0x32333
    1d22:	3034                	fld	fa3,96(s0)
    1d24:	3034                	fld	fa3,96(s0)
    1d26:	6536                	flw	fa0,76(sp)
    1d28:	332d                	jal	1a52 <_data_lma+0x6a2>
    1d2a:	3830                	fld	fa2,112(s0)
    1d2c:	294c                	fld	fa1,144(a0)
    1d2e:	4900                	lw	s0,16(a0)
    1d30:	544e                	lw	s0,240(sp)
    1d32:	4c5f 4145 5453      	0x545341454c5f
    1d38:	5f38                	lw	a4,120(a4)
    1d3a:	414d                	li	sp,19
    1d3c:	2058                	fld	fa4,128(s0)
    1d3e:	5f28                	lw	a0,120(a4)
    1d40:	495f 544e 4c5f      	0x4c5f544e495f
    1d46:	4145                	li	sp,17
    1d48:	5f385453          	0x5f385453
    1d4c:	414d                	li	sp,19
    1d4e:	5f58                	lw	a4,60(a4)
    1d50:	295f 5f00 495f      	0x495f5f00295f
    1d56:	544e                	lw	s0,240(sp)
    1d58:	5450                	lw	a2,44(s0)
    1d5a:	5f52                	lw	t5,52(sp)
    1d5c:	54444957          	0x54444957
    1d60:	5f48                	lw	a0,60(a4)
    1d62:	205f 3233 5f00      	0x5f003233205f
    1d68:	555f 4e49 5f54      	0x5f544e49555f
    1d6e:	454c                	lw	a1,12(a0)
    1d70:	5341                	li	t1,-16
    1d72:	3854                	fld	fa3,176(s0)
    1d74:	545f 5059 5f45      	0x5f455059545f
    1d7a:	205f 6e75 6973      	0x69736e75205f
    1d80:	64656e67          	0x64656e67
    1d84:	6320                	flw	fs0,64(a4)
    1d86:	6168                	flw	fa0,68(a0)
    1d88:	0072                	c.slli	zero,0x1c
    1d8a:	6f6c                	flw	fa1,92(a4)
    1d8c:	676e                	flw	fa4,216(sp)
    1d8e:	2b20                	fld	fs0,80(a4)
    1d90:	0034                	addi	a3,sp,8
    1d92:	5f5f 4946 494e      	0x494e49465f5f
    1d98:	4554                	lw	a3,12(a0)
    1d9a:	4d5f 5441 5f48      	0x5f4854414d5f
    1da0:	594c4e4f          	fnmadd.s	ft8,fs8,fs4,fa1,rmm
    1da4:	5f5f 3020 5f00      	0x5f0030205f5f
    1daa:	4e49                	li	t3,18
    1dac:	4d54                	lw	a3,28(a0)
    1dae:	5841                	li	a6,-16
    1db0:	545f 445f 4345      	0x4345445f545f
    1db6:	414c                	lw	a1,4(a0)
    1db8:	4552                	lw	a0,20(sp)
    1dba:	2044                	fld	fs1,128(s0)
    1dbc:	5f00                	lw	s0,56(a4)
    1dbe:	465f 544c 3436      	0x3436544c465f
    1dc4:	4d5f 5841 5f5f      	0x5f5f58414d5f
    1dca:	3120                	fld	fs0,96(a0)
    1dcc:	372e                	fld	fa4,232(sp)
    1dce:	3739                	jal	1cdc <_data_lma+0x92c>
    1dd0:	3936                	fld	fs2,360(sp)
    1dd2:	34333133          	0x34333133
    1dd6:	3638                	fld	fa4,104(a2)
    1dd8:	3332                	fld	ft6,296(sp)
    1dda:	3531                	jal	1be6 <_data_lma+0x836>
    1ddc:	31383037          	lui	zero,0x31383
    1de0:	3534                	fld	fa3,104(a0)
    1de2:	3732                	fld	fa4,296(sp)
    1de4:	3234                	fld	fa3,96(a2)
    1de6:	31333733          	0x31333733
    1dea:	33343037          	lui	zero,0x33343
    1dee:	3735                	jal	1d1a <_data_lma+0x96a>
    1df0:	2b65                	jal	23a8 <__stack_size+0x3a8>
    1df2:	46383033          	0x46383033
    1df6:	3436                	fld	fs0,360(sp)
    1df8:	5f00                	lw	s0,56(a4)
    1dfa:	535f 4956 5f44      	0x5f444956535f
    1e00:	4956                	lw	s2,84(sp)
    1e02:	4c424953          	0x4c424953
    1e06:	2045                	jal	1ea6 <_data_lma+0xaf6>
    1e08:	0031                	c.nop	12
    1e0a:	5f5f 4347 5f43      	0x5f4343475f5f
    1e10:	5441                	li	s0,-16
    1e12:	43494d4f          	fnmadd.d	fs10,fs2,fs4,fs0,rmm
    1e16:	545f 5345 5f54      	0x5f545345545f
    1e1c:	4e41                	li	t3,16
    1e1e:	5f44                	lw	s1,60(a4)
    1e20:	5f544553          	0x5f544553
    1e24:	5254                	lw	a3,36(a2)
    1e26:	4555                	li	a0,21
    1e28:	4156                	lw	sp,84(sp)
    1e2a:	204c                	fld	fa1,128(s0)
    1e2c:	0031                	c.nop	12
    1e2e:	4955                	li	s2,21
    1e30:	544e                	lw	s0,240(sp)
    1e32:	5f38                	lw	a4,120(a4)
    1e34:	29782843          	fmadd.s	fa6,fa6,fs7,ft5,rdn
    1e38:	5f20                	lw	s0,120(a4)
    1e3a:	555f 4e49 3854      	0x38544e49555f
    1e40:	435f 7828 0029      	0x297828435f
    1e46:	4e49                	li	t3,18
    1e48:	5f54                	lw	a3,60(a4)
    1e4a:	4146                	lw	sp,80(sp)
    1e4c:	36315453          	0x36315453
    1e50:	4d5f 5841 2820      	0x282058414d5f
    1e56:	5f5f 4e49 5f54      	0x5f544e495f5f
    1e5c:	4146                	lw	sp,80(sp)
    1e5e:	36315453          	0x36315453
    1e62:	4d5f 5841 5f5f      	0x5f5f58414d5f
    1e68:	0029                	c.nop	10
    1e6a:	5f5f 7061 5f62      	0x5f6270615f5f
    1e70:	6974                	flw	fa3,84(a0)
    1e72:	656d                	lui	a0,0x1b
    1e74:	5f72                	lw	t5,60(sp)
    1e76:	5f746573          	csrrsi	a0,0x5f7,8
    1e7a:	28746e63          	bltu	s0,t2,2116 <__stack_size+0x116>
    1e7e:	6974                	flw	fa3,84(a0)
    1e80:	656d                	lui	a0,0x1b
    1e82:	2c72                	fld	fs8,280(sp)
    1e84:	29746e63          	bltu	s0,s7,2120 <__stack_size+0x120>
    1e88:	2820                	fld	fs0,80(s0)
    1e8a:	6974                	flw	fa3,84(a0)
    1e8c:	656d                	lui	a0,0x1b
    1e8e:	2972                	fld	fs2,280(sp)
    1e90:	3e2d                	jal	19ca <_data_lma+0x61a>
    1e92:	6168                	flw	fa0,68(a0)
    1e94:	6472                	flw	fs0,28(sp)
    1e96:	65726177          	0x65726177
    1e9a:	3e2d                	jal	19d4 <_data_lma+0x624>
    1e9c:	6e756f63          	bltu	a0,t2,259a <__stack_size+0x59a>
    1ea0:	2074                	fld	fa3,192(s0)
    1ea2:	203d                	jal	1ed0 <_data_lma+0xb20>
    1ea4:	00746e63          	bltu	s0,t2,1ec0 <_data_lma+0xb10>
    1ea8:	5f5f 6972 6373      	0x637369725f5f
    1eae:	5f76                	lw	t5,124(sp)
    1eb0:	756d                	lui	a0,0xffffb
    1eb2:	206c                	fld	fa1,192(s0)
    1eb4:	0031                	c.nop	12
    1eb6:	5f5f 4c46 3354      	0x33544c465f5f
    1ebc:	5832                	lw	a6,44(sp)
    1ebe:	4d5f 4e49 5f5f      	0x5f5f4e494d5f
    1ec4:	3220                	fld	fs0,96(a2)
    1ec6:	322e                	fld	ft4,232(sp)
    1ec8:	3532                	fld	fa0,296(sp)
    1eca:	3730                	fld	fa2,104(a4)
    1ecc:	38353833          	0x38353833
    1ed0:	3035                	jal	16fc <_data_lma+0x34c>
    1ed2:	31303237          	lui	tp,0x31303
    1ed6:	30333833          	0x30333833
    1eda:	3039                	jal	16e8 <_data_lma+0x338>
    1edc:	3332                	fld	ft6,296(sp)
    1ede:	3732                	fld	fa4,296(sp)
    1ee0:	3731                	jal	1dec <_data_lma+0xa3c>
    1ee2:	34323333          	0x34323333
    1ee6:	3430                	fld	fa2,104(s0)
    1ee8:	3630                	fld	fa2,104(a2)
    1eea:	2d65                	jal	25a2 <__stack_size+0x5a2>
    1eec:	46383033          	0x46383033
    1ef0:	00783233          	sltu	tp,a6,t2
    1ef4:	5f5f 7061 5f62      	0x5f6270615f5f
    1efa:	6974                	flw	fa3,84(a0)
    1efc:	656d                	lui	a0,0x1b
    1efe:	5f72                	lw	t5,60(sp)
    1f00:	72617473          	csrrci	s0,0x726,2
    1f04:	2874                	fld	fa3,208(s0)
    1f06:	6974                	flw	fa3,84(a0)
    1f08:	656d                	lui	a0,0x1b
    1f0a:	2972                	fld	fs2,280(sp)
    1f0c:	2820                	fld	fs0,80(s0)
    1f0e:	6974                	flw	fa3,84(a0)
    1f10:	656d                	lui	a0,0x1b
    1f12:	2972                	fld	fs2,280(sp)
    1f14:	3e2d                	jal	1a4e <_data_lma+0x69e>
    1f16:	6168                	flw	fa0,68(a0)
    1f18:	6472                	flw	fs0,28(sp)
    1f1a:	65726177          	0x65726177
    1f1e:	3e2d                	jal	1a58 <_data_lma+0x6a8>
    1f20:	6c727463          	bgeu	tp,t2,25e8 <__stack_size+0x5e8>
    1f24:	3d20                	fld	fs0,120(a0)
    1f26:	2820                	fld	fs0,80(s0)
    1f28:	2828                	fld	fa0,80(s0)
    1f2a:	6975                	lui	s2,0x1d
    1f2c:	746e                	flw	fs0,248(sp)
    1f2e:	745f3233          	0x745f3233
    1f32:	2829                	jal	1f4c <_data_lma+0xb9c>
    1f34:	6974                	flw	fa3,84(a0)
    1f36:	656d                	lui	a0,0x1b
    1f38:	2972                	fld	fs2,280(sp)
    1f3a:	3e2d                	jal	1a74 <_data_lma+0x6c4>
    1f3c:	5f706163          	bltu	zero,s7,251e <__stack_size+0x51e>
    1f40:	5f706d63          	bltu	zero,s7,253a <__stack_size+0x53a>
    1f44:	296c6573          	csrrsi	a0,0x296,24
    1f48:	3c20                	fld	fs0,120(s0)
    1f4a:	203c                	fld	fa5,64(s0)
    1f4c:	2938                	fld	fa4,80(a0)
    1f4e:	7c20                	flw	fs0,120(s0)
    1f50:	3020                	fld	fs0,96(s0)
    1f52:	3078                	fld	fa4,224(s0)
    1f54:	3030                	fld	fa2,96(s0)
    1f56:	3030                	fld	fa2,96(s0)
    1f58:	3030                	fld	fa2,96(s0)
    1f5a:	0031                	c.nop	12
    1f5c:	5f5f 4e49 3154      	0x31544e495f5f
    1f62:	5f36                	lw	t5,108(sp)
    1f64:	29632843          	fmadd.s	fa6,ft6,fs6,ft5,rdn
    1f68:	6320                	flw	fs0,64(a4)
    1f6a:	5f00                	lw	s0,56(a4)
    1f6c:	475f 4343 485f      	0x485f4343475f
    1f72:	5641                	li	a2,-16
    1f74:	5f45                	li	t5,-15
    1f76:	5744                	lw	s1,44(a4)
    1f78:	5241                	li	tp,-16
    1f7a:	3246                	fld	ft4,112(sp)
    1f7c:	435f 4946 415f      	0x415f4946435f
    1f82:	31204d53          	0x31204d53
    1f86:	5400                	lw	s0,40(s0)
    1f88:	4d49                	li	s10,18
    1f8a:	5245                	li	tp,-15
    1f8c:	5f30                	lw	a2,120(a4)
    1f8e:	5449                	li	s0,-14
    1f90:	5f52                	lw	t5,52(sp)
    1f92:	4449                	li	s0,18
    1f94:	3220                	fld	fs0,96(a2)
    1f96:	5f00                	lw	s0,56(a4)
    1f98:	555f 4e49 3654      	0x36544e49555f
    1f9e:	5f34                	lw	a3,120(a4)
    1fa0:	414d                	li	sp,19
    1fa2:	5f58                	lw	a4,60(a4)
    1fa4:	205f 7830 6666      	0x66667830205f
    1faa:	6666                	flw	fa2,88(sp)
    1fac:	6666                	flw	fa2,88(sp)
    1fae:	6666                	flw	fa2,88(sp)
    1fb0:	6666                	flw	fa2,88(sp)
    1fb2:	6666                	flw	fa2,88(sp)
    1fb4:	6666                	flw	fa2,88(sp)
    1fb6:	6666                	flw	fa2,88(sp)
    1fb8:	4c55                	li	s8,21
    1fba:	004c                	addi	a1,sp,4
    1fbc:	5f5f 4544 3343      	0x334345445f5f
    1fc2:	5f32                	lw	t5,44(sp)
    1fc4:	4e425553          	0x4e425553
    1fc8:	414d524f          	fnmadd.s	ft4,fs10,fs4,fs0,unknown
    1fcc:	5f4c                	lw	a1,60(a4)
    1fce:	494d                	li	s2,19
    1fd0:	5f4e                	lw	t5,240(sp)
    1fd2:	205f 2e30 3030      	0x30302e30205f
    1fd8:	3030                	fld	fa2,96(s0)
    1fda:	3130                	fld	fa2,96(a0)
    1fdc:	2d45                	jal	268c <__stack_size+0x68c>
    1fde:	3539                	jal	1dec <_data_lma+0xa3c>
    1fe0:	4644                	lw	s1,12(a2)
    1fe2:	5f00                	lw	s0,56(a4)
    1fe4:	495f 544e 465f      	0x465f544e495f
    1fea:	5341                	li	t1,-16
    1fec:	3354                	fld	fa3,160(a4)
    1fee:	5f32                	lw	t5,44(sp)
    1ff0:	414d                	li	sp,19
    1ff2:	5f58                	lw	a4,60(a4)
    1ff4:	205f 7830 6637      	0x66377830205f
    1ffa:	6666                	flw	fa2,88(sp)
    1ffc:	6666                	flw	fa2,88(sp)
    1ffe:	6666                	flw	fa2,88(sp)
    2000:	5f00                	lw	s0,56(a4)
    2002:	465f 544c 3436      	0x3436544c465f
    2008:	5f58                	lw	a4,60(a4)
    200a:	4148                	lw	a0,4(a0)
    200c:	55515f53          	0x55515f53
    2010:	4549                	li	a0,18
    2012:	5f54                	lw	a3,60(a4)
    2014:	414e                	lw	sp,208(sp)
    2016:	5f4e                	lw	t5,240(sp)
    2018:	205f 0031 5f5f      	0x5f5f0031205f
    201e:	4c46                	lw	s8,80(sp)
    2020:	5f54                	lw	a3,60(a4)
    2022:	4148                	lw	a0,4(a0)
    2024:	4e495f53          	0x4e495f53
    2028:	4946                	lw	s2,80(sp)
    202a:	494e                	lw	s2,208(sp)
    202c:	5954                	lw	a3,52(a0)
    202e:	5f5f 3120 5f00      	0x5f0031205f5f
    2034:	505f 494c 5f43      	0x5f43494c505f
    203a:	2048                	fld	fa0,128(s0)
    203c:	4700                	lw	s0,8(a4)
    203e:	554e                	lw	a0,240(sp)
    2040:	4320                	lw	s0,64(a4)
    2042:	3731                	jal	1f4e <_data_lma+0xb9e>
    2044:	3820                	fld	fs0,112(s0)
    2046:	322e                	fld	ft4,232(sp)
    2048:	302e                	fld	ft0,232(sp)
    204a:	2d20                	fld	fs0,88(a0)
    204c:	616d                	addi	sp,sp,240
    204e:	6372                	flw	ft6,28(sp)
    2050:	3d68                	fld	fa0,248(a0)
    2052:	7672                	flw	fa2,60(sp)
    2054:	6d693233          	0x6d693233
    2058:	2d20                	fld	fs0,88(a0)
    205a:	616d                	addi	sp,sp,240
    205c:	6962                	flw	fs2,24(sp)
    205e:	693d                	lui	s2,0xf
    2060:	706c                	flw	fa1,100(s0)
    2062:	2d203233          	0x2d203233
    2066:	636d                	lui	t1,0x1b
    2068:	6f6d                	lui	t5,0x1b
    206a:	6564                	flw	fs1,76(a0)
    206c:	3d6c                	fld	fa1,248(a0)
    206e:	656d                	lui	a0,0x1b
    2070:	6c64                	flw	fs1,92(s0)
    2072:	2d20776f          	jal	a4,9344 <__stack_size+0x7344>
    2076:	2d203367          	0x2d203367
    207a:	6666                	flw	fa2,88(sp)
    207c:	6e75                	lui	t3,0x1d
    207e:	6f697463          	bgeu	s2,s6,2766 <__stack_size+0x766>
    2082:	2d6e                	fld	fs10,216(sp)
    2084:	74636573          	csrrsi	a0,0x746,6
    2088:	6f69                	lui	t5,0x1a
    208a:	736e                	flw	ft6,248(sp)
    208c:	2d20                	fld	fs0,88(a0)
    208e:	6466                	flw	fs0,88(sp)
    2090:	7461                	lui	s0,0xffff8
    2092:	2d61                	jal	272a <__stack_size+0x72a>
    2094:	74636573          	csrrsi	a0,0x746,6
    2098:	6f69                	lui	t5,0x1a
    209a:	736e                	flw	ft6,248(sp)
    209c:	2d20                	fld	fs0,88(a0)
    209e:	6e66                	flw	ft8,88(sp)
    20a0:	75622d6f          	jal	s10,247f6 <__stack_size+0x227f6>
    20a4:	6c69                	lui	s8,0x1a
    20a6:	6974                	flw	fa3,84(a0)
    20a8:	2d6e                	fld	fs10,216(sp)
    20aa:	7270                	flw	fa2,100(a2)
    20ac:	6e69                	lui	t3,0x1a
    20ae:	6674                	flw	fa3,76(a2)
    20b0:	2d20                	fld	fs0,88(a0)
    20b2:	6e66                	flw	ft8,88(sp)
    20b4:	75622d6f          	jal	s10,2480a <__stack_size+0x2280a>
    20b8:	6c69                	lui	s8,0x1a
    20ba:	6974                	flw	fa3,84(a0)
    20bc:	2d6e                	fld	fs10,216(sp)
    20be:	616d                	addi	sp,sp,240
    20c0:	6c6c                	flw	fa1,92(s0)
    20c2:	5f00636f          	jal	t1,86b2 <__stack_size+0x66b2>
    20c6:	495f 544e 3436      	0x3436544e495f
    20cc:	4d5f 5841 5f5f      	0x5f5f58414d5f
    20d2:	3020                	fld	fs0,96(s0)
    20d4:	3778                	fld	fa4,232(a4)
    20d6:	6666                	flw	fa2,88(sp)
    20d8:	6666                	flw	fa2,88(sp)
    20da:	6666                	flw	fa2,88(sp)
    20dc:	6666                	flw	fa2,88(sp)
    20de:	6666                	flw	fa2,88(sp)
    20e0:	6666                	flw	fa2,88(sp)
    20e2:	6666                	flw	fa2,88(sp)
    20e4:	4c66                	lw	s8,88(sp)
    20e6:	004c                	addi	a1,sp,4
    20e8:	5f5f 6e69 5f74      	0x5f746e695f5f
    20ee:	6166                	flw	ft2,88(sp)
    20f0:	32337473          	csrrci	s0,mhpmevent3,6
    20f4:	745f 645f 6665      	0x6665645f745f
    20fa:	6e69                	lui	t3,0x1a
    20fc:	6465                	lui	s0,0x19
    20fe:	3120                	fld	fs0,96(a0)
    2100:	5f00                	lw	s0,56(a4)
    2102:	535f 4454 5f43      	0x5f434454535f
    2108:	205f 0031 5f5f      	0x5f5f0031205f
    210e:	7061                	c.lui	zero,0xffff8
    2110:	5f62                	lw	t5,56(sp)
    2112:	6974                	flw	fa3,84(a0)
    2114:	656d                	lui	a0,0x1b
    2116:	5f72                	lw	t5,60(sp)
    2118:	5f746567          	0x5f746567
    211c:	7561                	lui	a0,0xffff8
    211e:	6f74                	flw	fa3,92(a4)
    2120:	6f6c                	flw	fa1,92(a4)
    2122:	6461                	lui	s0,0x18
    2124:	7428                	flw	fa0,104(s0)
    2126:	6d69                	lui	s10,0x1a
    2128:	7265                	lui	tp,0xffff9
    212a:	2029                	jal	2134 <__stack_size+0x134>
    212c:	2828                	fld	fa0,80(s0)
    212e:	6974                	flw	fa3,84(a0)
    2130:	656d                	lui	a0,0x1b
    2132:	2972                	fld	fs2,280(sp)
    2134:	3e2d                	jal	1c6e <_data_lma+0x8be>
    2136:	7561                	lui	a0,0xffff8
    2138:	6f74                	flw	fa3,92(a4)
    213a:	6c5f 616f 2964      	0x2964616f6c5f
    2140:	5f00                	lw	s0,56(a4)
    2142:	535f 5a49 4f45      	0x4f455a49535f
    2148:	5f46                	lw	t5,112(sp)
    214a:	4f4c                	lw	a1,28(a4)
    214c:	474e                	lw	a4,208(sp)
    214e:	5f5f 3420 5f00      	0x5f0034205f5f
    2154:	695f 746e 3032      	0x3032746e695f
    215a:	2b20                	fld	fs0,80(a4)
    215c:	0032                	c.slli	zero,0xc
    215e:	5f5f 4244 5f4c      	0x5f4c42445f5f
    2164:	414d                	li	sp,19
    2166:	5f58                	lw	a4,60(a4)
    2168:	5845                	li	a6,-15
    216a:	5f50                	lw	a2,60(a4)
    216c:	205f 3031 3432      	0x34323031205f
    2172:	5300                	lw	s0,32(a4)
    2174:	4749                	li	a4,18
    2176:	415f 4f54 494d      	0x494d4f54415f
    217c:	494d5f43          	fmadd.s	ft10,fs10,fs4,fs1,unknown
    2180:	204e                	fld	ft0,208(sp)
    2182:	2d28                	fld	fa0,88(a0)
    2184:	5f5f 5453 4944      	0x494454535f5f
    218a:	544e                	lw	s0,240(sp)
    218c:	455f 5058 4928      	0x49285058455f
    2192:	544e                	lw	s0,240(sp)
    2194:	4d5f 5841 2029      	0x202958414d5f
    219a:	202d                	jal	21c4 <__stack_size+0x1c4>
    219c:	2931                	jal	25b8 <__stack_size+0x5b8>
    219e:	5f00                	lw	s0,56(a4)
    21a0:	415f 4f54 494d      	0x494d4f54415f
    21a6:	4f435f43          	fmadd.q	ft10,ft6,fs4,fs1,unknown
    21aa:	534e                	lw	t1,240(sp)
    21ac:	4d55                	li	s10,21
    21ae:	2045                	jal	224e <__stack_size+0x24e>
    21b0:	0031                	c.nop	12
    21b2:	5f5f 4c46 3354      	0x33544c465f5f
    21b8:	5f32                	lw	t5,44(sp)
    21ba:	494d                	li	s2,19
    21bc:	5f4e                	lw	t5,240(sp)
    21be:	205f 2e31 3731      	0x37312e31205f
    21c4:	3435                	jal	1bf0 <_data_lma+0x840>
    21c6:	3439                	jal	1bd4 <_data_lma+0x824>
    21c8:	38303533          	0x38303533
    21cc:	3232                	fld	ft4,296(sp)
    21ce:	3832                	fld	fa6,296(sp)
    21d0:	37303537          	lui	a0,0x37303
    21d4:	3639                	jal	1ce2 <_data_lma+0x932>
    21d6:	3738                	fld	fa4,104(a4)
    21d8:	33353633          	0x33353633
    21dc:	32323237          	lui	tp,0x32323
    21e0:	3432                	fld	fs0,296(sp)
    21e2:	3635                	jal	1d0e <_data_lma+0x95e>
    21e4:	6538                	flw	fa4,72(a0)
    21e6:	332d                	jal	1f10 <_data_lma+0xb60>
    21e8:	4638                	lw	a4,72(a2)
    21ea:	5f003233          	0x5f003233
    21ee:	465f 544c 3436      	0x3436544c465f
    21f4:	5f58                	lw	a4,60(a4)
    21f6:	414d                	li	sp,19
    21f8:	544e                	lw	s0,240(sp)
    21fa:	445f 4749 5f5f      	0x5f5f4749445f
    2200:	3120                	fld	fs0,96(a0)
    2202:	3331                	jal	1f0e <_data_lma+0xb5e>
    2204:	5f00                	lw	s0,56(a4)
    2206:	575f 4e49 5f54      	0x5f544e49575f
    220c:	5954                	lw	a3,52(a0)
    220e:	4550                	lw	a2,12(a0)
    2210:	5f5f 7520 736e      	0x736e75205f5f
    2216:	6769                	lui	a4,0x1a
    2218:	656e                	flw	fa0,216(sp)
    221a:	2064                	fld	fs1,192(s0)
    221c:	6e69                	lui	t3,0x1a
    221e:	0074                	addi	a3,sp,12
    2220:	5f5f 4f4c 474e      	0x474e4f4c5f5f
    2226:	4d5f 5841 5f5f      	0x5f5f58414d5f
    222c:	3020                	fld	fs0,96(s0)
    222e:	3778                	fld	fa4,232(a4)
    2230:	6666                	flw	fa2,88(sp)
    2232:	6666                	flw	fa2,88(sp)
    2234:	6666                	flw	fa2,88(sp)
    2236:	4c66                	lw	s8,88(sp)
    2238:	5f00                	lw	s0,56(a4)
    223a:	495f 544e 3631      	0x3631544e495f
    2240:	4d5f 5841 5f5f      	0x5f5f58414d5f
    2246:	3020                	fld	fs0,96(s0)
    2248:	3778                	fld	fa4,232(a4)
    224a:	6666                	flw	fa2,88(sp)
    224c:	0066                	c.slli	zero,0x19
    224e:	505f 534f 5849      	0x5849534f505f
    2254:	435f 535f 554f      	0x554f535f435f
    225a:	4352                	lw	t1,20(sp)
    225c:	2045                	jal	22fc <__stack_size+0x2fc>
    225e:	3032                	fld	ft0,296(sp)
    2260:	3830                	fld	fa2,112(s0)
    2262:	3930                	fld	fa2,112(a0)
    2264:	004c                	addi	a1,sp,4
    2266:	5f5f 4353 4148      	0x414843535f5f
    226c:	5f52                	lw	t5,52(sp)
    226e:	54444957          	0x54444957
    2272:	5f48                	lw	a0,60(a4)
    2274:	205f 0038 7277      	0x72770038205f
    227a:	7469                	lui	s0,0xffffa
    227c:	5f65                	li	t5,-7
    227e:	28727363          	bgeu	tp,t2,2504 <__stack_size+0x504>
    2282:	6572                	flw	fa0,28(sp)
    2284:	61762c67          	0x61762c67
    2288:	296c                	fld	fa1,208(a0)
    228a:	2820                	fld	fs0,80(s0)
    228c:	6669207b          	0x6669207b
    2290:	2820                	fld	fs0,80(s0)
    2292:	5f5f 7562 6c69      	0x6c6975625f5f
    2298:	6974                	flw	fa3,84(a0)
    229a:	5f6e                	lw	t5,248(sp)
    229c:	736e6f63          	bltu	t3,s6,29da <__stack_size+0x9da>
    22a0:	6174                	flw	fa3,68(a0)
    22a2:	746e                	flw	fs0,248(sp)
    22a4:	705f 7628 6c61      	0x6c617628705f
    22aa:	2029                	jal	22b4 <__stack_size+0x2b4>
    22ac:	2626                	fld	fa2,72(sp)
    22ae:	2820                	fld	fs0,80(s0)
    22b0:	6e75                	lui	t3,0x1d
    22b2:	6e676973          	csrrsi	s2,0x6e6,14
    22b6:	6465                	lui	s0,0x19
    22b8:	6c20                	flw	fs0,88(s0)
    22ba:	29676e6f          	jal	t3,78550 <__stack_size+0x76550>
    22be:	7628                	flw	fa0,104(a2)
    22c0:	6c61                	lui	s8,0x18
    22c2:	2029                	jal	22cc <__stack_size+0x2cc>
    22c4:	203c                	fld	fa5,64(s0)
    22c6:	20293233          	0x20293233
    22ca:	7361                	lui	t1,0xffff8
    22cc:	206d                	jal	2376 <__stack_size+0x376>
    22ce:	6f76                	flw	ft10,92(sp)
    22d0:	616c                	flw	fa1,68(a0)
    22d2:	6974                	flw	fa3,84(a0)
    22d4:	656c                	flw	fa1,76(a0)
    22d6:	2820                	fld	fs0,80(s0)
    22d8:	6322                	flw	ft6,8(sp)
    22da:	20777273          	csrrci	tp,0x207,14
    22de:	2022                	fld	ft0,8(sp)
    22e0:	67657223          	0x67657223
    22e4:	2220                	fld	fs0,64(a2)
    22e6:	202c                	fld	fa1,64(s0)
    22e8:	3025                	jal	1b10 <_data_lma+0x760>
    22ea:	2022                	fld	ft0,8(sp)
    22ec:	3a3a                	fld	fs4,424(sp)
    22ee:	2220                	fld	fs0,64(a2)
    22f0:	2269                	jal	247a <__stack_size+0x47a>
    22f2:	7628                	flw	fa0,104(a2)
    22f4:	6c61                	lui	s8,0x18
    22f6:	2929                	jal	2710 <__stack_size+0x710>
    22f8:	6c65203b          	0x6c65203b
    22fc:	61206573          	csrrsi	a0,0x612,0
    2300:	76206d73          	csrrsi	s10,0x762,0
    2304:	74616c6f          	jal	s8,18a4a <__stack_size+0x16a4a>
    2308:	6c69                	lui	s8,0x1a
    230a:	2065                	jal	23b2 <__stack_size+0x3b2>
    230c:	2228                	fld	fa0,64(a2)
    230e:	77727363          	bgeu	tp,s7,2a74 <__stack_size+0xa74>
    2312:	2220                	fld	fs0,64(a2)
    2314:	2320                	fld	fs0,64(a4)
    2316:	6572                	flw	fa0,28(sp)
    2318:	2c222067          	0x2c222067
    231c:	2520                	fld	fs0,72(a0)
    231e:	2230                	fld	fa2,64(a2)
    2320:	3a20                	fld	fs0,112(a2)
    2322:	203a                	fld	ft0,392(sp)
    2324:	7222                	flw	ft4,40(sp)
    2326:	2822                	fld	fa6,8(sp)
    2328:	6176                	flw	ft2,92(sp)
    232a:	296c                	fld	fa1,208(a0)
    232c:	3b29                	jal	2046 <__stack_size+0x46>
    232e:	7d20                	flw	fs0,120(a0)
    2330:	0029                	c.nop	10
    2332:	5f5f 4953 455a      	0x455a49535f5f
    2338:	445f464f          	0x445f464f
    233c:	4c42554f          	0x4c42554f
    2340:	5f45                	li	t5,-15
    2342:	205f 0038 5f5f      	0x5f5f0038205f
    2348:	43554e47          	fmsub.d	ft8,fa0,fs5,fs0,rmm
    234c:	505f 5441 4843      	0x48435441505f
    2352:	454c                	lw	a1,12(a0)
    2354:	4556                	lw	a0,84(sp)
    2356:	5f4c                	lw	a1,60(a4)
    2358:	205f 0030 4e49      	0x4e490030205f
    235e:	3854                	fld	fa3,176(s0)
    2360:	4d5f 5841 2820      	0x282058414d5f
    2366:	5f5f 4e49 3854      	0x38544e495f5f
    236c:	4d5f 5841 5f5f      	0x5f5f58414d5f
    2372:	0029                	c.nop	10
    2374:	4954                	lw	a3,20(a0)
    2376:	454d                	li	a0,19
    2378:	3052                	fld	ft0,304(sp)
    237a:	415f 4c54 3220      	0x32204c54415f
    2380:	3030                	fld	fa2,96(s0)
    2382:	0030                	addi	a2,sp,8
    2384:	5f5f 4957 544e      	0x544e49575f5f
    238a:	4d5f 4e49 5f5f      	0x5f5f4e494d5f
    2390:	3020                	fld	fs0,96(s0)
    2392:	0055                	c.nop	21
    2394:	4955                	li	s2,21
    2396:	544e                	lw	s0,240(sp)
    2398:	5450                	lw	a2,44(s0)
    239a:	5f52                	lw	t5,52(sp)
    239c:	414d                	li	sp,19
    239e:	2058                	fld	fa4,128(s0)
    23a0:	5f28                	lw	a0,120(a4)
    23a2:	555f 4e49 5054      	0x50544e49555f
    23a8:	5254                	lw	a3,36(a2)
    23aa:	4d5f 5841 5f5f      	0x5f5f58414d5f
    23b0:	0029                	c.nop	10
    23b2:	5f5f 4544 3143      	0x314345445f5f
    23b8:	3832                	fld	fa6,296(sp)
    23ba:	4d5f 5841 455f      	0x455f58414d5f
    23c0:	5058                	lw	a4,36(s0)
    23c2:	5f5f 3620 3431      	0x343136205f5f
    23c8:	0035                	c.nop	13
    23ca:	7574                	flw	fa3,108(a0)
    23cc:	6562                	flw	fa0,24(sp)
    23ce:	645f 7369 5f70      	0x5f707369645f
    23d4:	756e                	flw	fa0,248(sp)
    23d6:	006d                	c.nop	27
    23d8:	555f 4954 534c      	0x534c4954555f
    23de:	485f 205f 5f00      	0x5f00205f485f
    23e4:	4e49                	li	t3,18
    23e6:	3154                	fld	fa3,160(a0)
    23e8:	5f36                	lw	t5,108(sp)
    23ea:	5f54                	lw	a3,60(a4)
    23ec:	4544                	lw	s1,12(a0)
    23ee:	52414c43          	fmadd.d	fs8,ft2,ft4,fa0,rmm
    23f2:	4445                	li	s0,17
    23f4:	0020                	addi	s0,sp,8
    23f6:	5f5f 5453 4344      	0x434454535f5f
    23fc:	555f 4654 315f      	0x315f4654555f
    2402:	5f36                	lw	t5,108(sp)
    2404:	205f 0031 4955      	0x49550031205f
    240a:	544e                	lw	s0,240(sp)
    240c:	435f3233          	0x435f3233
    2410:	7828                	flw	fa0,112(s0)
    2412:	2029                	jal	241c <__stack_size+0x41c>
    2414:	5f5f 4955 544e      	0x544e49555f5f
    241a:	435f3233          	0x435f3233
    241e:	7828                	flw	fa0,112(s0)
    2420:	0029                	c.nop	10
    2422:	5f5f 4e49 3654      	0x36544e495f5f
    2428:	2034                	fld	fa3,64(s0)
    242a:	6c22                	flw	fs8,8(sp)
    242c:	226c                	fld	fa1,192(a2)
    242e:	5f00                	lw	s0,56(a4)
    2430:	4c5f 4244 5f4c      	0x5f4c42444c5f
    2436:	4148                	lw	a0,4(a0)
    2438:	4e495f53          	0x4e495f53
    243c:	4946                	lw	s2,80(sp)
    243e:	494e                	lw	s2,208(sp)
    2440:	5954                	lw	a3,52(a0)
    2442:	5f5f 3120 5f00      	0x5f0031205f5f
    2448:	475f 4343 495f      	0x495f4343475f
    244e:	4345                	li	t1,17
    2450:	355f 3935 435f      	0x435f3935355f
    2456:	4c504d4f          	0x4c504d4f
    245a:	5845                	li	a6,-15
    245c:	3020                	fld	fs0,96(s0)
    245e:	5f00                	lw	s0,56(a4)
    2460:	555f 4e49 3354      	0x33544e49555f
    2466:	5f32                	lw	t5,44(sp)
    2468:	414d                	li	sp,19
    246a:	5f58                	lw	a4,60(a4)
    246c:	205f 7830 6666      	0x66667830205f
    2472:	6666                	flw	fa2,88(sp)
    2474:	6666                	flw	fa2,88(sp)
    2476:	6666                	flw	fa2,88(sp)
    2478:	4c55                	li	s8,21
    247a:	5f00                	lw	s0,56(a4)
    247c:	465f 544c 3436      	0x3436544c465f
    2482:	5f58                	lw	a4,60(a4)
    2484:	414d                	li	sp,19
    2486:	5f58                	lw	a4,60(a4)
    2488:	3031                	jal	1c94 <_data_lma+0x8e4>
    248a:	455f 5058 5f5f      	0x5f5f5058455f
    2490:	3420                	fld	fs0,104(s0)
    2492:	3339                	jal	21a0 <__stack_size+0x1a0>
    2494:	0032                	c.slli	zero,0xc
    2496:	4954                	lw	a3,20(a0)
    2498:	454d                	li	a0,19
    249a:	3052                	fld	ft0,304(sp)
    249c:	425f 5341 4145      	0x41455341425f
    24a2:	4444                	lw	s1,12(s0)
    24a4:	2045                	jal	2544 <__stack_size+0x544>
    24a6:	7830                	flw	fa2,112(s0)
    24a8:	3034                	fld	fa3,96(s0)
    24aa:	3030                	fld	fa2,96(s0)
    24ac:	3032                	fld	ft0,296(sp)
    24ae:	3030                	fld	fa2,96(s0)
    24b0:	4900                	lw	s0,16(a0)
    24b2:	544e                	lw	s0,240(sp)
    24b4:	465f 5341 3354      	0x33545341465f
    24ba:	5f32                	lw	t5,44(sp)
    24bc:	414d                	li	sp,19
    24be:	2058                	fld	fa4,128(s0)
    24c0:	5f28                	lw	a0,120(a4)
    24c2:	495f 544e 465f      	0x465f544e495f
    24c8:	5341                	li	t1,-16
    24ca:	3354                	fld	fa3,160(a4)
    24cc:	5f32                	lw	t5,44(sp)
    24ce:	414d                	li	sp,19
    24d0:	5f58                	lw	a4,60(a4)
    24d2:	295f 5f00 4e49      	0x4e495f00295f
    24d8:	3354                	fld	fa3,160(a4)
    24da:	5f32                	lw	t5,44(sp)
    24dc:	5f54                	lw	a3,60(a4)
    24de:	4544                	lw	s1,12(a0)
    24e0:	52414c43          	fmadd.d	fs8,ft2,ft4,fa0,rmm
    24e4:	4445                	li	s0,17
    24e6:	0020                	addi	s0,sp,8
    24e8:	5f5f 4953 455a      	0x455a49535f5f
    24ee:	575f464f          	fnmadd.q	fa2,ft10,fs5,fa0,rmm
    24f2:	52414843          	fmadd.d	fa6,ft2,ft4,fa0,rmm
    24f6:	545f 5f5f 3420      	0x34205f5f545f
    24fc:	5f00                	lw	s0,56(a4)
    24fe:	615f 6270 745f      	0x745f6270615f
    2504:	6d69                	lui	s10,0x1a
    2506:	7265                	lui	tp,0xffff9
    2508:	725f 7365 7465      	0x74657365725f
    250e:	7428                	flw	fa0,104(s0)
    2510:	6d69                	lui	s10,0x1a
    2512:	7265                	lui	tp,0xffff9
    2514:	2029                	jal	251e <__stack_size+0x51e>
    2516:	7428                	flw	fa0,104(s0)
    2518:	6d69                	lui	s10,0x1a
    251a:	7265                	lui	tp,0xffff9
    251c:	2d29                	jal	2b36 <__stack_size+0xb36>
    251e:	683e                	flw	fa6,204(sp)
    2520:	7261                	lui	tp,0xffff8
    2522:	7764                	flw	fs1,108(a4)
    2524:	7261                	lui	tp,0xffff8
    2526:	2d65                	jal	2bde <__stack_size+0xbde>
    2528:	633e                	flw	ft6,204(sp)
    252a:	746e756f          	jal	a0,e9c70 <__stack_size+0xe7c70>
    252e:	3d20                	fld	fs0,120(a0)
    2530:	2820                	fld	fs0,80(s0)
    2532:	6974                	flw	fa3,84(a0)
    2534:	656d                	lui	a0,0x1b
    2536:	2972                	fld	fs2,280(sp)
    2538:	3e2d                	jal	2072 <__stack_size+0x72>
    253a:	7561                	lui	a0,0xffff8
    253c:	6f74                	flw	fa3,92(a4)
    253e:	6c5f 616f 0064      	0x64616f6c5f
    2544:	5f5f 4c46 3154      	0x31544c465f5f
    254a:	3832                	fld	fa6,296(sp)
    254c:	4d5f 4e49 315f      	0x315f4e494d5f
    2552:	5f30                	lw	a2,120(a4)
    2554:	5845                	li	a6,-15
    2556:	5f50                	lw	a2,60(a4)
    2558:	205f 2d28 3934      	0x39342d28205f
    255e:	00293133          	sltu	sp,s2,sp
    2562:	5f5f 4c46 414f      	0x414f4c465f5f
    2568:	5f54                	lw	a3,60(a4)
    256a:	44524f57          	0x44524f57
    256e:	4f5f 4452 5245      	0x524544524f5f
    2574:	5f5f 5f20 4f5f      	0x4f5f5f205f5f
    257a:	4452                	lw	s0,20(sp)
    257c:	5245                	li	tp,-15
    257e:	4c5f 5449 4c54      	0x4c5454494c5f
    2584:	5f45                	li	t5,-15
    2586:	4e45                	li	t3,17
    2588:	4944                	lw	s1,20(a0)
    258a:	4e41                	li	t3,16
    258c:	5f5f 5f00 535f      	0x535f5f005f5f
    2592:	5a49                	li	s4,-14
    2594:	5f45                	li	t5,-15
    2596:	54444957          	0x54444957
    259a:	5f48                	lw	a0,60(a4)
    259c:	205f 3233 5f00      	0x5f003233205f
    25a2:	445f 4345 3233      	0x32334345445f
    25a8:	4d5f 4e41 5f54      	0x5f544e414d5f
    25ae:	4944                	lw	s1,20(a0)
    25b0:	205f5f47          	fmsub.s	ft10,ft10,ft5,ft4,unknown
    25b4:	5f5f0037          	lui	zero,0x5f5f0
    25b8:	4c46                	lw	s8,80(sp)
    25ba:	3354                	fld	fa3,160(a4)
    25bc:	5f32                	lw	t5,44(sp)
    25be:	4544                	lw	s1,12(a0)
    25c0:	4f4e                	lw	t5,208(sp)
    25c2:	4d52                	lw	s10,20(sp)
    25c4:	4d5f 4e49 5f5f      	0x5f5f4e494d5f
    25ca:	3120                	fld	fs0,96(a0)
    25cc:	342e                	fld	fs0,232(sp)
    25ce:	3130                	fld	fa2,96(a0)
    25d0:	3932                	fld	fs2,296(sp)
    25d2:	3438                	fld	fa4,104(s0)
    25d4:	3436                	fld	fs0,360(sp)
    25d6:	38343233          	0x38343233
    25da:	3731                	jal	24e6 <__stack_size+0x4e6>
    25dc:	3730                	fld	fa2,104(a4)
    25de:	3930                	fld	fa2,112(a0)
    25e0:	3332                	fld	ft6,296(sp)
    25e2:	35393237          	lui	tp,0x35393
    25e6:	3338                	fld	fa4,96(a4)
    25e8:	3832                	fld	fa6,296(sp)
    25ea:	3939                	jal	2208 <__stack_size+0x208>
    25ec:	3631                	jal	20f8 <__stack_size+0xf8>
    25ee:	3331                	jal	22fa <__stack_size+0x2fa>
    25f0:	2d65                	jal	2ca8 <__stack_size+0xca8>
    25f2:	3534                	fld	fa3,104(a0)
    25f4:	3346                	fld	ft6,112(sp)
    25f6:	0032                	c.slli	zero,0xc
    25f8:	5f5f 4953 5f47      	0x5f4749535f5f
    25fe:	5441                	li	s0,-16
    2600:	43494d4f          	fnmadd.d	fs10,fs2,fs4,fs0,rmm
    2604:	4d5f 4e49 5f5f      	0x5f5f4e494d5f
    260a:	2820                	fld	fs0,80(s0)
    260c:	5f2d                	li	t5,-21
    260e:	535f 4749 415f      	0x415f4749535f
    2614:	4f54                	lw	a3,28(a4)
    2616:	494d                	li	s2,19
    2618:	414d5f43          	fmadd.s	ft10,fs10,fs4,fs0,unknown
    261c:	5f58                	lw	a4,60(a4)
    261e:	205f 202d 2931      	0x2931202d205f
    2624:	5f00                	lw	s0,56(a4)
    2626:	4c5f 4e4f 5f47      	0x5f474e4f4c5f
    262c:	54444957          	0x54444957
    2630:	5f48                	lw	a0,60(a4)
    2632:	205f 3233 5f00      	0x5f003233205f
    2638:	415f 4f54 494d      	0x494d4f54415f
    263e:	43415f43          	fmadd.d	ft10,ft2,fs4,fs0,unknown
    2642:	5551                	li	a0,-12
    2644:	5249                	li	tp,-14
    2646:	2045                	jal	26e6 <__stack_size+0x6e6>
    2648:	0032                	c.slli	zero,0xc
    264a:	5f5f 4843 5241      	0x524148435f5f
    2650:	545f3233          	0x545f3233
    2654:	5059                	c.li	zero,-10
    2656:	5f45                	li	t5,-15
    2658:	205f 6f6c 676e      	0x676e6f6c205f
    265e:	7520                	flw	fs0,104(a0)
    2660:	736e                	flw	ft6,248(sp)
    2662:	6769                	lui	a4,0x1a
    2664:	656e                	flw	fa0,216(sp)
    2666:	2064                	fld	fs1,192(s0)
    2668:	6e69                	lui	t3,0x1a
    266a:	0074                	addi	a3,sp,12
    266c:	5f5f 6e69 5f74      	0x5f746e695f5f
    2672:	6166                	flw	ft2,88(sp)
    2674:	36317473          	csrrci	s0,0x363,2
    2678:	745f 645f 6665      	0x6665645f745f
    267e:	6e69                	lui	t3,0x1a
    2680:	6465                	lui	s0,0x19
    2682:	3120                	fld	fs0,96(a0)
    2684:	5f00                	lw	s0,56(a4)
    2686:	555f 4553 5f52      	0x5f524553555f
    268c:	414c                	lw	a1,4(a0)
    268e:	4542                	lw	a0,16(sp)
    2690:	5f4c                	lw	a1,60(a4)
    2692:	5250                	lw	a2,36(a2)
    2694:	4645                	li	a2,17
    2696:	5849                	li	a6,-14
    2698:	5f5f 0020 5f5f      	0x5f5f00205f5f
    269e:	4955                	li	s2,21
    26a0:	544e                	lw	s0,240(sp)
    26a2:	4c5f 4145 5453      	0x545341454c5f
    26a8:	545f3233          	0x545f3233
    26ac:	5059                	c.li	zero,-10
    26ae:	5f45                	li	t5,-15
    26b0:	205f 6f6c 676e      	0x676e6f6c205f
    26b6:	7520                	flw	fs0,104(a0)
    26b8:	736e                	flw	ft6,248(sp)
    26ba:	6769                	lui	a4,0x1a
    26bc:	656e                	flw	fa0,216(sp)
    26be:	2064                	fld	fs1,192(s0)
    26c0:	6e69                	lui	t3,0x1a
    26c2:	0074                	addi	a3,sp,12
    26c4:	5f5f 4955 544e      	0x544e49555f5f
    26ca:	414d                	li	sp,19
    26cc:	5f58                	lw	a4,60(a4)
    26ce:	5954                	lw	a3,52(a0)
    26d0:	4550                	lw	a2,12(a0)
    26d2:	5f5f 6c20 6e6f      	0x6e6f6c205f5f
    26d8:	6f6c2067          	0x6f6c2067
    26dc:	676e                	flw	fa4,216(sp)
    26de:	7520                	flw	fs0,104(a0)
    26e0:	736e                	flw	ft6,248(sp)
    26e2:	6769                	lui	a4,0x1a
    26e4:	656e                	flw	fa0,216(sp)
    26e6:	2064                	fld	fs1,192(s0)
    26e8:	6e69                	lui	t3,0x1a
    26ea:	0074                	addi	a3,sp,12
    26ec:	6974                	flw	fa3,84(a0)
    26ee:	656d                	lui	a0,0x1b
    26f0:	3072                	fld	ft0,312(sp)
    26f2:	5f00                	lw	s0,56(a4)
    26f4:	535f 4749 415f      	0x415f4749535f
    26fa:	4f54                	lw	a3,28(a4)
    26fc:	494d                	li	s2,19
    26fe:	49575f43          	fmadd.s	ft10,fa4,fs5,fs1,unknown
    2702:	5444                	lw	s1,44(s0)
    2704:	5f48                	lw	a0,60(a4)
    2706:	205f 3233 4900      	0x49003233205f
    270c:	544e                	lw	s0,240(sp)
    270e:	5450                	lw	a2,44(s0)
    2710:	5f52                	lw	t5,52(sp)
    2712:	494d                	li	s2,19
    2714:	204e                	fld	ft0,208(sp)
    2716:	2d28                	fld	fa0,88(a0)
    2718:	5f5f 4e49 5054      	0x50544e495f5f
    271e:	5254                	lw	a3,36(a2)
    2720:	4d5f 5841 5f5f      	0x5f5f58414d5f
    2726:	2d20                	fld	fs0,88(a0)
    2728:	3120                	fld	fs0,96(a0)
    272a:	0029                	c.nop	10
    272c:	5f5f 4e47 4355      	0x43554e475f5f
    2732:	505f 4552 4552      	0x45524552505f
    2738:	5f51                	li	t5,-12
    273a:	285f 616d 6d2c      	0x6d2c616d285f
    2740:	2969                	jal	2bda <__stack_size+0xbda>
    2742:	5f20                	lw	s0,120(a4)
    2744:	475f 554e 5f43      	0x5f43554e475f
    274a:	5250                	lw	a2,36(a2)
    274c:	5245                	li	tp,-15
    274e:	5145                	li	sp,-15
    2750:	6d28                	flw	fa0,88(a0)
    2752:	2c61                	jal	29ea <__stack_size+0x9ea>
    2754:	6d20                	flw	fs0,88(a0)
    2756:	2969                	jal	2bf0 <__stack_size+0xbf0>
    2758:	5f00                	lw	s0,56(a4)
    275a:	465f 5341 3854      	0x38545341465f
    2760:	0020                	addi	s0,sp,8
    2762:	5f5f 4853 5452      	0x545248535f5f
    2768:	4d5f 5841 5f5f      	0x5f5f58414d5f
    276e:	3020                	fld	fs0,96(s0)
    2770:	3778                	fld	fa4,232(a4)
    2772:	6666                	flw	fa2,88(sp)
    2774:	0066                	c.slli	zero,0x19
    2776:	6f697067          	0x6f697067
    277a:	0030                	addi	a2,sp,8
    277c:	5f5f 524f 4544      	0x4544524f5f5f
    2782:	5f52                	lw	t5,52(sp)
    2784:	4450                	lw	a2,12(s0)
    2786:	5f50                	lw	a2,60(a4)
    2788:	4e45                	li	t3,17
    278a:	4944                	lw	s1,20(a0)
    278c:	4e41                	li	t3,16
    278e:	5f5f 3320 3134      	0x313433205f5f
    2794:	0032                	c.slli	zero,0xc
    2796:	5f5f 4955 544e      	0x544e49555f5f
    279c:	4c5f 4145 5453      	0x545341454c5f
    27a2:	3631                	jal	22ae <__stack_size+0x2ae>
    27a4:	545f 5059 5f45      	0x5f455059545f
    27aa:	205f 6873 726f      	0x726f6873205f
    27b0:	2074                	fld	fa3,192(s0)
    27b2:	6e75                	lui	t3,0x1d
    27b4:	6e676973          	csrrsi	s2,0x6e6,14
    27b8:	6465                	lui	s0,0x19
    27ba:	6920                	flw	fs0,80(a0)
    27bc:	746e                	flw	fs0,248(sp)
    27be:	6e00                	flw	fs0,24(a2)
    27c0:	735f776f          	jal	a4,fa6f4 <__stack_size+0xf86f4>
    27c4:	6365                	lui	t1,0x19
    27c6:	5f00                	lw	s0,56(a4)
    27c8:	465f 544c 445f      	0x445f544c465f
    27ce:	4345                	li	t1,17
    27d0:	4d49                	li	s10,18
    27d2:	4c41                	li	s8,16
    27d4:	445f 4749 5f5f      	0x5f5f4749445f
    27da:	3920                	fld	fs0,112(a0)
    27dc:	5f00                	lw	s0,56(a4)
    27de:	495f 544e 3233      	0x3233544e495f
    27e4:	4d5f 5841 5f5f      	0x5f5f58414d5f
    27ea:	3020                	fld	fs0,96(s0)
    27ec:	3778                	fld	fa4,232(a4)
    27ee:	6666                	flw	fa2,88(sp)
    27f0:	6666                	flw	fa2,88(sp)
    27f2:	6666                	flw	fa2,88(sp)
    27f4:	4c66                	lw	s8,88(sp)
    27f6:	6300                	flw	fs0,0(a4)
    27f8:	7061                	c.lui	zero,0xffff8
    27fa:	635f 706d 735f      	0x735f706d635f
    2800:	6c65                	lui	s8,0x19
    2802:	5f00                	lw	s0,56(a4)
    2804:	4c5f 4244 5f4c      	0x5f4c42444c5f
    280a:	494d                	li	s2,19
    280c:	5f4e                	lw	t5,240(sp)
    280e:	5845                	li	a6,-15
    2810:	5f50                	lw	a2,60(a4)
    2812:	205f 2d28 3631      	0x36312d28205f
    2818:	29313833          	0x29313833
    281c:	5f00                	lw	s0,56(a4)
    281e:	575f 4e49 5f54      	0x5f544e49575f
    2824:	54444957          	0x54444957
    2828:	5f48                	lw	a0,60(a4)
    282a:	205f 3233 6900      	0x69003233205f
    2830:	7274                	flw	fa3,100(a2)
    2832:	735f 7374 4100      	0x41007374735f
    2838:	4250                	lw	a2,4(a2)
    283a:	545f 4d49 5245      	0x52454d49545f
    2840:	435f 3248 3020      	0x30203248435f
    2846:	3078                	fld	fa4,224(s0)
    2848:	0032                	c.slli	zero,0xc
    284a:	5f5f 4c46 3654      	0x36544c465f5f
    2850:	5834                	lw	a3,112(s0)
    2852:	4d5f 4e49 5f5f      	0x5f5f4e494d5f
    2858:	3320                	fld	fs0,96(a4)
    285a:	332e                	fld	ft6,232(sp)
    285c:	3236                	fld	ft4,360(sp)
    285e:	3031                	jal	206a <__stack_size+0x6a>
    2860:	33343133          	0x33343133
    2864:	3131                	jal	2470 <__stack_size+0x470>
    2866:	3032                	fld	ft0,296(sp)
    2868:	3339                	jal	2576 <__stack_size+0x576>
    286a:	3035                	jal	2096 <__stack_size+0x96>
    286c:	3236                	fld	ft4,360(sp)
    286e:	3236                	fld	ft4,360(sp)
    2870:	3736                	fld	fa4,360(sp)
    2872:	37313837          	lui	a6,0x37313
    2876:	37313233          	0x37313233
    287a:	3235                	jal	21a6 <__stack_size+0x1a6>
    287c:	3036                	fld	ft0,360(sp)
    287e:	2d65                	jal	2f36 <__stack_size+0xf36>
    2880:	3934                	fld	fa3,112(a0)
    2882:	36463233          	0x36463233
    2886:	7834                	flw	fa3,112(s0)
    2888:	6300                	flw	fs0,0(a4)
    288a:	7061                	c.lui	zero,0xffff8
    288c:	635f 706d 5f00      	0x5f00706d635f
    2892:	465f 544c 3233      	0x3233544c465f
    2898:	455f 5350 4c49      	0x4c495350455f
    289e:	5f5f4e4f          	fnmadd.q	ft8,ft10,fs5,fa1,rmm
    28a2:	3120                	fld	fs0,96(a0)
    28a4:	312e                	fld	ft2,232(sp)
    28a6:	3239                	jal	21b4 <__stack_size+0x1b4>
    28a8:	3930                	fld	fa2,112(a0)
    28aa:	3832                	fld	fa6,296(sp)
    28ac:	3539                	jal	26ba <__stack_size+0x6ba>
    28ae:	3035                	jal	20da <__stack_size+0xda>
    28b0:	32313837          	lui	a6,0x32313
    28b4:	3035                	jal	20e0 <__stack_size+0xe0>
    28b6:	3030                	fld	fa2,96(s0)
    28b8:	3030                	fld	fa2,96(s0)
    28ba:	3030                	fld	fa2,96(s0)
    28bc:	3030                	fld	fa2,96(s0)
    28be:	3030                	fld	fa2,96(s0)
    28c0:	3030                	fld	fa2,96(s0)
    28c2:	3030                	fld	fa2,96(s0)
    28c4:	3030                	fld	fa2,96(s0)
    28c6:	3030                	fld	fa2,96(s0)
    28c8:	2d65                	jal	2f80 <__stack_size+0xf80>
    28ca:	32334637          	lui	a2,0x32334
    28ce:	6300                	flw	fs0,0(a4)
    28d0:	6e68                	flw	fa0,92(a2)
    28d2:	6e5f 5f00 414d      	0x414d5f006e5f
    28d8:	4e494843          	fmadd.q	fa6,fs2,ft4,fs1,rmm
    28dc:	5f45                	li	t5,-15
    28de:	445f 4645 5541      	0x55414645445f
    28e4:	544c                	lw	a1,44(s0)
    28e6:	545f 5059 5345      	0x53455059545f
    28ec:	485f 0020 5f5f      	0x5f5f0020485f
    28f2:	4c46                	lw	s8,80(sp)
    28f4:	3154                	fld	fa3,160(a0)
    28f6:	3832                	fld	fa6,296(sp)
    28f8:	485f 5341 515f      	0x515f5341485f
    28fe:	4955                	li	s2,21
    2900:	5445                	li	s0,-15
    2902:	4e5f 4e41 5f5f      	0x5f5f4e414e5f
    2908:	3120                	fld	fs0,96(a0)
    290a:	5f00                	lw	s0,56(a4)
    290c:	445f 4345 3436      	0x34364345445f
    2912:	4d5f 5841 455f      	0x455f58414d5f
    2918:	5058                	lw	a4,36(s0)
    291a:	5f5f 3320 3538      	0x353833205f5f
    2920:	5f00                	lw	s0,56(a4)
    2922:	495f 544e 3233      	0x3233544e495f
    2928:	545f 5059 5f45      	0x5f455059545f
    292e:	205f 6f6c 676e      	0x676e6f6c205f
    2934:	6920                	flw	fs0,80(a0)
    2936:	746e                	flw	fs0,248(sp)
    2938:	5f00                	lw	s0,56(a4)
    293a:	465f 544c 3233      	0x3233544c465f
    2940:	5f58                	lw	a4,60(a4)
    2942:	494d                	li	s2,19
    2944:	5f4e                	lw	t5,240(sp)
    2946:	3031                	jal	2152 <__stack_size+0x152>
    2948:	455f 5058 5f5f      	0x5f5f5058455f
    294e:	2820                	fld	fs0,80(s0)
    2950:	332d                	jal	267a <__stack_size+0x67a>
    2952:	3730                	fld	fa2,104(a4)
    2954:	0029                	c.nop	10
    2956:	41484357          	0x41484357
    295a:	5f52                	lw	t5,52(sp)
    295c:	494d                	li	s2,19
    295e:	204e                	fld	ft0,208(sp)
    2960:	5f28                	lw	a0,120(a4)
    2962:	575f 4843 5241      	0x52414843575f
    2968:	4d5f 4e49 5f5f      	0x5f5f4e494d5f
    296e:	0029                	c.nop	10
    2970:	5f5f 4955 544e      	0x544e49555f5f
    2976:	465f 5341 3354      	0x33545341465f
    297c:	5f32                	lw	t5,44(sp)
    297e:	5954                	lw	a3,52(a0)
    2980:	4550                	lw	a2,12(a0)
    2982:	5f5f 7520 736e      	0x736e75205f5f
    2988:	6769                	lui	a4,0x1a
    298a:	656e                	flw	fa0,216(sp)
    298c:	2064                	fld	fs1,192(s0)
    298e:	6e69                	lui	t3,0x1a
    2990:	0074                	addi	a3,sp,12
    2992:	6c66                	flw	fs8,88(sp)
    2994:	6c5f776f          	jal	a4,fa858 <__stack_size+0xf8858>
    2998:	6465                	lui	s0,0x19
    299a:	735f 7974 656c      	0x656c7974735f
    29a0:	735f 6c65 6900      	0x69006c65735f
    29a6:	5f6e                	lw	t5,248(sp)
    29a8:	0076                	c.slli	zero,0x1d
    29aa:	5f5f 5845 2850      	0x285058455f5f
    29b0:	2978                	fld	fa4,208(a0)
    29b2:	5f20                	lw	s0,120(a4)
    29b4:	205f 2323 2078      	0x20782323205f
    29ba:	5f5f2323          	sw	s5,1510(t5) # 1a5e6 <__stack_size+0x185e6>
    29be:	5f00                	lw	s0,56(a4)
    29c0:	465f 544c 3436      	0x3436544c465f
    29c6:	5f58                	lw	a4,60(a4)
    29c8:	4148                	lw	a0,4(a0)
    29ca:	4e495f53          	0x4e495f53
    29ce:	4946                	lw	s2,80(sp)
    29d0:	494e                	lw	s2,208(sp)
    29d2:	5954                	lw	a3,52(a0)
    29d4:	5f5f 3120 5f00      	0x5f0031205f5f
    29da:	445f 4345 3231      	0x32314345445f
    29e0:	5f38                	lw	a4,120(a4)
    29e2:	494d                	li	s2,19
    29e4:	5f4e                	lw	t5,240(sp)
    29e6:	205f 4531 362d      	0x362d4531205f
    29ec:	3431                	jal	23f8 <__stack_size+0x3f8>
    29ee:	004c4433          	xor	s0,s8,tp
    29f2:	5f5f 4c46 3354      	0x33544c465f5f
    29f8:	5832                	lw	a6,44(sp)
    29fa:	4d5f 4e49 455f      	0x455f4e494d5f
    2a00:	5058                	lw	a4,36(s0)
    2a02:	5f5f 2820 312d      	0x312d28205f5f
    2a08:	3230                	fld	fa2,96(a2)
    2a0a:	2931                	jal	2e26 <__stack_size+0xe26>
    2a0c:	5f00                	lw	s0,56(a4)
    2a0e:	5f5f 6e69 3874      	0x38746e695f5f
    2a14:	745f 645f 6665      	0x6665645f745f
    2a1a:	6e69                	lui	t3,0x1a
    2a1c:	6465                	lui	s0,0x19
    2a1e:	3120                	fld	fs0,96(a0)
    2a20:	5f00                	lw	s0,56(a4)
    2a22:	495f 544e 3233      	0x3233544e495f
    2a28:	2220                	fld	fs0,64(a2)
    2a2a:	226c                	fld	fa1,192(a2)
    2a2c:	5f00                	lw	s0,56(a4)
    2a2e:	555f 4e49 5f54      	0x5f544e49555f
    2a34:	454c                	lw	a1,12(a0)
    2a36:	5341                	li	t1,-16
    2a38:	3354                	fld	fa3,160(a4)
    2a3a:	5f32                	lw	t5,44(sp)
    2a3c:	414d                	li	sp,19
    2a3e:	5f58                	lw	a4,60(a4)
    2a40:	205f 7830 6666      	0x66667830205f
    2a46:	6666                	flw	fa2,88(sp)
    2a48:	6666                	flw	fa2,88(sp)
    2a4a:	6666                	flw	fa2,88(sp)
    2a4c:	4c55                	li	s8,21
    2a4e:	5f00                	lw	s0,56(a4)
    2a50:	725f 7369 7663      	0x76637369725f
    2a56:	645f 7669 3120      	0x31207669645f
    2a5c:	5f00                	lw	s0,56(a4)
    2a5e:	4c5f 4244 5f4c      	0x5f4c42444c5f
    2a64:	4148                	lw	a0,4(a0)
    2a66:	55515f53          	0x55515f53
    2a6a:	4549                	li	a0,18
    2a6c:	5f54                	lw	a3,60(a4)
    2a6e:	414e                	lw	sp,208(sp)
    2a70:	5f4e                	lw	t5,240(sp)
    2a72:	205f 0031 5f5f      	0x5f5f0031205f
    2a78:	4e49                	li	t3,18
    2a7a:	3854                	fld	fa3,176(s0)
    2a7c:	545f 5059 5f45      	0x5f455059545f
    2a82:	205f 6973 6e67      	0x6e676973205f
    2a88:	6465                	lui	s0,0x19
    2a8a:	6320                	flw	fs0,64(a4)
    2a8c:	6168                	flw	fa0,68(a0)
    2a8e:	0072                	c.slli	zero,0x1c
    2a90:	6c66                	flw	fs8,88(sp)
    2a92:	6c5f776f          	jal	a4,fa956 <__stack_size+0xf8956>
    2a96:	6465                	lui	s0,0x19
    2a98:	6f5f 7475 765f      	0x765f74756f5f
    2a9e:	6c61                	lui	s8,0x18
    2aa0:	6575                	lui	a0,0x1d
    2aa2:	5700                	lw	s0,40(a4)
    2aa4:	4e49                	li	t3,18
    2aa6:	5f54                	lw	a3,60(a4)
    2aa8:	494d                	li	s2,19
    2aaa:	204e                	fld	ft0,208(sp)
    2aac:	5f28                	lw	a0,120(a4)
    2aae:	575f 4e49 5f54      	0x5f544e49575f
    2ab4:	494d                	li	s2,19
    2ab6:	5f4e                	lw	t5,240(sp)
    2ab8:	295f 4900 544e      	0x544e4900295f
    2abe:	4d5f3233          	0x4d5f3233
    2ac2:	5841                	li	a6,-16
    2ac4:	2820                	fld	fs0,80(s0)
    2ac6:	5f5f 4e49 3354      	0x33544e495f5f
    2acc:	5f32                	lw	t5,44(sp)
    2ace:	414d                	li	sp,19
    2ad0:	5f58                	lw	a4,60(a4)
    2ad2:	295f 5f00 4c5f      	0x4c5f5f00295f
    2ad8:	5241                	li	tp,-16
    2ada:	49464547          	fmsub.s	fa0,fa2,fs4,fs1,rmm
    2ade:	454c                	lw	a1,12(a0)
    2ae0:	565f 5349 4249      	0x42495349565f
    2ae6:	454c                	lw	a1,12(a0)
    2ae8:	3020                	fld	fs0,96(s0)
    2aea:	4900                	lw	s0,16(a0)
    2aec:	544e                	lw	s0,240(sp)
    2aee:	465f 5341 3654      	0x36545341465f
    2af4:	5f34                	lw	a3,120(a4)
    2af6:	414d                	li	sp,19
    2af8:	2058                	fld	fa4,128(s0)
    2afa:	5f28                	lw	a0,120(a4)
    2afc:	495f 544e 465f      	0x465f544e495f
    2b02:	5341                	li	t1,-16
    2b04:	3654                	fld	fa3,168(a2)
    2b06:	5f34                	lw	a3,120(a4)
    2b08:	414d                	li	sp,19
    2b0a:	5f58                	lw	a4,60(a4)
    2b0c:	295f 5f00 695f      	0x695f5f00295f
    2b12:	746e                	flw	fs0,248(sp)
    2b14:	665f 7361 3874      	0x38747361665f
    2b1a:	745f 645f 6665      	0x6665645f745f
    2b20:	6e69                	lui	t3,0x1a
    2b22:	6465                	lui	s0,0x19
    2b24:	3120                	fld	fs0,96(a0)
    2b26:	5000                	lw	s0,32(s0)
    2b28:	494c                	lw	a1,20(a0)
    2b2a:	5f5f0043          	fmadd.q	ft0,ft10,fs5,fa1,rne
    2b2e:	5041                	c.li	zero,-16
    2b30:	5f42                	lw	t5,48(sp)
    2b32:	4f495047          	fmsub.q	ft0,fs2,fs4,fs1,unknown
    2b36:	485f 0020 5f5f      	0x5f5f0020485f
    2b3c:	4955                	li	s2,21
    2b3e:	544e                	lw	s0,240(sp)
    2b40:	435f3233          	0x435f3233
    2b44:	6328                	flw	fa0,64(a4)
    2b46:	2029                	jal	2b50 <__stack_size+0xb50>
    2b48:	23232063          	0x23232063
    2b4c:	5520                	lw	s0,104(a0)
    2b4e:	004c                	addi	a1,sp,4
    2b50:	5f5f 4955 544e      	0x544e49555f5f
    2b56:	465f 5341 3654      	0x36545341465f
    2b5c:	5f34                	lw	a3,120(a4)
    2b5e:	414d                	li	sp,19
    2b60:	5f58                	lw	a4,60(a4)
    2b62:	205f 7830 6666      	0x66667830205f
    2b68:	6666                	flw	fa2,88(sp)
    2b6a:	6666                	flw	fa2,88(sp)
    2b6c:	6666                	flw	fa2,88(sp)
    2b6e:	6666                	flw	fa2,88(sp)
    2b70:	6666                	flw	fa2,88(sp)
    2b72:	6666                	flw	fa2,88(sp)
    2b74:	6666                	flw	fa2,88(sp)
    2b76:	4c55                	li	s8,21
    2b78:	004c                	addi	a1,sp,4
    2b7a:	5f5f 4955 544e      	0x544e49555f5f
    2b80:	465f 5341 3354      	0x33545341465f
    2b86:	5f32                	lw	t5,44(sp)
    2b88:	414d                	li	sp,19
    2b8a:	5f58                	lw	a4,60(a4)
    2b8c:	205f 7830 6666      	0x66667830205f
    2b92:	6666                	flw	fa2,88(sp)
    2b94:	6666                	flw	fa2,88(sp)
    2b96:	6666                	flw	fa2,88(sp)
    2b98:	0055                	c.nop	21
    2b9a:	5f5f 4e49 3154      	0x31544e495f5f
    2ba0:	2036                	fld	ft0,328(sp)
    2ba2:	6822                	flw	fa6,8(sp)
    2ba4:	0022                	c.slli	zero,0x8
    2ba6:	5f5f 4e49 3654      	0x36544e495f5f
    2bac:	5f34                	lw	a3,120(a4)
    2bae:	29632843          	fmadd.s	fa6,ft6,fs6,ft5,rdn
    2bb2:	6320                	flw	fs0,64(a4)
    2bb4:	2320                	fld	fs0,64(a4)
    2bb6:	4c4c2023          	sw	tp,1216(s8) # 184c0 <__stack_size+0x164c0>
    2bba:	5f00                	lw	s0,56(a4)
    2bbc:	465f 544c 3231      	0x3231544c465f
    2bc2:	5f38                	lw	a4,120(a4)
    2bc4:	5045                	c.li	zero,-15
    2bc6:	4f4c4953          	0x4f4c4953
    2bca:	5f4e                	lw	t5,240(sp)
    2bcc:	205f 2e31 3239      	0x32392e31205f
    2bd2:	3935                	jal	280e <__stack_size+0x80e>
    2bd4:	3932                	fld	fs2,296(sp)
    2bd6:	3439                	jal	25e4 <__stack_size+0x5e4>
    2bd8:	3334                	fld	fa3,96(a4)
    2bda:	3738                	fld	fa4,104(a4)
    2bdc:	3332                	fld	ft6,296(sp)
    2bde:	3835                	jal	241a <__stack_size+0x41a>
    2be0:	3335                	jal	290c <__stack_size+0x90c>
    2be2:	3530                	fld	fa2,104(a0)
    2be4:	3935                	jal	2820 <__stack_size+0x820>
    2be6:	34393737          	lui	a4,0x34393
    2bea:	3532                	fld	fa0,296(sp)
    2bec:	3438                	fld	fa4,104(s0)
    2bee:	3239                	jal	24fc <__stack_size+0x4fc>
    2bf0:	65323337          	lui	t1,0x65323
    2bf4:	332d                	jal	291e <__stack_size+0x91e>
    2bf6:	4634                	lw	a3,72(a2)
    2bf8:	3231                	jal	2504 <__stack_size+0x504>
    2bfa:	0038                	addi	a4,sp,8
    2bfc:	505f 534f 5849      	0x5849534f505f
    2c02:	435f 535f 554f      	0x554f535f435f
    2c08:	4352                	lw	t1,20(sp)
    2c0a:	0045                	c.nop	17
    2c0c:	5f5f 4953 455a      	0x455a49535f5f
    2c12:	4c5f464f          	0x4c5f464f
    2c16:	5f474e4f          	fnmadd.q	ft8,fa4,fs4,fa1,rmm
    2c1a:	4f4c                	lw	a1,28(a4)
    2c1c:	474e                	lw	a4,208(sp)
    2c1e:	5f5f 3820 5f00      	0x5f0038205f5f
    2c24:	555f 4e49 3854      	0x38544e49555f
    2c2a:	545f 5059 5f45      	0x5f455059545f
    2c30:	205f 6e75 6973      	0x69736e75205f
    2c36:	64656e67          	0x64656e67
    2c3a:	6320                	flw	fs0,64(a4)
    2c3c:	6168                	flw	fa0,68(a0)
    2c3e:	0072                	c.slli	zero,0x1c
    2c40:	5f5f 4853 5452      	0x545248535f5f
    2c46:	575f 4449 4854      	0x48544449575f
    2c4c:	5f5f 3120 0036      	0x3631205f5f
    2c52:	5f5f 6975 746e      	0x746e69755f5f
    2c58:	5f38                	lw	a4,120(a4)
    2c5a:	0074                	addi	a3,sp,12
    2c5c:	455a4953          	0x455a4953
    2c60:	4d5f 5841 2820      	0x282058414d5f
    2c66:	5f5f 4953 455a      	0x455a49535f5f
    2c6c:	4d5f 5841 5f5f      	0x5f5f58414d5f
    2c72:	0029                	c.nop	10
    2c74:	5f5f 4e49 5f54      	0x5f544e495f5f
    2c7a:	454c                	lw	a1,12(a0)
    2c7c:	5341                	li	t1,-16
    2c7e:	3654                	fld	fa3,168(a2)
    2c80:	5f34                	lw	a3,120(a4)
    2c82:	5954                	lw	a3,52(a0)
    2c84:	4550                	lw	a2,12(a0)
    2c86:	5f5f 6c20 6e6f      	0x6e6f6c205f5f
    2c8c:	6f6c2067          	0x6f6c2067
    2c90:	676e                	flw	fa4,216(sp)
    2c92:	6920                	flw	fs0,80(a0)
    2c94:	746e                	flw	fs0,248(sp)
    2c96:	5f00                	lw	s0,56(a4)
    2c98:	555f 4e49 3354      	0x33544e49555f
    2c9e:	5f32                	lw	t5,44(sp)
    2ca0:	5954                	lw	a3,52(a0)
    2ca2:	4550                	lw	a2,12(a0)
    2ca4:	5f5f 6c20 6e6f      	0x6e6f6c205f5f
    2caa:	6e752067          	0x6e752067
    2cae:	6e676973          	csrrsi	s2,0x6e6,14
    2cb2:	6465                	lui	s0,0x19
    2cb4:	6920                	flw	fs0,80(a0)
    2cb6:	746e                	flw	fs0,248(sp)
    2cb8:	5700                	lw	s0,40(a4)
    2cba:	4e49                	li	t3,18
    2cbc:	5f54                	lw	a3,60(a4)
    2cbe:	414d                	li	sp,19
    2cc0:	2058                	fld	fa4,128(s0)
    2cc2:	5f28                	lw	a0,120(a4)
    2cc4:	575f 4e49 5f54      	0x5f544e49575f
    2cca:	414d                	li	sp,19
    2ccc:	5f58                	lw	a4,60(a4)
    2cce:	295f 5f00 535f      	0x535f5f00295f
    2cd4:	5a49                	li	s4,-14
    2cd6:	4f45                	li	t5,17
    2cd8:	5f46                	lw	t5,112(sp)
    2cda:	4f50                	lw	a2,28(a4)
    2cdc:	4e49                	li	t3,18
    2cde:	4554                	lw	a3,12(a0)
    2ce0:	5f52                	lw	t5,52(sp)
    2ce2:	205f 0034 4d43      	0x4d430034205f
    2ce8:	5f50                	lw	a2,60(a4)
    2cea:	5f4c4553          	0x5f4c4553
    2cee:	314e4843          	fmadd.s	fa6,ft8,fs4,ft6,rmm
    2cf2:	3020                	fld	fs0,96(s0)
    2cf4:	3078                	fld	fa4,224(s0)
    2cf6:	0032                	c.slli	zero,0xc
    2cf8:	5f5f 4f50 4953      	0x49534f505f5f
    2cfe:	5f58                	lw	a4,60(a4)
    2d00:	4956                	lw	s2,84(sp)
    2d02:	4c424953          	0x4c424953
    2d06:	2045                	jal	2da6 <__stack_size+0xda6>
    2d08:	3032                	fld	ft0,296(sp)
    2d0a:	3830                	fld	fa2,112(s0)
    2d0c:	3930                	fld	fa2,112(a0)
    2d0e:	5f00                	lw	s0,56(a4)
    2d10:	4544                	lw	s1,12(a0)
    2d12:	4146                	lw	sp,80(sp)
    2d14:	4c55                	li	s8,21
    2d16:	5f54                	lw	a3,60(a4)
    2d18:	52554f53          	0x52554f53
    2d1c:	5f004543          	fmadd.q	fa0,ft0,fa6,fa1,rmm
    2d20:	575f 4843 5241      	0x52414843575f
    2d26:	4d5f 5841 5f5f      	0x5f5f58414d5f
    2d2c:	3020                	fld	fs0,96(s0)
    2d2e:	3778                	fld	fa4,232(a4)
    2d30:	6666                	flw	fa2,88(sp)
    2d32:	6666                	flw	fa2,88(sp)
    2d34:	6666                	flw	fa2,88(sp)
    2d36:	0066                	c.slli	zero,0x19
    2d38:	555f 4e49 4d54      	0x4d544e49555f
    2d3e:	5841                	li	a6,-16
    2d40:	545f 445f 4345      	0x4345445f545f
    2d46:	414c                	lw	a1,4(a0)
    2d48:	4552                	lw	a0,20(sp)
    2d4a:	2044                	fld	fs1,128(s0)
    2d4c:	5f00                	lw	s0,56(a4)
    2d4e:	495f 4f53 435f      	0x435f4f53495f
    2d54:	565f 5349 4249      	0x42495349565f
    2d5a:	454c                	lw	a1,12(a0)
    2d5c:	3220                	fld	fs0,96(a2)
    2d5e:	3130                	fld	fa2,96(a0)
    2d60:	0031                	c.nop	12
    2d62:	5f5f 4c46 5f54      	0x5f544c465f5f
    2d68:	4544                	lw	s1,12(a0)
    2d6a:	4f4e                	lw	t5,208(sp)
    2d6c:	4d52                	lw	s10,20(sp)
    2d6e:	4d5f 4e49 5f5f      	0x5f5f4e494d5f
    2d74:	3120                	fld	fs0,96(a0)
    2d76:	342e                	fld	fs0,232(sp)
    2d78:	3130                	fld	fa2,96(a0)
    2d7a:	3932                	fld	fs2,296(sp)
    2d7c:	3438                	fld	fa4,104(s0)
    2d7e:	3436                	fld	fs0,360(sp)
    2d80:	38343233          	0x38343233
    2d84:	3731                	jal	2c90 <__stack_size+0xc90>
    2d86:	3730                	fld	fa2,104(a4)
    2d88:	3930                	fld	fa2,112(a0)
    2d8a:	3332                	fld	ft6,296(sp)
    2d8c:	35393237          	lui	tp,0x35393
    2d90:	3338                	fld	fa4,96(a4)
    2d92:	3832                	fld	fa6,296(sp)
    2d94:	3939                	jal	29b2 <__stack_size+0x9b2>
    2d96:	3631                	jal	28a2 <__stack_size+0x8a2>
    2d98:	3331                	jal	2aa4 <__stack_size+0xaa4>
    2d9a:	2d65                	jal	3452 <__stack_size+0x1452>
    2d9c:	3534                	fld	fa3,104(a0)
    2d9e:	0046                	c.slli	zero,0x11
    2da0:	5f5f 4e49 5f54      	0x5f544e495f5f
    2da6:	54444957          	0x54444957
    2daa:	5f48                	lw	a0,60(a4)
    2dac:	205f 3233 5f00      	0x5f003233205f
    2db2:	465f 544c 3231      	0x3231544c465f
    2db8:	5f38                	lw	a4,120(a4)
    2dba:	4544                	lw	s1,12(a0)
    2dbc:	414d4943          	fmadd.s	fs2,fs10,fs4,fs0,rmm
    2dc0:	5f4c                	lw	a1,60(a4)
    2dc2:	4944                	lw	s1,20(a0)
    2dc4:	205f5f47          	fmsub.s	ft10,ft10,ft5,ft4,unknown
    2dc8:	5f003633          	0x5f003633
    2dcc:	555f 4e49 3654      	0x36544e49555f
    2dd2:	5f34                	lw	a3,120(a4)
    2dd4:	29632843          	fmadd.s	fa6,ft6,fs6,ft5,rdn
    2dd8:	6320                	flw	fs0,64(a4)
    2dda:	2320                	fld	fs0,64(a4)
    2ddc:	4c552023          	sw	t0,1216(a0) # 1d4c0 <__stack_size+0x1b4c0>
    2de0:	004c                	addi	a1,sp,4
    2de2:	616d                	addi	sp,sp,240
    2de4:	6e69                	lui	t3,0x1a
    2de6:	5500                	lw	s0,40(a0)
    2de8:	4e49                	li	t3,18
    2dea:	5f54                	lw	a3,60(a4)
    2dec:	4146                	lw	sp,80(sp)
    2dee:	36315453          	0x36315453
    2df2:	4d5f 5841 2820      	0x282058414d5f
    2df8:	5f5f 4955 544e      	0x544e49555f5f
    2dfe:	465f 5341 3154      	0x31545341465f
    2e04:	5f36                	lw	t5,108(sp)
    2e06:	414d                	li	sp,19
    2e08:	5f58                	lw	a4,60(a4)
    2e0a:	295f 5f00 725f      	0x725f5f00295f
    2e10:	7369                	lui	t1,0xffffa
    2e12:	665f7663          	bgeu	t5,t0,347e <__stack_size+0x147e>
    2e16:	6f6c                	flw	fa1,92(a4)
    2e18:	7461                	lui	s0,0xffff8
    2e1a:	615f 6962 735f      	0x735f6962615f
    2e20:	2074666f          	jal	a2,49826 <__stack_size+0x47826>
    2e24:	0031                	c.nop	12
    2e26:	5f5f 4347 5f43      	0x5f4343475f5f
    2e2c:	5441                	li	s0,-16
    2e2e:	43494d4f          	fnmadd.d	fs10,fs2,fs4,fs0,rmm
    2e32:	505f 494f 544e      	0x544e494f505f
    2e38:	5245                	li	tp,-15
    2e3a:	4c5f 434f 5f4b      	0x5f4b434f4c5f
    2e40:	5246                	lw	tp,112(sp)
    2e42:	4545                	li	a0,17
    2e44:	3120                	fld	fs0,96(a0)
    2e46:	5f00                	lw	s0,56(a4)
    2e48:	535f 4454 5f43      	0x5f434454535f
    2e4e:	4556                	lw	a0,84(sp)
    2e50:	5352                	lw	t1,52(sp)
    2e52:	4f49                	li	t5,18
    2e54:	5f4e                	lw	t5,240(sp)
    2e56:	205f 3032 3731      	0x37313032205f
    2e5c:	3031                	jal	2668 <__stack_size+0x668>
    2e5e:	004c                	addi	a1,sp,4
    2e60:	5450                	lw	a2,44(s0)
    2e62:	4452                	lw	s0,20(sp)
    2e64:	4649                	li	a2,18
    2e66:	5f46                	lw	t5,112(sp)
    2e68:	414d                	li	sp,19
    2e6a:	2058                	fld	fa4,128(s0)
    2e6c:	5f28                	lw	a0,120(a4)
    2e6e:	505f 5254 4944      	0x49445254505f
    2e74:	4646                	lw	a2,80(sp)
    2e76:	4d5f 5841 5f5f      	0x5f5f58414d5f
    2e7c:	0029                	c.nop	10
    2e7e:	5f5f 4347 5f43      	0x5f4343475f5f
    2e84:	5441                	li	s0,-16
    2e86:	43494d4f          	fnmadd.d	fs10,fs2,fs4,fs0,rmm
    2e8a:	435f 4148 3352      	0x33524148435f
    2e90:	5f32                	lw	t5,44(sp)
    2e92:	5f54                	lw	a3,60(a4)
    2e94:	4f4c                	lw	a1,28(a4)
    2e96:	465f4b43          	fmadd.q	fs6,ft10,ft5,fs0,rmm
    2e9a:	4552                	lw	a0,20(sp)
    2e9c:	2045                	jal	2f3c <__stack_size+0xf3c>
    2e9e:	0031                	c.nop	12
    2ea0:	4955                	li	s2,21
    2ea2:	544e                	lw	s0,240(sp)
    2ea4:	465f 5341 3354      	0x33545341465f
    2eaa:	5f32                	lw	t5,44(sp)
    2eac:	414d                	li	sp,19
    2eae:	2058                	fld	fa4,128(s0)
    2eb0:	5f28                	lw	a0,120(a4)
    2eb2:	555f 4e49 5f54      	0x5f544e49555f
    2eb8:	4146                	lw	sp,80(sp)
    2eba:	32335453          	0x32335453
    2ebe:	4d5f 5841 5f5f      	0x5f5f58414d5f
    2ec4:	0029                	c.nop	10
    2ec6:	7865                	lui	a6,0xffff9
    2ec8:	5f74                	lw	a3,124(a4)
    2eca:	7269                	lui	tp,0xffffa
    2ecc:	5f71                	li	t5,-4
    2ece:	6168                	flw	fa0,68(a0)
    2ed0:	646e                	flw	fs0,216(sp)
    2ed2:	656c                	flw	fa1,76(a0)
    2ed4:	0072                	c.slli	zero,0x1c
    2ed6:	6974                	flw	fa3,84(a0)
    2ed8:	656d                	lui	a0,0x1b
    2eda:	3072                	fld	ft0,312(sp)
    2edc:	695f 7274 685f      	0x685f7274695f
    2ee2:	6e61                	lui	t3,0x18
    2ee4:	6c64                	flw	fs1,92(s0)
    2ee6:	7265                	lui	tp,0xffff9
    2ee8:	5f00                	lw	s0,56(a4)
    2eea:	555f 4e49 4d54      	0x4d544e49555f
    2ef0:	5841                	li	a6,-16
    2ef2:	4d5f 5841 5f5f      	0x5f5f58414d5f
    2ef8:	3020                	fld	fs0,96(s0)
    2efa:	6678                	flw	fa4,76(a2)
    2efc:	6666                	flw	fa2,88(sp)
    2efe:	6666                	flw	fa2,88(sp)
    2f00:	6666                	flw	fa2,88(sp)
    2f02:	6666                	flw	fa2,88(sp)
    2f04:	6666                	flw	fa2,88(sp)
    2f06:	6666                	flw	fa2,88(sp)
    2f08:	6666                	flw	fa2,88(sp)
    2f0a:	5566                	lw	a0,120(sp)
    2f0c:	4c4c                	lw	a1,28(s0)
    2f0e:	5f00                	lw	s0,56(a4)
    2f10:	435f 4148 5f52      	0x5f524148435f
    2f16:	4942                	lw	s2,16(sp)
    2f18:	5f54                	lw	a3,60(a4)
    2f1a:	205f 0038 5449      	0x54490038205f
    2f20:	5f52                	lw	t5,52(sp)
    2f22:	4e49                	li	t3,18
    2f24:	5550                	lw	a2,44(a0)
    2f26:	5f54                	lw	a3,60(a4)
    2f28:	5f504143          	fmadd.q	ft2,ft0,fs5,fa1,rmm
    2f2c:	334e4843          	fmadd.d	fa6,ft8,fs4,ft6,rmm
    2f30:	4d5f 5341 204b      	0x204b53414d5f
    2f36:	7830                	flw	fa2,112(s0)
    2f38:	3031                	jal	2744 <__stack_size+0x744>
    2f3a:	4900                	lw	s0,16(a0)
    2f3c:	544e                	lw	s0,240(sp)
    2f3e:	4c5f 4145 5453      	0x545341454c5f
    2f44:	3631                	jal	2a50 <__stack_size+0xa50>
    2f46:	4d5f 5841 2820      	0x282058414d5f
    2f4c:	5f5f 4e49 5f54      	0x5f544e495f5f
    2f52:	454c                	lw	a1,12(a0)
    2f54:	5341                	li	t1,-16
    2f56:	3154                	fld	fa3,160(a0)
    2f58:	5f36                	lw	t5,108(sp)
    2f5a:	414d                	li	sp,19
    2f5c:	5f58                	lw	a4,60(a4)
    2f5e:	295f 5f00 535f      	0x535f5f00295f
    2f64:	4454                	lw	a3,12(s0)
    2f66:	4f485f43          	fmadd.q	ft10,fa6,fs4,fs1,unknown
    2f6a:	44455453          	0x44455453
    2f6e:	5f5f 3120 5f00      	0x5f0031205f5f
    2f74:	4955                	li	s2,21
    2f76:	544e                	lw	s0,240(sp)
    2f78:	5450                	lw	a2,44(s0)
    2f7a:	5f52                	lw	t5,52(sp)
    2f7c:	5f54                	lw	a3,60(a4)
    2f7e:	4544                	lw	s1,12(a0)
    2f80:	52414c43          	fmadd.d	fs8,ft2,ft4,fa0,rmm
    2f84:	4445                	li	s0,17
    2f86:	0020                	addi	s0,sp,8
    2f88:	4955                	li	s2,21
    2f8a:	544e                	lw	s0,240(sp)
    2f8c:	465f 5341 3854      	0x38545341465f
    2f92:	4d5f 5841 2820      	0x282058414d5f
    2f98:	5f5f 4955 544e      	0x544e49555f5f
    2f9e:	465f 5341 3854      	0x38545341465f
    2fa4:	4d5f 5841 5f5f      	0x5f5f58414d5f
    2faa:	0029                	c.nop	10
    2fac:	5f5f 4e49 5054      	0x50544e495f5f
    2fb2:	5254                	lw	a3,36(a2)
    2fb4:	4d5f 5841 5f5f      	0x5f5f58414d5f
    2fba:	3020                	fld	fs0,96(s0)
    2fbc:	3778                	fld	fa4,232(a4)
    2fbe:	6666                	flw	fa2,88(sp)
    2fc0:	6666                	flw	fa2,88(sp)
    2fc2:	6666                	flw	fa2,88(sp)
    2fc4:	0066                	c.slli	zero,0x19
    2fc6:	7469                	lui	s0,0xffffa
    2fc8:	5f72                	lw	t5,60(sp)
    2fca:	6e65                	lui	t3,0x19
    2fcc:	5f00                	lw	s0,56(a4)
    2fce:	685f 7361 695f      	0x695f7361685f
    2fd4:	636e                	flw	ft6,216(sp)
    2fd6:	756c                	flw	fa1,108(a0)
    2fd8:	6564                	flw	fs1,76(a0)
    2fda:	5328                	lw	a0,96(a4)
    2fdc:	5254                	lw	a3,36(a2)
    2fde:	2029                	jal	2fe8 <__stack_size+0xfe8>
    2fe0:	5f5f 6168 5f73      	0x5f7361685f5f
    2fe6:	6e69                	lui	t3,0x1a
    2fe8:	64756c63          	bltu	a0,t2,3640 <__stack_size+0x1640>
    2fec:	5f65                	li	t5,-7
    2fee:	285f 5453 2952      	0x29525453285f
    2ff4:	5f00                	lw	s0,56(a4)
    2ff6:	465f 544c 3233      	0x3233544c465f
    2ffc:	4d5f 5841 315f      	0x315f58414d5f
    3002:	5f30                	lw	a2,120(a4)
    3004:	5845                	li	a6,-15
    3006:	5f50                	lw	a2,60(a4)
    3008:	205f 3833 5f00      	0x5f003833205f
    300e:	535f 4454 4e49      	0x4e494454535f
    3014:	5f54                	lw	a3,60(a4)
    3016:	5845                	li	a6,-15
    3018:	2850                	fld	fa2,144(s0)
    301a:	2978                	fld	fa4,208(a0)
    301c:	5f20                	lw	s0,120(a4)
    301e:	205f 2323 2078      	0x20782323205f
    3024:	5f5f2323          	sw	s5,1510(t5)
    3028:	5f00                	lw	s0,56(a4)
    302a:	4e49                	li	t3,18
    302c:	3854                	fld	fa3,176(s0)
    302e:	545f 445f 4345      	0x4345445f545f
    3034:	414c                	lw	a1,4(a0)
    3036:	4552                	lw	a0,20(sp)
    3038:	2044                	fld	fs1,128(s0)
    303a:	5f00                	lw	s0,56(a4)
    303c:	475f 4343 415f      	0x415f4343475f
    3042:	4f54                	lw	a3,28(a4)
    3044:	494d                	li	s2,19
    3046:	4c4c5f43          	0x4c4c5f43
    304a:	5f474e4f          	fnmadd.q	ft8,fa4,fs4,fa1,rmm
    304e:	4f4c                	lw	a1,28(a4)
    3050:	465f4b43          	fmadd.q	fs6,ft10,ft5,fs0,rmm
    3054:	4552                	lw	a0,20(sp)
    3056:	2045                	jal	30f6 <__stack_size+0x10f6>
    3058:	0031                	c.nop	12
    305a:	5f5f 4c46 5f54      	0x5f544c465f5f
    3060:	414d                	li	sp,19
    3062:	5f58                	lw	a4,60(a4)
    3064:	5845                	li	a6,-15
    3066:	5f50                	lw	a2,60(a4)
    3068:	205f 3231 0038      	0x383231205f
    306e:	5f504143          	fmadd.q	ft2,ft0,fs5,fa1,rmm
    3072:	5f4c4553          	0x5f4c4553
    3076:	324e4843          	fmadd.d	fa6,ft8,ft4,ft6,rmm
    307a:	3020                	fld	fs0,96(s0)
    307c:	3078                	fld	fa4,224(s0)
    307e:	0030                	addi	a2,sp,8
    3080:	5f5f 5441 4d4f      	0x4d4f54415f5f
    3086:	4349                	li	t1,18
    3088:	415f 5143 525f      	0x525f5143415f
    308e:	4c45                	li	s8,17
    3090:	3420                	fld	fs0,104(s0)
    3092:	5f00                	lw	s0,56(a4)
    3094:	4c5f 4244 5f4c      	0x5f4c42444c5f
    309a:	4944                	lw	s1,20(a0)
    309c:	205f5f47          	fmsub.s	ft10,ft10,ft5,ft4,unknown
    30a0:	5f003333          	0x5f003333
    30a4:	465f 544c 3231      	0x3231544c465f
    30aa:	5f38                	lw	a4,120(a4)
    30ac:	414d                	li	sp,19
    30ae:	544e                	lw	s0,240(sp)
    30b0:	445f 4749 5f5f      	0x5f5f4749445f
    30b6:	3120                	fld	fs0,96(a0)
    30b8:	3331                	jal	2dc4 <__stack_size+0xdc4>
    30ba:	6200                	flw	fs0,0(a2)
    30bc:	7361                	lui	t1,0xffff8
    30be:	5f65                	li	t5,-7
    30c0:	6461                	lui	s0,0x18
    30c2:	7264                	flw	fs1,100(a2)
    30c4:	5f00                	lw	s0,56(a4)
    30c6:	445f 4345 3233      	0x32334345445f
    30cc:	4d5f 4e49 455f      	0x455f4e494d5f
    30d2:	5058                	lw	a4,36(s0)
    30d4:	5f5f 2820 392d      	0x392d28205f5f
    30da:	2934                	fld	fa3,80(a0)
    30dc:	6500                	flw	fs0,8(a0)
    30de:	6764                	flw	fs1,76(a4)
    30e0:	5f65                	li	t5,-7
    30e2:	6564                	flw	fs1,76(a0)
    30e4:	6574                	flw	fa3,76(a0)
    30e6:	745f7463          	bgeu	t5,t0,382e <__stack_size+0x182e>
    30ea:	7079                	c.lui	zero,0xffffe
    30ec:	0065                	c.nop	25
    30ee:	5f5f 6975 746e      	0x746e69755f5f
    30f4:	745f3233          	0x745f3233
    30f8:	5f00                	lw	s0,56(a4)
    30fa:	465f 544c 4d5f      	0x4d5f544c465f
    3100:	4e49                	li	t3,18
    3102:	5f5f 3120 312e      	0x312e31205f5f
    3108:	39343537          	lui	a0,0x39343
    310c:	3334                	fld	fa3,96(a4)
    310e:	3035                	jal	293a <__stack_size+0x93a>
    3110:	3238                	fld	fa4,96(a2)
    3112:	3232                	fld	ft4,296(sp)
    3114:	3738                	fld	fa4,104(a4)
    3116:	3035                	jal	2942 <__stack_size+0x942>
    3118:	38363937          	lui	s2,0x38363
    311c:	35363337          	lui	t1,0x35363
    3120:	32323733          	0x32323733
    3124:	3232                	fld	ft4,296(sp)
    3126:	3534                	fld	fa3,104(a0)
    3128:	3836                	fld	fa6,360(sp)
    312a:	2d65                	jal	37e2 <__stack_size+0x17e2>
    312c:	00463833          	sltu	a6,a2,tp
    3130:	5f5f 494d 4353      	0x4353494d5f5f
    3136:	565f 5349 4249      	0x42495349565f
    313c:	454c                	lw	a1,12(a0)
    313e:	3120                	fld	fs0,96(a0)
    3140:	5f00                	lw	s0,56(a4)
    3142:	495f 544e 5450      	0x5450544e495f
    3148:	5f52                	lw	t5,52(sp)
    314a:	5954                	lw	a3,52(a0)
    314c:	4550                	lw	a2,12(a0)
    314e:	5f5f 6920 746e      	0x746e69205f5f
    3154:	5f00                	lw	s0,56(a4)
    3156:	445f 4345 455f      	0x455f4345445f
    315c:	4156                	lw	sp,84(sp)
    315e:	5f4c                	lw	a1,60(a4)
    3160:	454d                	li	a0,19
    3162:	4854                	lw	a3,20(s0)
    3164:	5f5f444f          	fnmadd.q	fs0,ft10,fs5,fa1,rmm
    3168:	3220                	fld	fs0,96(a2)
    316a:	5f00                	lw	s0,56(a4)
    316c:	695f 746e 3032      	0x3032746e695f
    3172:	5f00                	lw	s0,56(a4)
    3174:	4c5f 4244 5f4c      	0x5f4c42444c5f
    317a:	4544                	lw	s1,12(a0)
    317c:	414d4943          	fmadd.s	fs2,fs10,fs4,fs0,rmm
    3180:	5f4c                	lw	a1,60(a4)
    3182:	4944                	lw	s1,20(a0)
    3184:	205f5f47          	fmsub.s	ft10,ft10,ft5,ft4,unknown
    3188:	55003633          	0x55003633
    318c:	4e49                	li	t3,18
    318e:	5f54                	lw	a3,60(a4)
    3190:	4146                	lw	sp,80(sp)
    3192:	34365453          	0x34365453
    3196:	4d5f 5841 2820      	0x282058414d5f
    319c:	5f5f 4955 544e      	0x544e49555f5f
    31a2:	465f 5341 3654      	0x36545341465f
    31a8:	5f34                	lw	a3,120(a4)
    31aa:	414d                	li	sp,19
    31ac:	5f58                	lw	a4,60(a4)
    31ae:	295f 5f00 495f      	0x495f5f00295f
    31b4:	544e                	lw	s0,240(sp)
    31b6:	4c5f 4145 5453      	0x545341454c5f
    31bc:	575f3233          	0x575f3233
    31c0:	4449                	li	s0,18
    31c2:	4854                	lw	a3,20(s0)
    31c4:	5f5f 3320 0032      	0x3233205f5f
    31ca:	4955                	li	s2,21
    31cc:	544e                	lw	s0,240(sp)
    31ce:	4c5f 4145 5453      	0x545341454c5f
    31d4:	3631                	jal	2ce0 <__stack_size+0xce0>
    31d6:	4d5f 5841 2820      	0x282058414d5f
    31dc:	5f5f 4955 544e      	0x544e49555f5f
    31e2:	4c5f 4145 5453      	0x545341454c5f
    31e8:	3631                	jal	2cf4 <__stack_size+0xcf4>
    31ea:	4d5f 5841 5f5f      	0x5f5f58414d5f
    31f0:	0029                	c.nop	10
    31f2:	5f5f 7061 5f62      	0x5f6270615f5f
    31f8:	6974                	flw	fa3,84(a0)
    31fa:	656d                	lui	a0,0x1b
    31fc:	5f72                	lw	t5,60(sp)
    31fe:	5f746567          	0x5f746567
    3202:	7270                	flw	fa2,100(a2)
    3204:	7365                	lui	t1,0xffff9
    3206:	656c6163          	bltu	s8,s6,3848 <__stack_size+0x1848>
    320a:	7428                	flw	fa0,104(s0)
    320c:	6d69                	lui	s10,0x1a
    320e:	7265                	lui	tp,0xffff9
    3210:	2029                	jal	321a <__stack_size+0x121a>
    3212:	2828                	fld	fa0,80(s0)
    3214:	6974                	flw	fa3,84(a0)
    3216:	656d                	lui	a0,0x1b
    3218:	2972                	fld	fs2,280(sp)
    321a:	3e2d                	jal	2d54 <__stack_size+0xd54>
    321c:	7270                	flw	fa2,100(a2)
    321e:	7365                	lui	t1,0xffff9
    3220:	656c6163          	bltu	s8,s6,3862 <__stack_size+0x1862>
    3224:	0029                	c.nop	10
    3226:	5f5f 4953 455a      	0x455a49535f5f
    322c:	545f 5059 5f45      	0x5f455059545f
    3232:	205f 6e75 6973      	0x69736e75205f
    3238:	64656e67          	0x64656e67
    323c:	6920                	flw	fs0,80(a0)
    323e:	746e                	flw	fs0,248(sp)
    3240:	5f00                	lw	s0,56(a4)
    3242:	415f 4654 4c49      	0x4c494654415f
    3248:	5f45                	li	t5,-15
    324a:	4956                	lw	s2,84(sp)
    324c:	4c424953          	0x4c424953
    3250:	2045                	jal	32f0 <__stack_size+0x12f0>
    3252:	0031                	c.nop	12
    3254:	4e49                	li	t3,18
    3256:	5f54                	lw	a3,60(a4)
    3258:	4146                	lw	sp,80(sp)
    325a:	36315453          	0x36315453
    325e:	4d5f 4e49 2820      	0x28204e494d5f
    3264:	5f2d                	li	t5,-21
    3266:	495f 544e 465f      	0x465f544e495f
    326c:	5341                	li	t1,-16
    326e:	3154                	fld	fa3,160(a0)
    3270:	5f36                	lw	t5,108(sp)
    3272:	414d                	li	sp,19
    3274:	5f58                	lw	a4,60(a4)
    3276:	205f 202d 2931      	0x2931202d205f
    327c:	5f00                	lw	s0,56(a4)
    327e:	455f 5058 4900      	0x49005058455f
    3284:	544e                	lw	s0,240(sp)
    3286:	3436                	fld	fs0,360(sp)
    3288:	435f 7828 2029      	0x20297828435f
    328e:	5f5f 4e49 3654      	0x36544e495f5f
    3294:	5f34                	lw	a3,120(a4)
    3296:	29782843          	fmadd.s	fa6,fa6,fs7,ft5,rdn
    329a:	5f00                	lw	s0,56(a4)
    329c:	475f 4343 415f      	0x415f4343475f
    32a2:	4f54                	lw	a3,28(a4)
    32a4:	494d                	li	s2,19
    32a6:	48535f43          	fmadd.s	ft10,ft6,ft5,fs1,unknown
    32aa:	5f54524f          	fnmadd.q	ft4,fs0,fs5,fa1,unknown
    32ae:	4f4c                	lw	a1,28(a4)
    32b0:	465f4b43          	fmadd.q	fs6,ft10,ft5,fs0,rmm
    32b4:	4552                	lw	a0,20(sp)
    32b6:	2045                	jal	3356 <__stack_size+0x1356>
    32b8:	0031                	c.nop	12
    32ba:	505f 534f 5849      	0x5849534f505f
    32c0:	535f 554f 4352      	0x4352554f535f
    32c6:	2045                	jal	3366 <__stack_size+0x1366>
    32c8:	0031                	c.nop	12
    32ca:	5f5f 695f 746e      	0x746e695f5f5f
    32d0:	6c5f 6165 7473      	0x747361656c5f
    32d6:	5f38                	lw	a4,120(a4)
    32d8:	5f74                	lw	a3,124(a4)
    32da:	6564                	flw	fs1,76(a0)
    32dc:	6966                	flw	fs2,88(sp)
    32de:	656e                	flw	fa0,216(sp)
    32e0:	2064                	fld	fs1,192(s0)
    32e2:	0031                	c.nop	12
    32e4:	5f5f 5450 4452      	0x445254505f5f
    32ea:	4649                	li	a2,18
    32ec:	5f46                	lw	t5,112(sp)
    32ee:	54444957          	0x54444957
    32f2:	5f48                	lw	a0,60(a4)
    32f4:	205f 3233 7500      	0x75003233205f
    32fa:	736e                	flw	ft6,248(sp)
    32fc:	6769                	lui	a4,0x1a
    32fe:	656e                	flw	fa0,216(sp)
    3300:	2064                	fld	fs1,192(s0)
    3302:	5f00302b          	0x5f00302b
    3306:	465f 544c 455f      	0x455f544c465f
    330c:	5350                	lw	a2,36(a4)
    330e:	4c49                	li	s8,18
    3310:	5f5f4e4f          	fnmadd.q	ft8,ft10,fs5,fa1,rmm
    3314:	3120                	fld	fs0,96(a0)
    3316:	312e                	fld	ft2,232(sp)
    3318:	3239                	jal	2c26 <__stack_size+0xc26>
    331a:	3930                	fld	fa2,112(a0)
    331c:	3832                	fld	fa6,296(sp)
    331e:	3539                	jal	312c <__stack_size+0x112c>
    3320:	3035                	jal	2b4c <__stack_size+0xb4c>
    3322:	32313837          	lui	a6,0x32313
    3326:	3035                	jal	2b52 <__stack_size+0xb52>
    3328:	3030                	fld	fa2,96(s0)
    332a:	3030                	fld	fa2,96(s0)
    332c:	3030                	fld	fa2,96(s0)
    332e:	3030                	fld	fa2,96(s0)
    3330:	3030                	fld	fa2,96(s0)
    3332:	3030                	fld	fa2,96(s0)
    3334:	3030                	fld	fa2,96(s0)
    3336:	3030                	fld	fa2,96(s0)
    3338:	3030                	fld	fa2,96(s0)
    333a:	2d65                	jal	39f2 <__stack_size+0x19f2>
    333c:	5f004637          	lui	a2,0x5f004
    3340:	465f 544c 3436      	0x3436544c465f
    3346:	4d5f 4e49 455f      	0x455f4e494d5f
    334c:	5058                	lw	a4,36(s0)
    334e:	5f5f 2820 312d      	0x312d28205f5f
    3354:	3230                	fld	fa2,96(a2)
    3356:	2931                	jal	3772 <__stack_size+0x1772>
    3358:	4900                	lw	s0,16(a0)
    335a:	5254                	lw	a3,36(a2)
    335c:	495f 504e 5455      	0x5455504e495f
    3362:	435f 5041 435f      	0x435f5041435f
    3368:	4e48                	lw	a0,28(a2)
    336a:	5f32                	lw	t5,44(sp)
    336c:	414d                	li	sp,19
    336e:	30204b53          	0x30204b53
    3372:	3078                	fld	fa4,224(s0)
    3374:	0038                	addi	a4,sp,8
    3376:	5f5f 4c46 5f54      	0x5f544c465f5f
    337c:	5645                	li	a2,-15
    337e:	4c41                	li	s8,16
    3380:	4d5f 5445 4f48      	0x4f4854454d5f
    3386:	5f44                	lw	s1,60(a4)
    3388:	5354                	lw	a3,36(a4)
    338a:	315f 3638 3136      	0x31363638315f
    3390:	335f 5f5f 3020      	0x30205f5f335f
    3396:	5f00                	lw	s0,56(a4)
    3398:	445f 4c42 485f      	0x485f4c42445f
    339e:	5341                	li	t1,-16
    33a0:	495f 464e 4e49      	0x4e49464e495f
    33a6:	5449                	li	s0,-14
    33a8:	5f59                	li	t5,-10
    33aa:	205f 0031 5f5f      	0x5f5f0031205f
    33b0:	4e49                	li	t3,18
    33b2:	5f54                	lw	a3,60(a4)
    33b4:	4146                	lw	sp,80(sp)
    33b6:	32335453          	0x32335453
    33ba:	545f 5059 5f45      	0x5f455059545f
    33c0:	205f 6e69 0074      	0x746e69205f
    33c6:	5f5f 4c46 5f54      	0x5f544c465f5f
    33cc:	4148                	lw	a0,4(a0)
    33ce:	55515f53          	0x55515f53
    33d2:	4549                	li	a0,18
    33d4:	5f54                	lw	a3,60(a4)
    33d6:	414e                	lw	sp,208(sp)
    33d8:	5f4e                	lw	t5,240(sp)
    33da:	205f 0031 5f5f      	0x5f5f0031205f
    33e0:	455a4953          	0x455a4953
    33e4:	495f464f          	fnmadd.s	fa2,ft10,fs5,fs1,rmm
    33e8:	544e                	lw	s0,240(sp)
    33ea:	5f5f 3420 4100      	0x410034205f5f
    33f0:	4250                	lw	a2,4(a2)
    33f2:	545f 4d49 5245      	0x52454d49545f
    33f8:	435f 3048 3020      	0x30203048435f
    33fe:	3078                	fld	fa4,224(s0)
    3400:	0030                	addi	a2,sp,8
    3402:	5f5f 4e49 4d54      	0x4d544e495f5f
    3408:	5841                	li	a6,-16
    340a:	545f 5059 5f45      	0x5f455059545f
    3410:	205f 6f6c 676e      	0x676e6f6c205f
    3416:	6c20                	flw	fs0,88(s0)
    3418:	20676e6f          	jal	t3,7961e <__stack_size+0x7761e>
    341c:	6e69                	lui	t3,0x1a
    341e:	0074                	addi	a3,sp,12
    3420:	5f5f 6972 6373      	0x637369725f5f
    3426:	2076                	fld	ft0,344(sp)
    3428:	0031                	c.nop	12
    342a:	5f5f 4e49 4d54      	0x4d544e495f5f
    3430:	5841                	li	a6,-16
    3432:	435f 6328 2029      	0x20296328435f
    3438:	23232063          	0x23232063
    343c:	4c20                	lw	s0,88(s0)
    343e:	004c                	addi	a1,sp,4
    3440:	6f6e                	flw	ft10,216(sp)
    3442:	74695f77          	0x74695f77
    3446:	5f72                	lw	t5,60(sp)
    3448:	6469                	lui	s0,0x1a
    344a:	7400                	flw	fs0,40(s0)
    344c:	6275                	lui	tp,0x1d
    344e:	5f65                	li	t5,-7
    3450:	6964                	flw	fs1,84(a0)
    3452:	65735f67          	0x65735f67
    3456:	006c                	addi	a1,sp,12
    3458:	4e5f 5745 494c      	0x494c57454e5f
    345e:	5f42                	lw	t5,48(sp)
    3460:	4556                	lw	a0,84(sp)
    3462:	5352                	lw	t1,52(sp)
    3464:	4f49                	li	t5,18
    3466:	5f4e                	lw	t5,240(sp)
    3468:	5f48                	lw	a0,60(a4)
    346a:	205f 0031 4e49      	0x4e490031205f
    3470:	4d54                	lw	a3,28(a0)
    3472:	5841                	li	a6,-16
    3474:	435f 7828 2029      	0x20297828435f
    347a:	5f5f 4e49 4d54      	0x4d544e495f5f
    3480:	5841                	li	a6,-16
    3482:	435f 7828 0029      	0x297828435f
    3488:	5f5f 4955 544e      	0x544e49555f5f
    348e:	3436                	fld	fs0,360(sp)
    3490:	545f 5059 5f45      	0x5f455059545f
    3496:	205f 6f6c 676e      	0x676e6f6c205f
    349c:	6c20                	flw	fs0,88(s0)
    349e:	20676e6f          	jal	t3,796a4 <__stack_size+0x776a4>
    34a2:	6e75                	lui	t3,0x1d
    34a4:	6e676973          	csrrsi	s2,0x6e6,14
    34a8:	6465                	lui	s0,0x19
    34aa:	6920                	flw	fs0,80(a0)
    34ac:	746e                	flw	fs0,248(sp)
    34ae:	4900                	lw	s0,16(a0)
    34b0:	544e                	lw	s0,240(sp)
    34b2:	414d                	li	sp,19
    34b4:	5f58                	lw	a4,60(a4)
    34b6:	414d                	li	sp,19
    34b8:	2058                	fld	fa4,128(s0)
    34ba:	5f28                	lw	a0,120(a4)
    34bc:	495f 544e 414d      	0x414d544e495f
    34c2:	5f58                	lw	a4,60(a4)
    34c4:	414d                	li	sp,19
    34c6:	5f58                	lw	a4,60(a4)
    34c8:	295f 5f00 465f      	0x465f5f00295f
    34ce:	544c                	lw	a1,44(s0)
    34d0:	5f583233          	0x5f583233
    34d4:	4148                	lw	a0,4(a0)
    34d6:	55515f53          	0x55515f53
    34da:	4549                	li	a0,18
    34dc:	5f54                	lw	a3,60(a4)
    34de:	414e                	lw	sp,208(sp)
    34e0:	5f4e                	lw	t5,240(sp)
    34e2:	205f 0031 5f5f      	0x5f5f0031205f
    34e8:	4244                	lw	s1,4(a2)
    34ea:	5f4c                	lw	a1,60(a4)
    34ec:	414d                	li	sp,19
    34ee:	5f58                	lw	a4,60(a4)
    34f0:	3031                	jal	2cfc <__stack_size+0xcfc>
    34f2:	455f 5058 5f5f      	0x5f5f5058455f
    34f8:	3320                	fld	fs0,96(a4)
    34fa:	3830                	fld	fa2,112(s0)
    34fc:	4900                	lw	s0,16(a0)
    34fe:	544e                	lw	s0,240(sp)
    3500:	5f38                	lw	a4,120(a4)
    3502:	494d                	li	s2,19
    3504:	204e                	fld	ft0,208(sp)
    3506:	2d28                	fld	fa0,88(a0)
    3508:	5f5f 4e49 3854      	0x38544e495f5f
    350e:	4d5f 5841 5f5f      	0x5f5f58414d5f
    3514:	2d20                	fld	fs0,88(a0)
    3516:	3120                	fld	fs0,96(a0)
    3518:	0029                	c.nop	10
    351a:	5f5f 4953 455a      	0x455a49535f5f
    3520:	465f464f          	fnmadd.q	fa2,ft10,ft5,fs0,rmm
    3524:	4f4c                	lw	a1,28(a4)
    3526:	5441                	li	s0,-16
    3528:	5f5f 3420 4100      	0x410034205f5f
    352e:	4250                	lw	a2,4(a2)
    3530:	545f 4d49 5245      	0x52454d49545f
    3536:	435f 3148 3020      	0x30203148435f
    353c:	3078                	fld	fa4,224(s0)
    353e:	0031                	c.nop	12
    3540:	5f5f 4942 4747      	0x474749425f5f
    3546:	5345                	li	t1,-15
    3548:	5f54                	lw	a3,60(a4)
    354a:	4c41                	li	s8,16
    354c:	4749                	li	a4,18
    354e:	4d4e                	lw	s10,208(sp)
    3550:	4e45                	li	t3,17
    3552:	5f54                	lw	a3,60(a4)
    3554:	205f 3631 4900      	0x49003631205f
    355a:	544e                	lw	s0,240(sp)
    355c:	465f 5341 3854      	0x38545341465f
    3562:	4d5f 4e49 2820      	0x28204e494d5f
    3568:	5f2d                	li	t5,-21
    356a:	495f 544e 465f      	0x465f544e495f
    3570:	5341                	li	t1,-16
    3572:	3854                	fld	fa3,176(s0)
    3574:	4d5f 5841 5f5f      	0x5f5f58414d5f
    357a:	2d20                	fld	fs0,88(a0)
    357c:	3120                	fld	fs0,96(a0)
    357e:	0029                	c.nop	10
    3580:	5f5f 4c46 3154      	0x31544c465f5f
    3586:	3832                	fld	fa6,296(sp)
    3588:	445f 4e45 524f      	0x524f4e45445f
    358e:	5f4d                	li	t5,-13
    3590:	494d                	li	s2,19
    3592:	5f4e                	lw	t5,240(sp)
    3594:	205f 2e36 3734      	0x37342e36205f
    359a:	3135                	jal	31c6 <__stack_size+0x11c6>
    359c:	31313537          	lui	a0,0x31313
    35a0:	3439                	jal	2fae <__stack_size+0xfae>
    35a2:	32303833          	0x32303833
    35a6:	3135                	jal	31d2 <__stack_size+0x11d2>
    35a8:	3031                	jal	2db4 <__stack_size+0xdb4>
    35aa:	3239                	jal	2eb8 <__stack_size+0xeb8>
    35ac:	3434                	fld	fa3,104(s0)
    35ae:	35393833          	0x35393833
    35b2:	3238                	fld	fa4,96(a2)
    35b4:	3732                	fld	fa4,296(sp)
    35b6:	3436                	fld	fs0,360(sp)
    35b8:	3536                	fld	fa0,360(sp)
    35ba:	6535                	lui	a0,0xd
    35bc:	342d                	jal	2fe6 <__stack_size+0xfe6>
    35be:	3639                	jal	30cc <__stack_size+0x10cc>
    35c0:	4636                	lw	a2,76(sp)
    35c2:	3231                	jal	2ece <__stack_size+0xece>
    35c4:	0038                	addi	a4,sp,8
    35c6:	4e49                	li	t3,18
    35c8:	5f54                	lw	a3,60(a4)
    35ca:	4146                	lw	sp,80(sp)
    35cc:	5f385453          	0x5f385453
    35d0:	414d                	li	sp,19
    35d2:	2058                	fld	fa4,128(s0)
    35d4:	5f28                	lw	a0,120(a4)
    35d6:	495f 544e 465f      	0x465f544e495f
    35dc:	5341                	li	t1,-16
    35de:	3854                	fld	fa3,176(s0)
    35e0:	4d5f 5841 5f5f      	0x5f5f58414d5f
    35e6:	0029                	c.nop	10
    35e8:	5f5f 4e49 5f54      	0x5f544e495f5f
    35ee:	4146                	lw	sp,80(sp)
    35f0:	5f385453          	0x5f385453
    35f4:	54444957          	0x54444957
    35f8:	5f48                	lw	a0,60(a4)
    35fa:	205f 3233 5000      	0x50003233205f
    3600:	5254                	lw	a3,36(a2)
    3602:	4944                	lw	s1,20(a0)
    3604:	4646                	lw	a2,80(sp)
    3606:	4d5f 4e49 2820      	0x28204e494d5f
    360c:	502d                	c.li	zero,-21
    360e:	5254                	lw	a3,36(a2)
    3610:	4944                	lw	s1,20(a0)
    3612:	4646                	lw	a2,80(sp)
    3614:	4d5f 5841 2d20      	0x2d2058414d5f
    361a:	3120                	fld	fs0,96(a0)
    361c:	0029                	c.nop	10
    361e:	5f5f 4c46 5f54      	0x5f544c465f5f
    3624:	494d                	li	s2,19
    3626:	5f4e                	lw	t5,240(sp)
    3628:	5845                	li	a6,-15
    362a:	5f50                	lw	a2,60(a4)
    362c:	205f 2d28 3231      	0x32312d28205f
    3632:	2935                	jal	3a6e <__stack_size+0x1a6e>
    3634:	6500                	flw	fs0,8(a0)
    3636:	6764                	flw	fs1,76(a4)
    3638:	5f65                	li	t5,-7
    363a:	6966                	flw	fs2,88(sp)
    363c:	746c                	flw	fa1,108(s0)
    363e:	7265                	lui	tp,0xffff9
    3640:	745f 0068 5f5f      	0x5f5f0068745f
    3646:	5f434347          	fmsub.q	ft6,ft6,fs4,fa1,rmm
    364a:	5441                	li	s0,-16
    364c:	43494d4f          	fnmadd.d	fs10,fs2,fs4,fs0,rmm
    3650:	425f 4f4f 5f4c      	0x5f4c4f4f425f
    3656:	4f4c                	lw	a1,28(a4)
    3658:	465f4b43          	fmadd.q	fs6,ft10,ft5,fs0,rmm
    365c:	4552                	lw	a0,20(sp)
    365e:	2045                	jal	36fe <__stack_size+0x16fe>
    3660:	0031                	c.nop	12
    3662:	5f5f 4544 3143      	0x314345445f5f
    3668:	3832                	fld	fa6,296(sp)
    366a:	4d5f 5841 5f5f      	0x5f5f58414d5f
    3670:	3920                	fld	fs0,112(a0)
    3672:	392e                	fld	fs2,232(sp)
    3674:	3939                	jal	3292 <__stack_size+0x1292>
    3676:	3939                	jal	3294 <__stack_size+0x1294>
    3678:	3939                	jal	3296 <__stack_size+0x1296>
    367a:	3939                	jal	3298 <__stack_size+0x1298>
    367c:	3939                	jal	329a <__stack_size+0x129a>
    367e:	3939                	jal	329c <__stack_size+0x129c>
    3680:	3939                	jal	329e <__stack_size+0x129e>
    3682:	3939                	jal	32a0 <__stack_size+0x12a0>
    3684:	3939                	jal	32a2 <__stack_size+0x12a2>
    3686:	3939                	jal	32a4 <__stack_size+0x12a4>
    3688:	3939                	jal	32a6 <__stack_size+0x12a6>
    368a:	3939                	jal	32a8 <__stack_size+0x12a8>
    368c:	3939                	jal	32aa <__stack_size+0x12aa>
    368e:	3939                	jal	32ac <__stack_size+0x12ac>
    3690:	3939                	jal	32ae <__stack_size+0x12ae>
    3692:	3939                	jal	32b0 <__stack_size+0x12b0>
    3694:	3645                	jal	3234 <__stack_size+0x1234>
    3696:	3431                	jal	30a2 <__stack_size+0x10a2>
    3698:	4434                	lw	a3,72(s0)
    369a:	004c                	addi	a1,sp,4
    369c:	5f5f 4c45 5f46      	0x5f464c455f5f
    36a2:	205f 0031 6c66      	0x6c660031205f
    36a8:	6c5f776f          	jal	a4,fb56c <__stack_size+0xf956c>
    36ac:	6465                	lui	s0,0x19
    36ae:	645f 7669 635f      	0x635f7669645f
    36b4:	746e                	flw	fs0,248(sp)
    36b6:	5f00                	lw	s0,56(a4)
    36b8:	495f 544e 3233      	0x3233544e495f
    36be:	435f 6328 2029      	0x20296328435f
    36c4:	23232063          	0x23232063
    36c8:	4c20                	lw	s0,88(s0)
    36ca:	5f00                	lw	s0,56(a4)
    36cc:	4e49                	li	t3,18
    36ce:	3654                	fld	fa3,168(a2)
    36d0:	5f34                	lw	a3,120(a4)
    36d2:	5f54                	lw	a3,60(a4)
    36d4:	4544                	lw	s1,12(a0)
    36d6:	52414c43          	fmadd.d	fs8,ft2,ft4,fa0,rmm
    36da:	4445                	li	s0,17
    36dc:	0020                	addi	s0,sp,8
    36de:	5f5f 4c46 3654      	0x36544c465f5f
    36e4:	5834                	lw	a3,112(s0)
    36e6:	445f 4345 4d49      	0x4d494345445f
    36ec:	4c41                	li	s8,16
    36ee:	445f 4749 5f5f      	0x5f5f4749445f
    36f4:	3320                	fld	fs0,96(a4)
    36f6:	0036                	c.slli	zero,0xd
    36f8:	5f5f 4c46 3354      	0x33544c465f5f
    36fe:	5832                	lw	a6,44(sp)
    3700:	4d5f 5841 315f      	0x315f58414d5f
    3706:	5f30                	lw	a2,120(a4)
    3708:	5845                	li	a6,-15
    370a:	5f50                	lw	a2,60(a4)
    370c:	205f 3033 0038      	0x383033205f
    3712:	5f5f 4955 544e      	0x544e49555f5f
    3718:	5450                	lw	a2,44(s0)
    371a:	5f52                	lw	t5,52(sp)
    371c:	414d                	li	sp,19
    371e:	5f58                	lw	a4,60(a4)
    3720:	205f 7830 6666      	0x66667830205f
    3726:	6666                	flw	fa2,88(sp)
    3728:	6666                	flw	fa2,88(sp)
    372a:	6666                	flw	fa2,88(sp)
    372c:	0055                	c.nop	21
    372e:	5f5f 4e49 5f54      	0x5f544e495f5f
    3734:	4146                	lw	sp,80(sp)
    3736:	36315453          	0x36315453
    373a:	4d5f 5841 5f5f      	0x5f5f58414d5f
    3740:	3020                	fld	fs0,96(s0)
    3742:	3778                	fld	fa4,232(a4)
    3744:	6666                	flw	fa2,88(sp)
    3746:	6666                	flw	fa2,88(sp)
    3748:	6666                	flw	fa2,88(sp)
    374a:	0066                	c.slli	zero,0x19
    374c:	5f5f 4c46 3654      	0x36544c465f5f
    3752:	5f34                	lw	a3,120(a4)
    3754:	4544                	lw	s1,12(a0)
    3756:	4f4e                	lw	t5,208(sp)
    3758:	4d52                	lw	s10,20(sp)
    375a:	4d5f 4e49 5f5f      	0x5f5f4e494d5f
    3760:	3420                	fld	fs0,104(s0)
    3762:	392e                	fld	fs2,232(sp)
    3764:	3034                	fld	fa3,96(s0)
    3766:	3536                	fld	fa0,360(sp)
    3768:	3436                	fld	fs0,360(sp)
    376a:	3835                	jal	2fa6 <__stack_size+0xfa6>
    376c:	3134                	fld	fa3,96(a0)
    376e:	3432                	fld	fs0,296(sp)
    3770:	3536                	fld	fa0,360(sp)
    3772:	3434                	fld	fa3,104(s0)
    3774:	3731                	jal	3680 <__stack_size+0x1680>
    3776:	3536                	fld	fa0,360(sp)
    3778:	3836                	fld	fa6,360(sp)
    377a:	38323937          	lui	s2,0x38323
    377e:	3836                	fld	fa6,360(sp)
    3780:	3232                	fld	ft4,296(sp)
    3782:	3331                	jal	348e <__stack_size+0x148e>
    3784:	2d653237          	lui	tp,0x2d653
    3788:	46343233          	0x46343233
    378c:	3436                	fld	fs0,360(sp)
    378e:	4100                	lw	s0,0(a0)
    3790:	6270                	flw	fa2,68(a2)
    3792:	4f495047          	fmsub.q	ft0,fs2,fs4,fs1,unknown
    3796:	7400                	flw	fs0,40(s0)
    3798:	6275                	lui	tp,0x1d
    379a:	5f65                	li	t5,-7
    379c:	6e616373          	csrrsi	t1,0x6e6,2
    37a0:	645f 7369 0070      	0x707369645f
    37a6:	4e49                	li	t3,18
    37a8:	3854                	fld	fa3,176(s0)
    37aa:	435f 7828 2029      	0x20297828435f
    37b0:	5f5f 4e49 3854      	0x38544e495f5f
    37b6:	435f 7828 0029      	0x297828435f
    37bc:	5f5f 4e49 5f54      	0x5f544e495f5f
    37c2:	454c                	lw	a1,12(a0)
    37c4:	5341                	li	t1,-16
    37c6:	3354                	fld	fa3,160(a4)
    37c8:	5f32                	lw	t5,44(sp)
    37ca:	414d                	li	sp,19
    37cc:	5f58                	lw	a4,60(a4)
    37ce:	205f 7830 6637      	0x66377830205f
    37d4:	6666                	flw	fa2,88(sp)
    37d6:	6666                	flw	fa2,88(sp)
    37d8:	6666                	flw	fa2,88(sp)
    37da:	004c                	addi	a1,sp,4
    37dc:	5f5f 444c 4c42      	0x4c42444c5f5f
    37e2:	4d5f 5841 315f      	0x315f58414d5f
    37e8:	5f30                	lw	a2,120(a4)
    37ea:	5845                	li	a6,-15
    37ec:	5f50                	lw	a2,60(a4)
    37ee:	205f 3934 3233      	0x32333934205f
    37f4:	5f00                	lw	s0,56(a4)
    37f6:	445f 4345 3436      	0x34364345445f
    37fc:	4d5f 4e49 5f5f      	0x5f5f4e494d5f
    3802:	3120                	fld	fs0,96(a0)
    3804:	2d45                	jal	3eb4 <__stack_size+0x1eb4>
    3806:	44333833          	0x44333833
    380a:	0044                	addi	s1,sp,4
    380c:	5f5f 4c46 3354      	0x33544c465f5f
    3812:	5f32                	lw	t5,44(sp)
    3814:	414d                	li	sp,19
    3816:	5f58                	lw	a4,60(a4)
    3818:	205f 2e33 3034      	0x30342e33205f
    381e:	3832                	fld	fa6,296(sp)
    3820:	3332                	fld	ft6,296(sp)
    3822:	3634                	fld	fa3,104(a2)
    3824:	3336                	fld	ft6,360(sp)
    3826:	3538                	fld	fa4,104(a0)
    3828:	3832                	fld	fa6,296(sp)
    382a:	3538                	fld	fa4,104(a0)
    382c:	3839                	jal	304a <__stack_size+0x104a>
    382e:	3131                	jal	343a <__stack_size+0x143a>
    3830:	31343037          	lui	zero,0x31343
    3834:	3338                	fld	fa4,96(a4)
    3836:	3834                	fld	fa3,112(s0)
    3838:	3534                	fld	fa3,104(a0)
    383a:	3631                	jal	3346 <__stack_size+0x1346>
    383c:	3239                	jal	314a <__stack_size+0x114a>
    383e:	6535                	lui	a0,0xd
    3840:	4638332b          	0x4638332b
    3844:	5f003233          	0x5f003233
    3848:	445f 4c42 455f      	0x455f4c42445f
    384e:	5350                	lw	a2,36(a4)
    3850:	4c49                	li	s8,18
    3852:	5f5f4e4f          	fnmadd.q	ft8,ft10,fs5,fa1,rmm
    3856:	2820                	fld	fs0,80(s0)
    3858:	6428                	flw	fa0,72(s0)
    385a:	6c62756f          	jal	a0,2af20 <__stack_size+0x28f20>
    385e:	2965                	jal	3d16 <__stack_size+0x1d16>
    3860:	2e32                	fld	ft8,264(sp)
    3862:	3232                	fld	ft4,296(sp)
    3864:	3430                	fld	fa2,104(s0)
    3866:	3634                	fld	fa3,104(a2)
    3868:	3430                	fld	fa2,104(s0)
    386a:	3239                	jal	3178 <__stack_size+0x1178>
    386c:	3035                	jal	3098 <__stack_size+0x1098>
    386e:	30333133          	0x30333133
    3872:	3038                	fld	fa4,96(s0)
    3874:	3438                	fld	fa4,104(s0)
    3876:	33363237          	lui	tp,0x33363
    387a:	31363333          	0x31363333
    387e:	3138                	fld	fa4,96(a0)
    3880:	3436                	fld	fs0,360(sp)
    3882:	3630                	fld	fa2,104(a2)
    3884:	6532                	flw	fa0,12(sp)
    3886:	312d                	jal	34b0 <__stack_size+0x14b0>
    3888:	4c36                	lw	s8,76(sp)
    388a:	0029                	c.nop	10
    388c:	5f5f 5250 4741      	0x474152505f5f
    3892:	414d                	li	sp,19
    3894:	525f 4445 4645      	0x46454445525f
    389a:	4e49                	li	t3,18
    389c:	5f45                	li	t5,-15
    389e:	5845                	li	a6,-15
    38a0:	4e54                	lw	a3,28(a2)
    38a2:	4d41                	li	s10,16
    38a4:	2045                	jal	3944 <__stack_size+0x1944>
    38a6:	0031                	c.nop	12
    38a8:	5f5f 4953 5f47      	0x5f4749535f5f
    38ae:	5441                	li	s0,-16
    38b0:	43494d4f          	fnmadd.d	fs10,fs2,fs4,fs0,rmm
    38b4:	545f 5059 5f45      	0x5f455059545f
    38ba:	205f 6e69 0074      	0x746e69205f
    38c0:	4e49                	li	t3,18
    38c2:	3354                	fld	fa3,160(a4)
    38c4:	5f32                	lw	t5,44(sp)
    38c6:	494d                	li	s2,19
    38c8:	204e                	fld	ft0,208(sp)
    38ca:	2d28                	fld	fa0,88(a0)
    38cc:	5f5f 4e49 3354      	0x33544e495f5f
    38d2:	5f32                	lw	t5,44(sp)
    38d4:	414d                	li	sp,19
    38d6:	5f58                	lw	a4,60(a4)
    38d8:	205f 202d 2931      	0x2931202d205f
    38de:	5f00                	lw	s0,56(a4)
    38e0:	465f 544c 3231      	0x3231544c465f
    38e6:	5f38                	lw	a4,120(a4)
    38e8:	4148                	lw	a0,4(a0)
    38ea:	45445f53          	0x45445f53
    38ee:	4f4e                	lw	t5,208(sp)
    38f0:	4d52                	lw	s10,20(sp)
    38f2:	5f5f 3120 5f00      	0x5f0031205f5f
    38f8:	4c5f 4244 5f4c      	0x5f4c42444c5f
    38fe:	4148                	lw	a0,4(a0)
    3900:	45445f53          	0x45445f53
    3904:	4f4e                	lw	t5,208(sp)
    3906:	4d52                	lw	s10,20(sp)
    3908:	5f5f 3120 5f00      	0x5f0031205f5f
    390e:	495f 544e 414d      	0x414d544e495f
    3914:	5f58                	lw	a4,60(a4)
    3916:	414d                	li	sp,19
    3918:	5f58                	lw	a4,60(a4)
    391a:	205f 7830 6637      	0x66377830205f
    3920:	6666                	flw	fa2,88(sp)
    3922:	6666                	flw	fa2,88(sp)
    3924:	6666                	flw	fa2,88(sp)
    3926:	6666                	flw	fa2,88(sp)
    3928:	6666                	flw	fa2,88(sp)
    392a:	6666                	flw	fa2,88(sp)
    392c:	6666                	flw	fa2,88(sp)
    392e:	4c4c                	lw	a1,28(s0)
    3930:	4700                	lw	s0,8(a4)
    3932:	4950                	lw	a2,20(a0)
    3934:	425f304f          	fnmadd.d	ft0,ft10,ft5,fs0,rup
    3938:	5341                	li	t1,-16
    393a:	4145                	li	sp,17
    393c:	4444                	lw	s1,12(s0)
    393e:	2045                	jal	39de <__stack_size+0x19de>
    3940:	7830                	flw	fa2,112(s0)
    3942:	3034                	fld	fa3,96(s0)
    3944:	3030                	fld	fa2,96(s0)
    3946:	3030                	fld	fa2,96(s0)
    3948:	3030                	fld	fa2,96(s0)
    394a:	5f00                	lw	s0,56(a4)
    394c:	465f 544c 3436      	0x3436544c465f
    3952:	4d5f 4e41 5f54      	0x5f544e414d5f
    3958:	4944                	lw	s1,20(a0)
    395a:	205f5f47          	fmsub.s	ft10,ft10,ft5,ft4,unknown
    395e:	3335                	jal	368a <__stack_size+0x168a>
    3960:	5f00                	lw	s0,56(a4)
    3962:	445f 4345 3436      	0x34364345445f
    3968:	4d5f 4e41 5f54      	0x5f544e414d5f
    396e:	4944                	lw	s1,20(a0)
    3970:	205f5f47          	fmsub.s	ft10,ft10,ft5,ft4,unknown
    3974:	3631                	jal	3480 <__stack_size+0x1480>
    3976:	5f00                	lw	s0,56(a4)
    3978:	465f 544c 485f      	0x485f544c465f
    397e:	5341                	li	t1,-16
    3980:	445f 4e45 524f      	0x524f4e45445f
    3986:	5f4d                	li	t5,-13
    3988:	205f 0031 5f5f      	0x5f5f0031205f
    398e:	4e49                	li	t3,18
    3990:	5f54                	lw	a3,60(a4)
    3992:	4146                	lw	sp,80(sp)
    3994:	34365453          	0x34365453
    3998:	575f 4449 4854      	0x48544449575f
    399e:	5f5f 3620 0034      	0x3436205f5f
    39a4:	5f5f 4244 5f4c      	0x5f4c42445f5f
    39aa:	4544                	lw	s1,12(a0)
    39ac:	414d4943          	fmadd.s	fs2,fs10,fs4,fs0,rmm
    39b0:	5f4c                	lw	a1,60(a4)
    39b2:	4944                	lw	s1,20(a0)
    39b4:	205f5f47          	fmsub.s	ft10,ft10,ft5,ft4,unknown
    39b8:	3731                	jal	38c4 <__stack_size+0x18c4>
    39ba:	2e00                	fld	fs0,24(a2)
    39bc:	2f2e                	fld	ft10,200(sp)
    39be:	2e2e                	fld	ft8,200(sp)
    39c0:	696e692f          	0x696e692f
    39c4:	2e74                	fld	fa3,216(a2)
    39c6:	4e490063          	beq	s2,tp,3ea6 <__stack_size+0x1ea6>
    39ca:	5254                	lw	a3,36(a2)
    39cc:	435f 444f 5f45      	0x5f45444f435f
    39d2:	5f4d                	li	t5,-13
    39d4:	5845                	li	a6,-15
    39d6:	2054                	fld	fa3,128(s0)
    39d8:	3028                	fld	fa0,96(s0)
    39da:	3078                	fld	fa4,224(s0)
    39dc:	3030                	fld	fa2,96(s0)
    39de:	3030                	fld	fa2,96(s0)
    39e0:	3030                	fld	fa2,96(s0)
    39e2:	2042                	fld	ft0,16(sp)
    39e4:	207c                	fld	fa5,192(s0)
    39e6:	7830                	flw	fa2,112(s0)
    39e8:	3038                	fld	fa4,96(s0)
    39ea:	3030                	fld	fa2,96(s0)
    39ec:	3030                	fld	fa2,96(s0)
    39ee:	3030                	fld	fa2,96(s0)
    39f0:	0029                	c.nop	10
    39f2:	636d                	lui	t1,0x1b
    39f4:	7561                	lui	a0,0xffff8
    39f6:	49006573          	csrrsi	a0,0x490,0
    39fa:	544e                	lw	s0,240(sp)
    39fc:	5f52                	lw	t5,52(sp)
    39fe:	45444f43          	0x45444f43
    3a02:	4d5f 535f 2057      	0x2057535f4d5f
    3a08:	3028                	fld	fa0,96(s0)
    3a0a:	3078                	fld	fa4,224(s0)
    3a0c:	3030                	fld	fa2,96(s0)
    3a0e:	3030                	fld	fa2,96(s0)
    3a10:	3030                	fld	fa2,96(s0)
    3a12:	207c2033          	0x207c2033
    3a16:	7830                	flw	fa2,112(s0)
    3a18:	3038                	fld	fa4,96(s0)
    3a1a:	3030                	fld	fa2,96(s0)
    3a1c:	3030                	fld	fa2,96(s0)
    3a1e:	3030                	fld	fa2,96(s0)
    3a20:	0029                	c.nop	10
    3a22:	4e49                	li	t3,18
    3a24:	5254                	lw	a3,36(a2)
    3a26:	435f 444f 5f45      	0x5f45444f435f
    3a2c:	5f4d                	li	t5,-13
    3a2e:	4d54                	lw	a3,28(a0)
    3a30:	2052                	fld	ft0,272(sp)
    3a32:	3028                	fld	fa0,96(s0)
    3a34:	3078                	fld	fa4,224(s0)
    3a36:	3030                	fld	fa2,96(s0)
    3a38:	3030                	fld	fa2,96(s0)
    3a3a:	3030                	fld	fa2,96(s0)
    3a3c:	207c2037          	lui	zero,0x207c2
    3a40:	7830                	flw	fa2,112(s0)
    3a42:	3038                	fld	fa4,96(s0)
    3a44:	3030                	fld	fa2,96(s0)
    3a46:	3030                	fld	fa2,96(s0)
    3a48:	3030                	fld	fa2,96(s0)
    3a4a:	0029                	c.nop	10
    3a4c:	7274                	flw	fa3,100(a2)
    3a4e:	7061                	c.lui	zero,0xffff8
    3a50:	685f 6e61 6c64      	0x6c646e61685f
    3a56:	7265                	lui	tp,0xffff9
    3a58:	2e00                	fld	fs0,24(a2)
    3a5a:	2f2e                	fld	ft10,200(sp)
    3a5c:	2e2e                	fld	ft8,200(sp)
    3a5e:	6172742f          	0x6172742f
    3a62:	5f70                	lw	a2,124(a4)
    3a64:	6168                	flw	fa0,68(a0)
    3a66:	646e                	flw	fs0,216(sp)
    3a68:	656c                	flw	fa1,76(a0)
    3a6a:	2e72                	fld	ft8,280(sp)
    3a6c:	65730063          	beq	t1,s7,40ac <__stack_size+0x20ac>
    3a70:	7272                	flw	ft4,60(sp)
    3a72:	685f 6e61 6c64      	0x6c646e61685f
    3a78:	7265                	lui	tp,0xffff9
    3a7a:	6d00                	flw	fs0,24(a0)
    3a7c:	7065                	c.lui	zero,0xffff9
    3a7e:	61680063          	beq	a6,s6,407e <__stack_size+0x207e>
    3a82:	7472                	flw	fs0,60(sp)
    3a84:	695f 0064 4c50      	0x4c500064695f
    3a8a:	4349                	li	t1,18
    3a8c:	435f 414c 4d49      	0x4d49414c435f
    3a92:	4f5f 4646 4553      	0x455346464f5f
    3a98:	2054                	fld	fa3,128(s0)
    3a9a:	7830                	flw	fa2,112(s0)
    3a9c:	3032                	fld	ft0,296(sp)
    3a9e:	3030                	fld	fa2,96(s0)
    3aa0:	3430                	fld	fa2,104(s0)
    3aa2:	7400                	flw	fs0,40(s0)
    3aa4:	7268                	flw	fa0,100(a2)
    3aa6:	7365                	lui	t1,0xffff9
    3aa8:	6f68                	flw	fa0,92(a4)
    3aaa:	646c                	flw	fa1,76(s0)
    3aac:	705f 7274 7000      	0x70007274705f
    3ab2:	696c                	flw	fa1,84(a0)
    3ab4:	65735f63          	bge	t1,s7,4112 <__stack_size+0x2112>
    3ab8:	5f74                	lw	a3,124(a4)
    3aba:	7270                	flw	fa2,100(a2)
    3abc:	6f69                	lui	t5,0x1a
    3abe:	6972                	flw	fs2,28(sp)
    3ac0:	7974                	flw	fa3,116(a0)
    3ac2:	7000                	flw	fs0,32(s0)
    3ac4:	696c                	flw	fa1,84(a0)
    3ac6:	69645f63          	bge	s0,s6,4164 <__stack_size+0x2164>
    3aca:	6c626173          	csrrsi	sp,0x6c6,4
    3ace:	5f65                	li	t5,-7
    3ad0:	6e69                	lui	t3,0x1a
    3ad2:	6574                	flw	fa3,76(a0)
    3ad4:	7272                	flw	ft4,60(sp)
    3ad6:	7075                	c.lui	zero,0xffffd
    3ad8:	0074                	addi	a3,sp,12
    3ada:	4c50                	lw	a2,28(s0)
    3adc:	4349                	li	t1,18
    3ade:	455f 414e 4c42      	0x4c42414e455f
    3ae4:	5f45                	li	t5,-15
    3ae6:	5346464f          	fnmadd.d	fa2,fa2,fs4,fa0,rmm
    3aea:	5445                	li	s0,-15
    3aec:	3020                	fld	fs0,96(s0)
    3aee:	3278                	fld	fa4,224(a2)
    3af0:	3030                	fld	fa2,96(s0)
    3af2:	0030                	addi	a2,sp,8
    3af4:	4c50                	lw	a2,28(s0)
    3af6:	4349                	li	t1,18
    3af8:	435f 414c 4d49      	0x4d49414c435f
    3afe:	535f 4948 5446      	0x54464948535f
    3b04:	505f 5245 545f      	0x545f5245505f
    3b0a:	5241                	li	tp,-16
    3b0c:	20544547          	fmsub.s	fa0,fs0,ft5,ft4,rmm
    3b10:	3231                	jal	341c <__stack_size+0x141c>
    3b12:	7000                	flw	fs0,32(s0)
    3b14:	696c                	flw	fa1,84(a0)
    3b16:	6f635f63          	bge	t1,s6,4214 <__stack_size+0x2214>
    3b1a:	706d                	c.lui	zero,0xffffb
    3b1c:	656c                	flw	fa1,76(a0)
    3b1e:	6574                	flw	fa3,76(a0)
    3b20:	695f 746e 7265      	0x7265746e695f
    3b26:	7572                	flw	fa0,60(sp)
    3b28:	7470                	flw	fa2,108(s0)
    3b2a:	5000                	lw	s0,32(s0)
    3b2c:	494c                	lw	a1,20(a0)
    3b2e:	52505f43          	fmadd.d	ft10,ft0,ft5,fa0,unknown
    3b32:	4f49                	li	t5,18
    3b34:	4952                	lw	s2,20(sp)
    3b36:	5954                	lw	a3,52(a0)
    3b38:	535f 4948 5446      	0x54464948535f
    3b3e:	505f 5245 535f      	0x535f5245505f
    3b44:	4352554f          	fnmadd.d	fa0,ft4,fs5,fs0,unknown
    3b48:	2045                	jal	3be8 <__stack_size+0x1be8>
    3b4a:	0032                	c.slli	zero,0xc
    3b4c:	7270                	flw	fa2,100(a2)
    3b4e:	6f69                	lui	t5,0x1a
    3b50:	6972                	flw	fs2,28(sp)
    3b52:	7974                	flw	fa3,116(a0)
    3b54:	705f 7274 6300      	0x63007274705f
    3b5a:	616c                	flw	fa1,68(a0)
    3b5c:	6d69                	lui	s10,0x1a
    3b5e:	615f 6464 0072      	0x726464615f
    3b64:	4c50                	lw	a2,28(s0)
    3b66:	4349                	li	t1,18
    3b68:	455f 414e 4c42      	0x4c42414e455f
    3b6e:	5f45                	li	t5,-15
    3b70:	46494853          	0x46494853
    3b74:	5f54                	lw	a3,60(a4)
    3b76:	4550                	lw	a2,12(a0)
    3b78:	5f52                	lw	t5,52(sp)
    3b7a:	4154                	lw	a3,4(a0)
    3b7c:	4752                	lw	a4,20(sp)
    3b7e:	5445                	li	s0,-15
    3b80:	3720                	fld	fs0,104(a4)
    3b82:	2e00                	fld	fs0,24(a2)
    3b84:	2f2e                	fld	ft10,200(sp)
    3b86:	2e2e                	fld	ft8,200(sp)
    3b88:	62696c2f          	0x62696c2f
    3b8c:	696c702f          	0x696c702f
    3b90:	00632e63          	0x632e63
    3b94:	6c70                	flw	fa2,92(s0)
    3b96:	6369                	lui	t1,0x1a
    3b98:	635f 616c 6d69      	0x6d69616c635f
    3b9e:	695f 746e 7265      	0x7265746e695f
    3ba4:	7572                	flw	fa0,60(sp)
    3ba6:	7470                	flw	fa2,108(s0)
    3ba8:	5000                	lw	s0,32(s0)
    3baa:	494c                	lw	a1,20(a0)
    3bac:	48545f43          	fmadd.s	ft10,fs0,ft5,fs1,unknown
    3bb0:	4552                	lw	a0,20(sp)
    3bb2:	4c4f4853          	0x4c4f4853
    3bb6:	5f44                	lw	s1,60(a4)
    3bb8:	5346464f          	fnmadd.d	fa2,fa2,fs4,fa0,rmm
    3bbc:	5445                	li	s0,-15
    3bbe:	3020                	fld	fs0,96(s0)
    3bc0:	3278                	fld	fa4,224(a2)
    3bc2:	3030                	fld	fa2,96(s0)
    3bc4:	3030                	fld	fa2,96(s0)
    3bc6:	0030                	addi	a2,sp,8
    3bc8:	72756f73          	csrrsi	t5,0x727,10
    3bcc:	50006563          	bltu	zero,zero,40d6 <__stack_size+0x20d6>
    3bd0:	494c                	lw	a1,20(a0)
    3bd2:	48545f43          	fmadd.s	ft10,fs0,ft5,fs1,unknown
    3bd6:	4552                	lw	a0,20(sp)
    3bd8:	4c4f4853          	0x4c4f4853
    3bdc:	5f44                	lw	s1,60(a4)
    3bde:	46494853          	0x46494853
    3be2:	5f54                	lw	a3,60(a4)
    3be4:	4550                	lw	a2,12(a0)
    3be6:	5f52                	lw	t5,52(sp)
    3be8:	4154                	lw	a3,4(a0)
    3bea:	4752                	lw	a4,20(sp)
    3bec:	5445                	li	s0,-15
    3bee:	3120                	fld	fs0,96(a0)
    3bf0:	0032                	c.slli	zero,0xc
    3bf2:	5f5f 6d74 0070      	0x706d745f5f
    3bf8:	72727563          	bgeu	tp,t2,4322 <__stack_size+0x2322>
    3bfc:	6e65                	lui	t3,0x19
    3bfe:	0074                	addi	a3,sp,12
    3c00:	4c50                	lw	a2,28(s0)
    3c02:	4349                	li	t1,18
    3c04:	505f 4952 524f      	0x524f4952505f
    3c0a:	5449                	li	s0,-14
    3c0c:	5f59                	li	t5,-10
    3c0e:	5346464f          	fnmadd.d	fa2,fa2,fs4,fa0,rmm
    3c12:	5445                	li	s0,-15
    3c14:	3020                	fld	fs0,96(s0)
    3c16:	3078                	fld	fa4,224(s0)
    3c18:	3030                	fld	fa2,96(s0)
    3c1a:	0030                	addi	a2,sp,8
    3c1c:	6c70                	flw	fa2,92(s0)
    3c1e:	6369                	lui	t1,0x1a
    3c20:	695f 696e 0074      	0x74696e695f
    3c26:	6c70                	flw	fa2,92(s0)
    3c28:	6369                	lui	t1,0x1a
    3c2a:	655f 616e 6c62      	0x6c62616e655f
    3c30:	5f65                	li	t5,-7
    3c32:	6e69                	lui	t3,0x1a
    3c34:	6574                	flw	fa3,76(a0)
    3c36:	7272                	flw	ft4,60(sp)
    3c38:	7075                	c.lui	zero,0xffffd
    3c3a:	0074                	addi	a3,sp,12
    3c3c:	72727563          	bgeu	tp,t2,4366 <__stack_size+0x2366>
    3c40:	6e65                	lui	t3,0x19
    3c42:	5f74                	lw	a3,124(a4)
    3c44:	7470                	flw	fa2,108(s0)
    3c46:	0072                	c.slli	zero,0x1c
    3c48:	6c70                	flw	fa2,92(s0)
    3c4a:	6369                	lui	t1,0x1a
    3c4c:	735f 7465 745f      	0x745f7465735f
    3c52:	7268                	flw	fa0,100(a2)
    3c54:	7365                	lui	t1,0xffff9
    3c56:	6f68                	flw	fa0,92(a4)
    3c58:	646c                	flw	fa1,76(s0)
    3c5a:	6100                	flw	fs0,0(a0)
    3c5c:	6270                	flw	fa2,68(a2)
    3c5e:	675f 6970 5f6f      	0x5f6f6970675f
    3c64:	61656c63          	bltu	a0,s6,427c <__stack_size+0x227c>
    3c68:	5f72                	lw	t5,60(sp)
    3c6a:	7469                	lui	s0,0xffffa
    3c6c:	5f72                	lw	t5,60(sp)
    3c6e:	6c66                	flw	fs8,88(sp)
    3c70:	6761                	lui	a4,0x18
    3c72:	6100                	flw	fs0,0(a0)
    3c74:	6270                	flw	fa2,68(a2)
    3c76:	675f 6970 006f      	0x6f6970675f
    3c7c:	7061                	c.lui	zero,0xffff8
    3c7e:	5f62                	lw	t5,56(sp)
    3c80:	6f697067          	0x6f697067
    3c84:	695f 696e 0074      	0x74696e695f
    3c8a:	7061                	c.lui	zero,0xffff8
    3c8c:	5f62                	lw	t5,56(sp)
    3c8e:	6f697067          	0x6f697067
    3c92:	725f 6165 5f64      	0x5f646165725f
    3c98:	6970                	flw	fa2,84(a0)
    3c9a:	006e                	c.slli	zero,0x1b
    3c9c:	7061                	c.lui	zero,0xffff8
    3c9e:	5f62                	lw	t5,56(sp)
    3ca0:	6f697067          	0x6f697067
    3ca4:	675f 7465 695f      	0x695f7465675f
    3caa:	7274                	flw	fa3,100(a2)
    3cac:	735f 6174 7574      	0x75746174735f
    3cb2:	70610073          	0x70610073
    3cb6:	5f62                	lw	t5,56(sp)
    3cb8:	6f697067          	0x6f697067
    3cbc:	775f 6972 6574      	0x65746972775f
    3cc2:	705f 6e69 6100      	0x61006e69705f
    3cc8:	6270                	flw	fa2,68(a2)
    3cca:	675f 6970 5f6f      	0x5f6f6970675f
    3cd0:	6e65                	lui	t3,0x19
    3cd2:	6261                	lui	tp,0x18
    3cd4:	656c                	flw	fa1,76(a0)
    3cd6:	695f 7274 2e00      	0x2e007274695f
    3cdc:	2f2e                	fld	ft10,200(sp)
    3cde:	2e2e                	fld	ft8,200(sp)
    3ce0:	62696c2f          	0x62696c2f
    3ce4:	6270612f          	0x6270612f
    3ce8:	675f 6970 2e6f      	0x2e6f6970675f
    3cee:	70610063          	beq	sp,t1,43ee <__stack_size+0x23ee>
    3cf2:	5f62                	lw	t5,56(sp)
    3cf4:	6f697067          	0x6f697067
    3cf8:	735f 7465 645f      	0x645f7465735f
    3cfe:	7269                	lui	tp,0xffffa
    3d00:	6365                	lui	t1,0x19
    3d02:	6974                	flw	fa3,84(a0)
    3d04:	61006e6f          	jal	t3,a314 <__stack_size+0x8314>
    3d08:	6270                	flw	fa2,68(a2)
    3d0a:	675f 6970 5f6f      	0x5f6f6970675f
    3d10:	6964                	flw	fs1,84(a0)
    3d12:	6c626173          	csrrsi	sp,0x6c6,4
    3d16:	5f65                	li	t5,-7
    3d18:	7469                	lui	s0,0xffffa
    3d1a:	0072                	c.slli	zero,0x1c
    3d1c:	7061                	c.lui	zero,0xffff8
    3d1e:	5f62                	lw	t5,56(sp)
    3d20:	6974                	flw	fa3,84(a0)
    3d22:	656d                	lui	a0,0x1b
    3d24:	5f72                	lw	t5,60(sp)
    3d26:	5f746567          	0x5f746567
    3d2a:	7469                	lui	s0,0xffffa
    3d2c:	5f72                	lw	t5,60(sp)
    3d2e:	74617473          	csrrci	s0,0x746,2
    3d32:	7375                	lui	t1,0xffffd
    3d34:	6100                	flw	fs0,0(a0)
    3d36:	6270                	flw	fa2,68(a2)
    3d38:	745f 6d69 7265      	0x72656d69745f
    3d3e:	675f 7465 635f      	0x635f7465675f
    3d44:	7061                	c.lui	zero,0xffff8
    3d46:	6100                	flw	fs0,0(a0)
    3d48:	6270                	flw	fa2,68(a2)
    3d4a:	745f 6d69 7265      	0x72656d69745f
    3d50:	735f 6f74 0070      	0x706f74735f
    3d56:	5f6e6863          	bltu	t3,s6,4346 <__stack_size+0x2346>
    3d5a:	6469                	lui	s0,0x1a
    3d5c:	6100                	flw	fs0,0(a0)
    3d5e:	6270                	flw	fa2,68(a2)
    3d60:	745f 6d69 7265      	0x72656d69745f
    3d66:	675f 7465 635f      	0x635f7465675f
    3d6c:	746e                	flw	fs0,248(sp)
    3d6e:	6100                	flw	fs0,0(a0)
    3d70:	6270                	flw	fa2,68(a2)
    3d72:	745f 6d69 7265      	0x72656d69745f
    3d78:	735f 7465 635f      	0x635f7465735f
    3d7e:	7061                	c.lui	zero,0xffff8
    3d80:	635f 6e6f 6966      	0x69666e6f635f
    3d86:	70610067          	jr	1798(sp) # 10011906 <__freertos_irq_stack_top+0x9906>
    3d8a:	5f62                	lw	t5,56(sp)
    3d8c:	6974                	flw	fa3,84(a0)
    3d8e:	656d                	lui	a0,0x1b
    3d90:	5f72                	lw	t5,60(sp)
    3d92:	5f746567          	0x5f746567
    3d96:	7561                	lui	a0,0xffff8
    3d98:	6f74                	flw	fa3,92(a4)
    3d9a:	6f6c                	flw	fa1,92(a4)
    3d9c:	6461                	lui	s0,0x18
    3d9e:	4300                	lw	s0,0(a4)
    3da0:	504d                	c.li	zero,-13
    3da2:	535f 4c45 3020      	0x30204c45535f
    3da8:	3078                	fld	fa4,224(s0)
    3daa:	0031                	c.nop	12
    3dac:	5f504143          	fmadd.q	ft2,ft0,fs5,fa1,rmm
    3db0:	204c4553          	0x204c4553
    3db4:	7830                	flw	fa2,112(s0)
    3db6:	3030                	fld	fa2,96(s0)
    3db8:	6100                	flw	fs0,0(a0)
    3dba:	6270                	flw	fa2,68(a2)
    3dbc:	745f 6d69 7265      	0x72656d69745f
    3dc2:	735f 7465 615f      	0x615f7465735f
    3dc8:	7475                	lui	s0,0xffffd
    3dca:	616f6c6f          	jal	s8,fa3e0 <__stack_size+0xf83e0>
    3dce:	0064                	addi	s1,sp,12
    3dd0:	2e2e                	fld	ft8,200(sp)
    3dd2:	2f2e2e2f          	0x2f2e2e2f
    3dd6:	696c                	flw	fa1,84(a0)
    3dd8:	2f62                	fld	ft10,24(sp)
    3dda:	7061                	c.lui	zero,0xffff8
    3ddc:	5f62                	lw	t5,56(sp)
    3dde:	6974                	flw	fa3,84(a0)
    3de0:	656d                	lui	a0,0x1b
    3de2:	2e72                	fld	ft8,280(sp)
    3de4:	70610063          	beq	sp,t1,44e4 <__stack_size+0x24e4>
    3de8:	5f62                	lw	t5,56(sp)
    3dea:	6974                	flw	fa3,84(a0)
    3dec:	656d                	lui	a0,0x1b
    3dee:	5f72                	lw	t5,60(sp)
    3df0:	5f746567          	0x5f746567
    3df4:	7270                	flw	fa2,100(a2)
    3df6:	7365                	lui	t1,0xffff9
    3df8:	656c6163          	bltu	s8,s6,443a <__stack_size+0x243a>
    3dfc:	6100                	flw	fs0,0(a0)
    3dfe:	6270                	flw	fa2,68(a2)
    3e00:	745f 6d69 7265      	0x72656d69745f
    3e06:	725f 7365 7465      	0x74657365725f
    3e0c:	6100                	flw	fs0,0(a0)
    3e0e:	6270                	flw	fa2,68(a2)
    3e10:	745f 6d69 7265      	0x72656d69745f
    3e16:	655f 616e 6c62      	0x6c62616e655f
    3e1c:	5f65                	li	t5,-7
    3e1e:	7469                	lui	s0,0xffffa
    3e20:	0072                	c.slli	zero,0x1c
    3e22:	7061                	c.lui	zero,0xffff8
    3e24:	5f62                	lw	t5,56(sp)
    3e26:	6974                	flw	fa3,84(a0)
    3e28:	656d                	lui	a0,0x1b
    3e2a:	5f72                	lw	t5,60(sp)
    3e2c:	72617473          	csrrci	s0,0x726,2
    3e30:	0074                	addi	a3,sp,12
    3e32:	7061                	c.lui	zero,0xffff8
    3e34:	5f62                	lw	t5,56(sp)
    3e36:	6974                	flw	fa3,84(a0)
    3e38:	656d                	lui	a0,0x1b
    3e3a:	5f72                	lw	t5,60(sp)
    3e3c:	61656c63          	bltu	a0,s6,4454 <__stack_size+0x2454>
    3e40:	5f72                	lw	t5,60(sp)
    3e42:	7469                	lui	s0,0xffffa
    3e44:	5f72                	lw	t5,60(sp)
    3e46:	6c66                	flw	fs8,88(sp)
    3e48:	6761                	lui	a4,0x18
    3e4a:	6100                	flw	fs0,0(a0)
    3e4c:	6270                	flw	fa2,68(a2)
    3e4e:	745f 6d69 7265      	0x72656d69745f
    3e54:	735f 7465 635f      	0x635f7465735f
    3e5a:	706d                	c.lui	zero,0xffffb
    3e5c:	6100                	flw	fs0,0(a0)
    3e5e:	6270                	flw	fa2,68(a2)
    3e60:	745f 6d69 7265      	0x72656d69745f
    3e66:	735f 7465 705f      	0x705f7465735f
    3e6c:	6572                	flw	fa0,28(sp)
    3e6e:	6c616373          	csrrsi	t1,0x6c6,2
    3e72:	0065                	c.nop	25
    3e74:	6e69                	lui	t3,0x1a
    3e76:	7469                	lui	s0,0xffffa
    3e78:	615f 6270 745f      	0x745f6270615f
    3e7e:	6d69                	lui	s10,0x1a
    3e80:	7265                	lui	tp,0xffff9
    3e82:	6100                	flw	fs0,0(a0)
    3e84:	6270                	flw	fa2,68(a2)
    3e86:	745f 6d69 7265      	0x72656d69745f
    3e8c:	735f 7465 635f      	0x635f7465735f
    3e92:	746e                	flw	fs0,248(sp)
    3e94:	6100                	flw	fs0,0(a0)
    3e96:	6270                	flw	fa2,68(a2)
    3e98:	745f 6d69 7265      	0x72656d69745f
    3e9e:	645f 7369 6261      	0x62617369645f
    3ea4:	656c                	flw	fa1,76(a0)
    3ea6:	695f 7274       	0x7274695f

Disassembly of section .debug_ranges:

00000000 <.debug_ranges>:
   0:	0990                	addi	a2,sp,208
   2:	0000                	unimp
   4:	09ec                	addi	a1,sp,220
   6:	0000                	unimp
   8:	09ec                	addi	a1,sp,220
   a:	0000                	unimp
   c:	0a3c                	addi	a5,sp,280
   e:	0000                	unimp
  10:	0a3c                	addi	a5,sp,280
  12:	0000                	unimp
  14:	0af0                	addi	a2,sp,348
  16:	0000                	unimp
  18:	0af0                	addi	a2,sp,348
  1a:	0000                	unimp
  1c:	0d9c                	addi	a5,sp,720
	...
  26:	0000                	unimp
  28:	0d9c                	addi	a5,sp,720
  2a:	0000                	unimp
  2c:	0dd0                	addi	a2,sp,724
	...
  36:	0000                	unimp
  38:	0dd0                	addi	a2,sp,724
  3a:	0000                	unimp
  3c:	0e50                	addi	a2,sp,788
  3e:	0000                	unimp
  40:	0e50                	addi	a2,sp,788
  42:	0000                	unimp
  44:	0e68                	addi	a0,sp,796
	...
  4e:	0000                	unimp
  50:	0e68                	addi	a0,sp,796
  52:	0000                	unimp
  54:	0e98                	addi	a4,sp,848
  56:	0000                	unimp
  58:	0e98                	addi	a4,sp,848
  5a:	0000                	unimp
  5c:	0ef8                	addi	a4,sp,860
  5e:	0000                	unimp
  60:	0ef8                	addi	a4,sp,860
  62:	0000                	unimp
  64:	0f9c                	addi	a5,sp,976
  66:	0000                	unimp
  68:	0001                	nop
  6a:	0000                	unimp
  6c:	0001                	nop
  6e:	0000                	unimp
  70:	0f9c                	addi	a5,sp,976
  72:	0000                	unimp
  74:	0fe8                	addi	a0,sp,988
  76:	0000                	unimp
  78:	0fe8                	addi	a0,sp,988
  7a:	0000                	unimp
  7c:	1044                	addi	s1,sp,36
  7e:	0000                	unimp
  80:	1044                	addi	s1,sp,36
  82:	0000                	unimp
  84:	10a8                	addi	a0,sp,104
	...
  8e:	0000                	unimp
  90:	10a8                	addi	a0,sp,104
  92:	0000                	unimp
  94:	10d8                	addi	a4,sp,100
  96:	0000                	unimp
  98:	10d8                	addi	a4,sp,100
  9a:	0000                	unimp
  9c:	1120                	addi	s0,sp,168
  9e:	0000                	unimp
  a0:	1120                	addi	s0,sp,168
  a2:	0000                	unimp
  a4:	114c                	addi	a1,sp,164
  a6:	0000                	unimp
  a8:	114c                	addi	a1,sp,164
  aa:	0000                	unimp
  ac:	118c                	addi	a1,sp,224
  ae:	0000                	unimp
  b0:	0001                	nop
  b2:	0000                	unimp
  b4:	0001                	nop
  b6:	0000                	unimp
  b8:	0001                	nop
  ba:	0000                	unimp
  bc:	0001                	nop
  be:	0000                	unimp
  c0:	0001                	nop
  c2:	0000                	unimp
  c4:	0001                	nop
  c6:	0000                	unimp
  c8:	0001                	nop
  ca:	0000                	unimp
  cc:	0001                	nop
	...
  d6:	0000                	unimp
  d8:	118c                	addi	a1,sp,224
  da:	0000                	unimp
  dc:	1310                	addi	a2,sp,416
  de:	0000                	unimp
  e0:	1310                	addi	a2,sp,416
  e2:	0000                	unimp
  e4:	1350                	addi	a2,sp,420
  e6:	0000                	unimp
  e8:	0001                	nop
  ea:	0000                	unimp
  ec:	0001                	nop
  ee:	0000                	unimp
  f0:	1350                	addi	a2,sp,420
  f2:	0000                	unimp
  f4:	1384                	addi	s1,sp,480
  f6:	0000                	unimp
  f8:	1384                	addi	s1,sp,480
  fa:	0000                	unimp
  fc:	13b0                	addi	a2,sp,488
  fe:	0000                	unimp
 100:	0001                	nop
 102:	0000                	unimp
 104:	0001                	nop
 106:	0000                	unimp
 108:	0001                	nop
 10a:	0000                	unimp
 10c:	0001                	nop
 10e:	0000                	unimp
 110:	0001                	nop
 112:	0000                	unimp
 114:	0001                	nop
 116:	0000                	unimp
 118:	0001                	nop
 11a:	0000                	unimp
 11c:	0001                	nop
 11e:	0000                	unimp
 120:	0001                	nop
 122:	0000                	unimp
 124:	0001                	nop
 126:	0000                	unimp
 128:	0001                	nop
 12a:	0000                	unimp
 12c:	0001                	nop
 12e:	0000                	unimp
 130:	0001                	nop
 132:	0000                	unimp
 134:	0001                	nop
 136:	0000                	unimp
 138:	0001                	nop
 13a:	0000                	unimp
 13c:	0001                	nop
 13e:	0000                	unimp
 140:	0001                	nop
 142:	0000                	unimp
 144:	0001                	nop
 146:	0000                	unimp
 148:	0001                	nop
 14a:	0000                	unimp
 14c:	0001                	nop
 14e:	0000                	unimp
 150:	0001                	nop
 152:	0000                	unimp
 154:	0001                	nop
 156:	0000                	unimp
 158:	0001                	nop
 15a:	0000                	unimp
 15c:	0001                	nop
	...

Disassembly of section .debug_macro:

00000000 <.debug_macro>:
   0:	0004                	0x4
   2:	a702                	fsd	ft0,392(sp)
   4:	0002                	c.slli64	zero
   6:	0700                	addi	s0,sp,896
   8:	000000af          	0xaf
   c:	03010003          	lb	zero,48(sp)
  10:	0701                	addi	a4,a4,0
  12:	0a05                	addi	s4,s4,1
  14:	0cdd                	addi	s9,s9,23
  16:	0000                	unimp
  18:	05020c03          	lb	s8,80(tp) # ffff9050 <__freertos_irq_stack_top+0xefff1050>
  1c:	d506                	sw	ra,168(sp)
  1e:	0028                	addi	a0,sp,8
  20:	0300                	addi	s0,sp,384
  22:	0808                	addi	a0,sp,16
  24:	1605                	addi	a2,a2,-31
  26:	0eee                	slli	t4,t4,0x1b
  28:	0000                	unimp
  2a:	07091c03          	lh	s8,112(s2) # 38323070 <__freertos_irq_stack_top+0x2831b070>
  2e:	000007f7          	0x7f7
  32:	0704                	addi	s1,sp,896
  34:	0819                	addi	a6,a6,6
  36:	0000                	unimp
  38:	0704                	addi	s1,sp,896
  3a:	000008a7          	0x8a7
  3e:	0304                	addi	s1,sp,384
  40:	0a0d                	addi	s4,s4,3
  42:	0008f807          	0x8f807
  46:	0400                	addi	s0,sp,512
  48:	07030e03          	lb	t3,112(t1) # ffff9070 <__freertos_irq_stack_top+0xefff1070>
  4c:	000009e7          	jalr	s3,zero # 0 <_start-0x800>
  50:	0704                	addi	s1,sp,896
  52:	0a51                	addi	s4,s4,20
  54:	0000                	unimp
  56:	0304                	addi	s1,sp,384
  58:	30070b03          	lb	s6,768(a4) # 18300 <__stack_size+0x16300>
  5c:	000c                	0xc
  5e:	0400                	addi	s0,sp,512
  60:	05040403          	lb	s0,80(s0) # ffffa050 <__freertos_irq_stack_top+0xefff2050>
  64:	2c0d                	jal	296 <_start-0x56a>
  66:	0400002b          	0x400002b
  6a:	07050503          	lb	a0,112(a0) # 1b070 <__stack_size+0x19070>
  6e:	0c52                	slli	s8,s8,0x14
  70:	0000                	unimp
  72:	0304                	addi	s1,sp,384
  74:	0606                	slli	a2,a2,0x1
  76:	0d05                	addi	s10,s10,1
  78:	00002033          	sltz	zero,zero
  7c:	0504                	addi	s1,sp,640
  7e:	0039310b          	0x39310b
  82:	0500                	addi	s0,sp,640
  84:	960c                	0x960c
  86:	0024                	addi	s1,sp,8
  88:	0500                	addi	s0,sp,640
  8a:	00074e0f          	0x74e0f
  8e:	0500                	addi	s0,sp,640
  90:	3312                	fld	ft6,288(sp)
  92:	0500000f          	fence	ow,unknown
  96:	00237413          	andi	s0,t1,2
  9a:	0500                	addi	s0,sp,640
  9c:	e119                	bnez	a0,a2 <_start-0x75e>
  9e:	0016                	c.slli	zero,0x5
  a0:	0500                	addi	s0,sp,640
  a2:	871a                	mv	a4,t1
  a4:	001f 0500 4a1b      	0x4a1b0500001f
  aa:	001a                	c.slli	zero,0x6
  ac:	0400                	addi	s0,sp,512
  ae:	0400                	addi	s0,sp,512
  b0:	0000                	unimp
  b2:	0005                	c.nop	1
  b4:	2101                	jal	4b4 <_start-0x34c>
  b6:	0000                	unimp
  b8:	0005                	c.nop	1
  ba:	00002e47          	fmsub.s	ft8,ft0,ft0,ft0,rdn
  be:	0005                	c.nop	1
  c0:	23f6                	fld	ft7,344(sp)
  c2:	0000                	unimp
  c4:	0005                	c.nop	1
  c6:	000009ef          	jal	s3,c6 <_start-0x73a>
  ca:	0005                	c.nop	1
  cc:	2f61                	jal	864 <loop>
  ce:	0000                	unimp
  d0:	0005                	c.nop	1
  d2:	06f9                	addi	a3,a3,30
  d4:	0000                	unimp
  d6:	0005                	c.nop	1
  d8:	000005ab          	0x5ab
  dc:	0005                	c.nop	1
  de:	2346                	fld	ft6,80(sp)
  e0:	0000                	unimp
  e2:	0005                	c.nop	1
  e4:	0b8c                	addi	a1,sp,464
  e6:	0000                	unimp
  e8:	0005                	c.nop	1
  ea:	0b06                	slli	s6,s6,0x1
  ec:	0000                	unimp
  ee:	0005                	c.nop	1
  f0:	084a                	slli	a6,a6,0x12
  f2:	0000                	unimp
  f4:	0005                	c.nop	1
  f6:	00002637          	lui	a2,0x2
  fa:	0005                	c.nop	1
  fc:	0780                	addi	s0,sp,960
  fe:	0000                	unimp
 100:	0005                	c.nop	1
 102:	3080                	fld	fs0,32(s1)
 104:	0000                	unimp
 106:	0005                	c.nop	1
 108:	219f 0000 0005      	0x50000219f
 10e:	1d92                	slli	s11,s11,0x24
 110:	0000                	unimp
 112:	0005                	c.nop	1
 114:	33de                	fld	ft7,496(sp)
 116:	0000                	unimp
 118:	0005                	c.nop	1
 11a:	2141                	jal	59a <_start-0x266>
 11c:	0000                	unimp
 11e:	0005                	c.nop	1
 120:	2c0c                	fld	fa1,24(s0)
 122:	0000                	unimp
 124:	0005                	c.nop	1
 126:	0000086b          	0x86b
 12a:	0005                	c.nop	1
 12c:	351a                	fld	fa0,416(sp)
 12e:	0000                	unimp
 130:	0005                	c.nop	1
 132:	2332                	fld	ft6,264(sp)
 134:	0000                	unimp
 136:	0005                	c.nop	1
 138:	103e                	c.slli	zero,0x2f
 13a:	0000                	unimp
 13c:	0005                	c.nop	1
 13e:	0679                	addi	a2,a2,30
 140:	0000                	unimp
 142:	0005                	c.nop	1
 144:	00002f0f          	0x2f0f
 148:	0005                	c.nop	1
 14a:	3540                	fld	fs0,168(a0)
 14c:	0000                	unimp
 14e:	0005                	c.nop	1
 150:	1264                	addi	s1,sp,300
 152:	0000                	unimp
 154:	0005                	c.nop	1
 156:	06df 0000 0005      	0x5000006df
 15c:	277c                	fld	fa5,200(a4)
 15e:	0000                	unimp
 160:	0005                	c.nop	1
 162:	091f 0000 0005      	0x50000091f
 168:	2562                	fld	fa0,24(sp)
 16a:	0000                	unimp
 16c:	0005                	c.nop	1
 16e:	2cd1                	jal	442 <_start-0x3be>
 170:	0000                	unimp
 172:	0005                	c.nop	1
 174:	3226                	fld	ft4,104(sp)
 176:	0000                	unimp
 178:	0005                	c.nop	1
 17a:	00000793          	li	a5,0
 17e:	0005                	c.nop	1
 180:	0f50                	addi	a2,sp,916
 182:	0000                	unimp
 184:	0005                	c.nop	1
 186:	2205                	jal	2a6 <_start-0x55a>
 188:	0000                	unimp
 18a:	0005                	c.nop	1
 18c:	3402                	fld	fs0,32(sp)
 18e:	0000                	unimp
 190:	0005                	c.nop	1
 192:	26c4                	fld	fs1,136(a3)
 194:	0000                	unimp
 196:	0005                	c.nop	1
 198:	068d                	addi	a3,a3,3
 19a:	0000                	unimp
 19c:	0005                	c.nop	1
 19e:	264a                	fld	fa2,144(sp)
 1a0:	0000                	unimp
 1a2:	0005                	c.nop	1
 1a4:	38a8                	fld	fa0,112(s1)
 1a6:	0000                	unimp
 1a8:	0005                	c.nop	1
 1aa:	2a76                	fld	fs4,344(sp)
 1ac:	0000                	unimp
 1ae:	0005                	c.nop	1
 1b0:	07bc                	addi	a5,sp,968
 1b2:	0000                	unimp
 1b4:	0005                	c.nop	1
 1b6:	2921                	jal	5ce <_start-0x232>
 1b8:	0000                	unimp
 1ba:	0005                	c.nop	1
 1bc:	00001627          	0x1627
 1c0:	0005                	c.nop	1
 1c2:	00002c23          	sw	zero,24(zero) # 18 <_start-0x7e8>
 1c6:	0005                	c.nop	1
 1c8:	1538                	addi	a4,sp,680
 1ca:	0000                	unimp
 1cc:	0005                	c.nop	1
 1ce:	00002c97          	auipc	s9,0x2
 1d2:	0005                	c.nop	1
 1d4:	3488                	fld	fa0,40(s1)
 1d6:	0000                	unimp
 1d8:	0005                	c.nop	1
 1da:	08b9                	addi	a7,a7,14
 1dc:	0000                	unimp
 1de:	0005                	c.nop	1
 1e0:	1b61                	addi	s6,s6,-8
 1e2:	0000                	unimp
 1e4:	0005                	c.nop	1
 1e6:	0b19                	addi	s6,s6,6
 1e8:	0000                	unimp
 1ea:	0005                	c.nop	1
 1ec:	2c74                	fld	fa3,216(s0)
 1ee:	0000                	unimp
 1f0:	0005                	c.nop	1
 1f2:	00001d67          	0x1d67
 1f6:	0005                	c.nop	1
 1f8:	2796                	fld	fa5,320(sp)
 1fa:	0000                	unimp
 1fc:	0005                	c.nop	1
 1fe:	269c                	fld	fa5,8(a3)
 200:	0000                	unimp
 202:	0005                	c.nop	1
 204:	0721                	addi	a4,a4,8
 206:	0000                	unimp
 208:	0005                	c.nop	1
 20a:	1098                	addi	a4,sp,96
 20c:	0000                	unimp
 20e:	0005                	c.nop	1
 210:	14f2                	slli	s1,s1,0x3c
 212:	0000                	unimp
 214:	0005                	c.nop	1
 216:	33ae                	fld	ft7,232(sp)
 218:	0000                	unimp
 21a:	0005                	c.nop	1
 21c:	0c01                	addi	s8,s8,0
 21e:	0000                	unimp
 220:	0005                	c.nop	1
 222:	0101                	addi	sp,sp,0
 224:	0000                	unimp
 226:	0005                	c.nop	1
 228:	17da                	slli	a5,a5,0x36
 22a:	0000                	unimp
 22c:	0005                	c.nop	1
 22e:	2970                	fld	fa2,208(a0)
 230:	0000                	unimp
 232:	0005                	c.nop	1
 234:	0ec2                	slli	t4,t4,0x10
 236:	0000                	unimp
 238:	0005                	c.nop	1
 23a:	3141                	jal	fffffeba <__freertos_irq_stack_top+0xefff7eba>
 23c:	0000                	unimp
 23e:	0005                	c.nop	1
 240:	0c91                	addi	s9,s9,4
 242:	0000                	unimp
 244:	0005                	c.nop	1
 246:	2fcd                	jal	a38 <timer0_itr_handler+0x4c>
 248:	0000                	unimp
 24a:	0005                	c.nop	1
 24c:	0404                	addi	s1,sp,512
 24e:	0000                	unimp
 250:	0005                	c.nop	1
 252:	187e                	slli	a6,a6,0x3f
 254:	0000                	unimp
 256:	0005                	c.nop	1
 258:	0a41                	addi	s4,s4,16
 25a:	0000                	unimp
 25c:	0005                	c.nop	1
 25e:	2762                	fld	fa4,24(sp)
 260:	0000                	unimp
 262:	0005                	c.nop	1
 264:	14b4                	addi	a3,sp,616
 266:	0000                	unimp
 268:	0005                	c.nop	1
 26a:	2220                	fld	fs0,64(a2)
 26c:	0000                	unimp
 26e:	0005                	c.nop	1
 270:	15ea                	slli	a1,a1,0x3a
 272:	0000                	unimp
 274:	0005                	c.nop	1
 276:	2d1f 0000 0005      	0x500002d1f
 27c:	09b0                	addi	a2,sp,216
 27e:	0000                	unimp
 280:	0005                	c.nop	1
 282:	00000767          	jalr	a4,zero # 0 <_start-0x800>
 286:	0005                	c.nop	1
 288:	2384                	fld	fs1,0(a5)
 28a:	0000                	unimp
 28c:	0005                	c.nop	1
 28e:	0e3d                	addi	t3,t3,15
 290:	0000                	unimp
 292:	0005                	c.nop	1
 294:	0b5f 0000 0005      	0x500000b5f
 29a:	2266                	fld	ft4,88(sp)
 29c:	0000                	unimp
 29e:	0005                	c.nop	1
 2a0:	2c40                	fld	fs0,152(s0)
 2a2:	0000                	unimp
 2a4:	0005                	c.nop	1
 2a6:	2da0                	fld	fs0,88(a1)
 2a8:	0000                	unimp
 2aa:	0005                	c.nop	1
 2ac:	2625                	jal	5d4 <_start-0x22c>
 2ae:	0000                	unimp
 2b0:	0005                	c.nop	1
 2b2:	000003cb          	fnmsub.s	ft7,ft0,ft0,ft0,rne
 2b6:	0005                	c.nop	1
 2b8:	1595                	addi	a1,a1,-27
 2ba:	0000                	unimp
 2bc:	0005                	c.nop	1
 2be:	281d                	jal	2f4 <_start-0x50c>
 2c0:	0000                	unimp
 2c2:	0005                	c.nop	1
 2c4:	32e4                	fld	fs1,224(a3)
 2c6:	0000                	unimp
 2c8:	0005                	c.nop	1
 2ca:	0000258f          	0x258f
 2ce:	0005                	c.nop	1
 2d0:	390d                	jal	ffffff02 <__freertos_irq_stack_top+0xefff7f02>
 2d2:	0000                	unimp
 2d4:	0005                	c.nop	1
 2d6:	342a                	fld	fs0,168(sp)
 2d8:	0000                	unimp
 2da:	0005                	c.nop	1
 2dc:	2ee9                	jal	6b6 <_start-0x14a>
 2de:	0000                	unimp
 2e0:	0005                	c.nop	1
 2e2:	08e2                	slli	a7,a7,0x18
 2e4:	0000                	unimp
 2e6:	0005                	c.nop	1
 2e8:	00001afb          	0x1afb
 2ec:	0005                	c.nop	1
 2ee:	13b8                	addi	a4,sp,488
 2f0:	0000                	unimp
 2f2:	0005                	c.nop	1
 2f4:	25f8                	fld	fa4,200(a1)
 2f6:	0000                	unimp
 2f8:	0005                	c.nop	1
 2fa:	000026f3          	csrr	a3,ustatus
 2fe:	0005                	c.nop	1
 300:	00000f63          	beqz	zero,31e <_start-0x4e2>
 304:	0005                	c.nop	1
 306:	2239                	jal	414 <_start-0x3ec>
 308:	0000                	unimp
 30a:	0005                	c.nop	1
 30c:	27dd                	jal	af2 <main+0x2>
 30e:	0000                	unimp
 310:	0005                	c.nop	1
 312:	20c5                	jal	3f2 <_start-0x40e>
 314:	0000                	unimp
 316:	0005                	c.nop	1
 318:	1a70                	addi	a2,sp,316
 31a:	0000                	unimp
 31c:	0005                	c.nop	1
 31e:	00001a83          	lh	s5,0(zero) # 0 <_start-0x800>
 322:	0005                	c.nop	1
 324:	245f 0000 0005      	0x50000245f
 32a:	00001f97          	auipc	t6,0x1
 32e:	0005                	c.nop	1
 330:	0884                	addi	s1,sp,80
 332:	0000                	unimp
 334:	0005                	c.nop	1
 336:	00000c23          	sb	zero,24(zero) # 18 <_start-0x7e8>
 33a:	0005                	c.nop	1
 33c:	1a59                	addi	s4,s4,-10
 33e:	0000                	unimp
 340:	0005                	c.nop	1
 342:	0a0a                	slli	s4,s4,0x2
 344:	0000                	unimp
 346:	0005                	c.nop	1
 348:	1f5c                	addi	a5,sp,948
 34a:	0000                	unimp
 34c:	0005                	c.nop	1
 34e:	0c42                	slli	s8,s8,0x10
 350:	0000                	unimp
 352:	0005                	c.nop	1
 354:	37bc                	fld	fa5,104(a5)
 356:	0000                	unimp
 358:	0005                	c.nop	1
 35a:	000036b7          	lui	a3,0x3
 35e:	0005                	c.nop	1
 360:	31b1                	jal	ffffffac <__freertos_irq_stack_top+0xefff7fac>
 362:	0000                	unimp
 364:	0005                	c.nop	1
 366:	0000196f          	jal	s2,1366 <apb_timer_get_itr_status+0x16>
 36a:	0005                	c.nop	1
 36c:	2ba6                	fld	fs7,72(sp)
 36e:	0000                	unimp
 370:	0005                	c.nop	1
 372:	000011f3          	csrrw	gp,ustatus,zero
 376:	0005                	c.nop	1
 378:	0eff                	0xeff
 37a:	0000                	unimp
 37c:	0005                	c.nop	1
 37e:	0308                	addi	a0,sp,384
 380:	0000                	unimp
 382:	0005                	c.nop	1
 384:	0e8e                	slli	t4,t4,0x3
 386:	0000                	unimp
 388:	0005                	c.nop	1
 38a:	0000065b          	0x65b
 38e:	0005                	c.nop	1
 390:	2a2d                	jal	4ca <_start-0x336>
 392:	0000                	unimp
 394:	0005                	c.nop	1
 396:	2b3a                	fld	fs6,392(sp)
 398:	0000                	unimp
 39a:	0005                	c.nop	1
 39c:	0fbe                	slli	t6,t6,0xf
 39e:	0000                	unimp
 3a0:	0005                	c.nop	1
 3a2:	00002dcb          	fnmsub.s	fs11,ft0,ft0,ft0,rdn
 3a6:	0005                	c.nop	1
 3a8:	06c2                	slli	a3,a3,0x10
 3aa:	0000                	unimp
 3ac:	0005                	c.nop	1
 3ae:	35e8                	fld	fa0,232(a1)
 3b0:	0000                	unimp
 3b2:	0005                	c.nop	1
 3b4:	372e                	fld	fa4,232(sp)
 3b6:	0000                	unimp
 3b8:	0005                	c.nop	1
 3ba:	01c0                	addi	s0,sp,196
 3bc:	0000                	unimp
 3be:	0005                	c.nop	1
 3c0:	00001fe3          	bnez	zero,bde <main+0xee>
 3c4:	0005                	c.nop	1
 3c6:	1cbd                	addi	s9,s9,-17
 3c8:	0000                	unimp
 3ca:	0005                	c.nop	1
 3cc:	0d3a                	slli	s10,s10,0xe
 3ce:	0000                	unimp
 3d0:	0005                	c.nop	1
 3d2:	398c                	fld	fa1,48(a1)
 3d4:	0000                	unimp
 3d6:	0005                	c.nop	1
 3d8:	13d6                	slli	t2,t2,0x35
 3da:	0000                	unimp
 3dc:	0005                	c.nop	1
 3de:	17ba                	slli	a5,a5,0x2e
 3e0:	0000                	unimp
 3e2:	0005                	c.nop	1
 3e4:	2b7a                	fld	fs6,408(sp)
 3e6:	0000                	unimp
 3e8:	0005                	c.nop	1
 3ea:	2b50                	fld	fa2,144(a4)
 3ec:	0000                	unimp
 3ee:	0005                	c.nop	1
 3f0:	2fac                	fld	fa1,88(a5)
 3f2:	0000                	unimp
 3f4:	0005                	c.nop	1
 3f6:	00001d53          	fadd.s	fs10,ft0,ft0,rtz
 3fa:	0005                	c.nop	1
 3fc:	3712                	fld	fa4,288(sp)
 3fe:	0000                	unimp
 400:	0005                	c.nop	1
 402:	00001b2b          	0x1b2b
 406:	0005                	c.nop	1
 408:	00002447          	fmsub.s	fs0,ft0,ft0,ft0,rdn
 40c:	0005                	c.nop	1
 40e:	191f 0000 0005      	0x50000191f
 414:	3376                	fld	ft6,376(sp)
 416:	0000                	unimp
 418:	0005                	c.nop	1
 41a:	3155                	jal	be <_start-0x742>
 41c:	0000                	unimp
 41e:	0005                	c.nop	1
 420:	0fe9                	addi	t6,t6,26
 422:	0000                	unimp
 424:	0005                	c.nop	1
 426:	175c                	addi	a5,sp,932
 428:	0000                	unimp
 42a:	0005                	c.nop	1
 42c:	0d78                	addi	a4,sp,668
 42e:	0000                	unimp
 430:	0005                	c.nop	1
 432:	361e                	fld	fa2,480(sp)
 434:	0000                	unimp
 436:	0005                	c.nop	1
 438:	0139                	addi	sp,sp,14
 43a:	0000                	unimp
 43c:	0005                	c.nop	1
 43e:	305a                	fld	ft0,432(sp)
 440:	0000                	unimp
 442:	0005                	c.nop	1
 444:	1644                	addi	s1,sp,804
 446:	0000                	unimp
 448:	0005                	c.nop	1
 44a:	000027c7          	fmsub.s	fa5,ft0,ft0,ft0,rdn
 44e:	0005                	c.nop	1
 450:	17fc                	addi	a5,sp,1004
 452:	0000                	unimp
 454:	0005                	c.nop	1
 456:	30f9                	jal	fffffd24 <__freertos_irq_stack_top+0xefff7d24>
 458:	0000                	unimp
 45a:	0005                	c.nop	1
 45c:	3305                	jal	17c <_start-0x684>
 45e:	0000                	unimp
 460:	0005                	c.nop	1
 462:	2d62                	fld	fs10,24(sp)
 464:	0000                	unimp
 466:	0005                	c.nop	1
 468:	00003977          	0x3977
 46c:	0005                	c.nop	1
 46e:	201c                	fld	fa5,0(s0)
 470:	0000                	unimp
 472:	0005                	c.nop	1
 474:	33c6                	fld	ft7,112(sp)
 476:	0000                	unimp
 478:	0005                	c.nop	1
 47a:	070d                	addi	a4,a4,3
 47c:	0000                	unimp
 47e:	0005                	c.nop	1
 480:	1bd1                	addi	s7,s7,-12
 482:	0000                	unimp
 484:	0005                	c.nop	1
 486:	000003b3          	add	t2,zero,zero
 48a:	0005                	c.nop	1
 48c:	00001833          	sll	a6,zero,zero
 490:	0005                	c.nop	1
 492:	215e                	fld	ft2,464(sp)
 494:	0000                	unimp
 496:	0005                	c.nop	1
 498:	34e6                	fld	fs1,120(sp)
 49a:	0000                	unimp
 49c:	0005                	c.nop	1
 49e:	39a4                	fld	fs1,112(a1)
 4a0:	0000                	unimp
 4a2:	0005                	c.nop	1
 4a4:	19d2                	slli	s3,s3,0x34
 4a6:	0000                	unimp
 4a8:	0005                	c.nop	1
 4aa:	1ced                	addi	s9,s9,-5
 4ac:	0000                	unimp
 4ae:	0005                	c.nop	1
 4b0:	00003847          	fmsub.s	fa6,ft0,ft0,ft0,rup
 4b4:	0005                	c.nop	1
 4b6:	00000257          	0x257
 4ba:	0005                	c.nop	1
 4bc:	0000099b          	0x99b
 4c0:	0005                	c.nop	1
 4c2:	00003397          	auipc	t2,0x3
 4c6:	0005                	c.nop	1
 4c8:	1058                	addi	a4,sp,36
 4ca:	0000                	unimp
 4cc:	0005                	c.nop	1
 4ce:	00000317          	auipc	t1,0x0
 4d2:	0005                	c.nop	1
 4d4:	00003093          	sltiu	ra,zero,0
 4d8:	0005                	c.nop	1
 4da:	00002803          	lw	a6,0(zero) # 0 <_start-0x800>
 4de:	0005                	c.nop	1
 4e0:	000018a7          	0x18a7
 4e4:	0005                	c.nop	1
 4e6:	10c8                	addi	a0,sp,100
 4e8:	0000                	unimp
 4ea:	0005                	c.nop	1
 4ec:	37dc                	fld	fa5,168(a5)
 4ee:	0000                	unimp
 4f0:	0005                	c.nop	1
 4f2:	05bc                	addi	a5,sp,712
 4f4:	0000                	unimp
 4f6:	0005                	c.nop	1
 4f8:	00003173          	csrrc	sp,ustatus,zero
 4fc:	0005                	c.nop	1
 4fe:	0000155b          	0x155b
 502:	0005                	c.nop	1
 504:	0946                	slli	s2,s2,0x11
 506:	0000                	unimp
 508:	0005                	c.nop	1
 50a:	165a                	slli	a2,a2,0x36
 50c:	0000                	unimp
 50e:	0005                	c.nop	1
 510:	0a54                	addi	a3,sp,276
 512:	0000                	unimp
 514:	0005                	c.nop	1
 516:	000038f7          	0x38f7
 51a:	0005                	c.nop	1
 51c:	0000242f          	amoadd.w	s0,zero,(zero)
 520:	0005                	c.nop	1
 522:	2a5d                	jal	6d8 <_start-0x128>
 524:	0000                	unimp
 526:	0005                	c.nop	1
 528:	000002c7          	fmsub.s	ft5,ft0,ft0,ft0,rne
 52c:	0005                	c.nop	1
 52e:	18dd                	addi	a7,a7,-9
 530:	0000                	unimp
 532:	0005                	c.nop	1
 534:	184d                	addi	a6,a6,-13
 536:	0000                	unimp
 538:	0005                	c.nop	1
 53a:	0980                	addi	s0,sp,208
 53c:	0000                	unimp
 53e:	0005                	c.nop	1
 540:	1b80                	addi	s0,sp,496
 542:	0000                	unimp
 544:	0005                	c.nop	1
 546:	2ff5                	jal	d42 <main+0x252>
 548:	0000                	unimp
 54a:	0005                	c.nop	1
 54c:	0eaa                	slli	t4,t4,0xa
 54e:	0000                	unimp
 550:	0005                	c.nop	1
 552:	380c                	fld	fa1,48(s0)
 554:	0000                	unimp
 556:	0005                	c.nop	1
 558:	21b2                	fld	ft3,264(sp)
 55a:	0000                	unimp
 55c:	0005                	c.nop	1
 55e:	2891                	jal	5b2 <_start-0x24e>
 560:	0000                	unimp
 562:	0005                	c.nop	1
 564:	25b6                	fld	fa1,328(sp)
 566:	0000                	unimp
 568:	0005                	c.nop	1
 56a:	0cc1                	addi	s9,s9,16
 56c:	0000                	unimp
 56e:	0005                	c.nop	1
 570:	00da                	slli	ra,ra,0x16
 572:	0000                	unimp
 574:	0005                	c.nop	1
 576:	0e58                	addi	a4,sp,788
 578:	0000                	unimp
 57a:	0005                	c.nop	1
 57c:	0000394b          	fnmsub.s	fs2,ft0,ft0,ft0,rup
 580:	0005                	c.nop	1
 582:	00000aeb          	0xaeb
 586:	0005                	c.nop	1
 588:	0000333f 14980005 	0x149800050000333f
 590:	0000                	unimp
 592:	0005                	c.nop	1
 594:	0122                	slli	sp,sp,0x8
 596:	0000                	unimp
 598:	0005                	c.nop	1
 59a:	0000124b          	fnmsub.s	ft4,ft0,ft0,ft0,rtz
 59e:	0005                	c.nop	1
 5a0:	177a                	slli	a4,a4,0x3e
 5a2:	0000                	unimp
 5a4:	0005                	c.nop	1
 5a6:	1dbd                	addi	s11,s11,-17
 5a8:	0000                	unimp
 5aa:	0005                	c.nop	1
 5ac:	061f 0000 0005      	0x50000061f
 5b2:	0de2                	slli	s11,s11,0x18
 5b4:	0000                	unimp
 5b6:	0005                	c.nop	1
 5b8:	374c                	fld	fa1,168(a4)
 5ba:	0000                	unimp
 5bc:	0005                	c.nop	1
 5be:	18ed                	addi	a7,a7,-5
 5c0:	0000                	unimp
 5c2:	0005                	c.nop	1
 5c4:	000010af          	0x10af
 5c8:	0005                	c.nop	1
 5ca:	0070                	addi	a2,sp,12
 5cc:	0000                	unimp
 5ce:	0005                	c.nop	1
 5d0:	000030a3          	0x30a3
 5d4:	0005                	c.nop	1
 5d6:	1526                	slli	a0,a0,0x29
 5d8:	0000                	unimp
 5da:	0005                	c.nop	1
 5dc:	0e21                	addi	t3,t3,8
 5de:	0000                	unimp
 5e0:	0005                	c.nop	1
 5e2:	2544                	fld	fs1,136(a0)
 5e4:	0000                	unimp
 5e6:	0005                	c.nop	1
 5e8:	0fa5                	addi	t6,t6,9
 5ea:	0000                	unimp
 5ec:	0005                	c.nop	1
 5ee:	141f 0000 0005      	0x50000141f
 5f4:	2db1                	jal	c50 <main+0x160>
 5f6:	0000                	unimp
 5f8:	0005                	c.nop	1
 5fa:	04ce                	slli	s1,s1,0x13
 5fc:	0000                	unimp
 5fe:	0005                	c.nop	1
 600:	143a                	slli	s0,s0,0x2e
 602:	0000                	unimp
 604:	0005                	c.nop	1
 606:	00002bbb          	0x2bbb
 60a:	0005                	c.nop	1
 60c:	3580                	fld	fs0,40(a1)
 60e:	0000                	unimp
 610:	0005                	c.nop	1
 612:	38df 0000 0005      	0x5000038df
 618:	0bbc                	addi	a5,sp,472
 61a:	0000                	unimp
 61c:	0005                	c.nop	1
 61e:	28f0                	fld	fa2,208(s1)
 620:	0000                	unimp
 622:	0005                	c.nop	1
 624:	00001c4f          	fnmadd.s	fs8,ft0,ft0,ft0,rtz
 628:	0005                	c.nop	1
 62a:	1c3d                	addi	s8,s8,-17
 62c:	0000                	unimp
 62e:	0005                	c.nop	1
 630:	29f2                	fld	fs3,280(sp)
 632:	0000                	unimp
 634:	0005                	c.nop	1
 636:	2939                	jal	a54 <tube_scan_disp+0x18>
 638:	0000                	unimp
 63a:	0005                	c.nop	1
 63c:	01a8                	addi	a0,sp,200
 63e:	0000                	unimp
 640:	0005                	c.nop	1
 642:	36f8                	fld	fa4,232(a3)
 644:	0000                	unimp
 646:	0005                	c.nop	1
 648:	0381                	addi	t2,t2,0
 64a:	0000                	unimp
 64c:	0005                	c.nop	1
 64e:	0490                	addi	a2,sp,576
 650:	0000                	unimp
 652:	0005                	c.nop	1
 654:	1eb6                	slli	t4,t4,0x2d
 656:	0000                	unimp
 658:	0005                	c.nop	1
 65a:	16a0                	addi	s0,sp,872
 65c:	0000                	unimp
 65e:	0005                	c.nop	1
 660:	0ff9                	addi	t6,t6,30
 662:	0000                	unimp
 664:	0005                	c.nop	1
 666:	1935                	addi	s2,s2,-19
 668:	0000                	unimp
 66a:	0005                	c.nop	1
 66c:	000018c3          	fmadd.s	fa7,ft0,ft0,ft0,rtz
 670:	0005                	c.nop	1
 672:	000034cb          	fnmsub.s	fs1,ft0,ft0,ft0,rup
 676:	0005                	c.nop	1
 678:	21ed                	jal	b62 <main+0x72>
 67a:	0000                	unimp
 67c:	0005                	c.nop	1
 67e:	1318                	addi	a4,sp,416
 680:	0000                	unimp
 682:	0005                	c.nop	1
 684:	0d1e                	slli	s10,s10,0x7
 686:	0000                	unimp
 688:	0005                	c.nop	1
 68a:	139a                	slli	t2,t2,0x26
 68c:	0000                	unimp
 68e:	0005                	c.nop	1
 690:	0831                	addi	a6,a6,12
 692:	0000                	unimp
 694:	0005                	c.nop	1
 696:	0000247b          	0x247b
 69a:	0005                	c.nop	1
 69c:	36de                	fld	fa3,496(sp)
 69e:	0000                	unimp
 6a0:	0005                	c.nop	1
 6a2:	120c                	addi	a1,sp,288
 6a4:	0000                	unimp
 6a6:	0005                	c.nop	1
 6a8:	284a                	fld	fa6,144(sp)
 6aa:	0000                	unimp
 6ac:	0005                	c.nop	1
 6ae:	01fc                	addi	a5,sp,204
 6b0:	0000                	unimp
 6b2:	0005                	c.nop	1
 6b4:	0152                	slli	sp,sp,0x14
 6b6:	0000                	unimp
 6b8:	0005                	c.nop	1
 6ba:	132a                	slli	t1,t1,0x2a
 6bc:	0000                	unimp
 6be:	0005                	c.nop	1
 6c0:	000029bf 20010005 	0x20010005000029bf
 6c8:	0000                	unimp
 6ca:	0005                	c.nop	1
 6cc:	25a1                	jal	d14 <main+0x224>
 6ce:	0000                	unimp
 6d0:	0005                	c.nop	1
 6d2:	30c5                	jal	ffffffb2 <__freertos_irq_stack_top+0xefff7fb2>
 6d4:	0000                	unimp
 6d6:	0005                	c.nop	1
 6d8:	1342                	slli	t1,t1,0x30
 6da:	0000                	unimp
 6dc:	0005                	c.nop	1
 6de:	0dc6                	slli	s11,s11,0x11
 6e0:	0000                	unimp
 6e2:	0005                	c.nop	1
 6e4:	00001b0f          	0x1b0f
 6e8:	0005                	c.nop	1
 6ea:	000007e3          	beqz	zero,ef8 <plic_enable_interrupt>
 6ee:	0005                	c.nop	1
 6f0:	1fbc                	addi	a5,sp,1016
 6f2:	0000                	unimp
 6f4:	0005                	c.nop	1
 6f6:	3961                	jal	38e <_start-0x472>
 6f8:	0000                	unimp
 6fa:	0005                	c.nop	1
 6fc:	19b9                	addi	s3,s3,-18
 6fe:	0000                	unimp
 700:	0005                	c.nop	1
 702:	0000290b          	0x290b
 706:	0005                	c.nop	1
 708:	37f5                	jal	6f4 <_start-0x10c>
 70a:	0000                	unimp
 70c:	0005                	c.nop	1
 70e:	00001143          	fmadd.s	ft2,ft0,ft0,ft0,rtz
 712:	0005                	c.nop	1
 714:	023d                	addi	tp,tp,15
 716:	0000                	unimp
 718:	0005                	c.nop	1
 71a:	00a9                	addi	ra,ra,10
 71c:	0000                	unimp
 71e:	0005                	c.nop	1
 720:	12e9                	addi	t0,t0,-6
 722:	0000                	unimp
 724:	0005                	c.nop	1
 726:	0f18                	addi	a4,sp,912
 728:	0000                	unimp
 72a:	0005                	c.nop	1
 72c:	23b2                	fld	ft7,264(sp)
 72e:	0000                	unimp
 730:	0005                	c.nop	1
 732:	29d9                	jal	c08 <main+0x118>
 734:	0000                	unimp
 736:	0005                	c.nop	1
 738:	3662                	fld	fa2,56(sp)
 73a:	0000                	unimp
 73c:	0005                	c.nop	1
 73e:	0f75                	addi	t5,t5,29
 740:	0000                	unimp
 742:	0005                	c.nop	1
 744:	0a95                	addi	s5,s5,5
 746:	0000                	unimp
 748:	0005                	c.nop	1
 74a:	00001793          	slli	a5,zero,0x0
 74e:	0005                	c.nop	1
 750:	2685                	jal	ab0 <tube_scan_disp+0x74>
 752:	0000                	unimp
 754:	0005                	c.nop	1
 756:	15a8                	addi	a0,sp,744
 758:	0000                	unimp
 75a:	0005                	c.nop	1
 75c:	1716                	slli	a4,a4,0x25
 75e:	0000                	unimp
 760:	0005                	c.nop	1
 762:	07a8                	addi	a0,sp,968
 764:	0000                	unimp
 766:	0005                	c.nop	1
 768:	3644                	fld	fs1,168(a2)
 76a:	0000                	unimp
 76c:	0005                	c.nop	1
 76e:	1b96                	slli	s7,s7,0x25
 770:	0000                	unimp
 772:	0005                	c.nop	1
 774:	03e2                	slli	t2,t2,0x18
 776:	0000                	unimp
 778:	0005                	c.nop	1
 77a:	2e7e                	fld	ft8,472(sp)
 77c:	0000                	unimp
 77e:	0005                	c.nop	1
 780:	1998                	addi	a4,sp,240
 782:	0000                	unimp
 784:	0005                	c.nop	1
 786:	0000329b          	0x329b
 78a:	0005                	c.nop	1
 78c:	1169                	addi	sp,sp,-6
 78e:	0000                	unimp
 790:	0005                	c.nop	1
 792:	1c1f 0000 0005      	0x500001c1f
 798:	0000303b          	0x303b
 79c:	0005                	c.nop	1
 79e:	1e0a                	slli	t3,t3,0x22
 7a0:	0000                	unimp
 7a2:	0005                	c.nop	1
 7a4:	2e26                	fld	ft8,72(sp)
 7a6:	0000                	unimp
 7a8:	0005                	c.nop	1
 7aa:	00001f6b          	0x1f6b
 7ae:	0005                	c.nop	1
 7b0:	388c                	fld	fa1,48(s1)
 7b2:	0000                	unimp
 7b4:	0005                	c.nop	1
 7b6:	24e8                	fld	fa0,200(s1)
 7b8:	0000                	unimp
 7ba:	0005                	c.nop	1
 7bc:	050d                	addi	a0,a0,3
 7be:	0000                	unimp
 7c0:	0005                	c.nop	1
 7c2:	1281                	addi	t0,t0,-32
 7c4:	0000                	unimp
 7c6:	0005                	c.nop	1
 7c8:	3420                	fld	fs0,104(s0)
 7ca:	0000                	unimp
 7cc:	0005                	c.nop	1
 7ce:	1ea8                	addi	a0,sp,888
 7d0:	0000                	unimp
 7d2:	0005                	c.nop	1
 7d4:	00002a4f          	fnmadd.s	fs4,ft0,ft0,ft0,rdn
 7d8:	0005                	c.nop	1
 7da:	0ada                	slli	s5,s5,0x16
 7dc:	0000                	unimp
 7de:	0005                	c.nop	1
 7e0:	1726                	slli	a4,a4,0x29
 7e2:	0000                	unimp
 7e4:	0005                	c.nop	1
 7e6:	2e0d                	jal	b18 <main+0x28>
 7e8:	0000                	unimp
 7ea:	0005                	c.nop	1
 7ec:	0000039b          	0x39b
 7f0:	0005                	c.nop	1
 7f2:	369c                	fld	fa5,40(a3)
 7f4:	0000                	unimp
 7f6:	0400                	addi	s0,sp,512
 7f8:	0000                	unimp
 7fa:	0405                	addi	s0,s0,1
 7fc:	3458                	fld	fa4,168(s0)
 7fe:	0000                	unimp
 800:	0605                	addi	a2,a2,1
 802:	1cd5                	addi	s9,s9,-11
 804:	0000                	unimp
 806:	0705                	addi	a4,a4,1
 808:	0912                	slli	s2,s2,0x4
 80a:	0000                	unimp
 80c:	0805                	addi	a6,a6,1
 80e:	0ba9                	addi	s7,s7,10
 810:	0000                	unimp
 812:	0905                	addi	s2,s2,1
 814:	1866                	slli	a6,a6,0x39
 816:	0000                	unimp
 818:	0400                	addi	s0,sp,512
 81a:	0000                	unimp
 81c:	2105                	jal	c3c <main+0x14c>
 81e:	0521                	addi	a0,a0,8
 820:	0000                	unimp
 822:	2805                	jal	852 <_start+0x52>
 824:	272c                	fld	fa1,72(a4)
 826:	0000                	unimp
 828:	8306                	mv	t1,ra
 82a:	0f01                	addi	t5,t5,0
 82c:	002d                	c.nop	11
 82e:	0500                	addi	s0,sp,640
 830:	0184                	addi	s1,sp,192
 832:	000014cb          	fnmsub.s	fs1,ft0,ft0,ft0,rtz
 836:	8806                	mv	a6,ra
 838:	6b01                	0x6b01
 83a:	0006                	c.slli	zero,0x1
 83c:	0500                	addi	s0,sp,640
 83e:	0189                	addi	gp,gp,2
 840:	32ba                	fld	ft5,424(sp)
 842:	0000                	unimp
 844:	8a06                	mv	s4,ra
 846:	fc01                	bnez	s0,75e <_start-0xa2>
 848:	0500002b          	0x500002b
 84c:	224e018b          	0x224e018b
 850:	0000                	unimp
 852:	9e06                	add	t3,t3,ra
 854:	d601                	beqz	a2,75c <_start-0xa4>
 856:	0500000b          	0x500000b
 85a:	019f 0c31 0000      	0xc31019f
 860:	f705                	bnez	a4,788 <_start-0x78>
 862:	4101                	li	sp,0
 864:	0032                	c.slli	zero,0xc
 866:	0500                	addi	s0,sp,640
 868:	01fd                	addi	gp,gp,31
 86a:	13f5                	addi	t2,t2,-3
 86c:	0000                	unimp
 86e:	8505                	srai	a0,a0,0x1
 870:	1602                	slli	a2,a2,0x20
 872:	0015                	c.nop	5
 874:	0500                	addi	s0,sp,640
 876:	028a                	slli	t0,t0,0x2
 878:	2d4d                	jal	f2a <plic_enable_interrupt+0x32>
 87a:	0000                	unimp
 87c:	9505                	srai	a0,a0,0x21
 87e:	d502                	sw	zero,168(sp)
 880:	002a                	c.slli	zero,0xa
 882:	0500                	addi	s0,sp,640
 884:	0299                	addi	t0,t0,6
 886:	3130                	fld	fa2,96(a0)
 888:	0000                	unimp
 88a:	9f05                	0x9f05
 88c:	f802                	fsw	ft0,48(sp)
 88e:	002c                	addi	a1,sp,8
 890:	0500                	addi	s0,sp,640
 892:	1df902af          	0x1df902af
 896:	0000                	unimp
 898:	bf05                	j	7c8 <_start-0x38>
 89a:	9302                	jalr	t1
 89c:	001c                	0x1c
 89e:	0500                	addi	s0,sp,640
 8a0:	02ca                	slli	t0,t0,0x12
 8a2:	0d62                	slli	s10,s10,0x18
 8a4:	0000                	unimp
 8a6:	0400                	addi	s0,sp,512
 8a8:	0000                	unimp
 8aa:	0f05                	addi	t5,t5,1
 8ac:	29aa                	fld	fs3,136(sp)
 8ae:	0000                	unimp
 8b0:	1a05                	addi	s4,s4,-31
 8b2:	0c66                	slli	s8,s8,0x19
 8b4:	0000                	unimp
 8b6:	2105                	jal	cd6 <main+0x1e6>
 8b8:	0198                	addi	a4,sp,192
 8ba:	0000                	unimp
 8bc:	2f05                	jal	fec <plic_claim_interrupt+0x4>
 8be:	2a0d                	jal	9f0 <timer0_itr_handler+0x4>
 8c0:	0000                	unimp
 8c2:	3d05                	jal	6f2 <_start-0x10e>
 8c4:	00001bfb          	0x1bfb
 8c8:	5305                	li	t1,-31
 8ca:	14dd                	addi	s1,s1,-9
 8cc:	0000                	unimp
 8ce:	6d05                	lui	s10,0x1
 8d0:	12d4                	addi	a3,sp,356
 8d2:	0000                	unimp
 8d4:	8c05                	sub	s0,s0,s1
 8d6:	ca01                	beqz	a2,8e6 <trap_entry+0x7e>
 8d8:	0032                	c.slli	zero,0xc
 8da:	0500                	addi	s0,sp,640
 8dc:	01a6                	slli	gp,gp,0x9
 8de:	1ae0                	addi	s0,sp,380
 8e0:	0000                	unimp
 8e2:	bc05                	j	312 <_start-0x4ee>
 8e4:	e001                	bnez	s0,8e4 <trap_entry+0x7c>
 8e6:	0500001b          	0x500001b
 8ea:	01ce                	slli	gp,gp,0x13
 8ec:	1904                	addi	s1,sp,176
 8ee:	0000                	unimp
 8f0:	f406                	fsw	ft1,40(sp)
 8f2:	7d01                	lui	s10,0xfffe0
 8f4:	0032                	c.slli	zero,0xc
 8f6:	0000                	unimp
 8f8:	0004                	0x4
 8fa:	0500                	addi	s0,sp,640
 8fc:	fc0a                	fsw	ft2,56(sp)
 8fe:	05000007          	0x5000007
 902:	0d10                	addi	a2,sp,656
 904:	0030                	addi	a2,sp,8
 906:	0600                	addi	s0,sp,768
 908:	2a2a                	fld	fs4,136(sp)
 90a:	0008                	0x8
 90c:	0600                	addi	s0,sp,768
 90e:	0008282b          	0x8282b
 912:	0600                	addi	s0,sp,768
 914:	8b2c                	0x8b2c
 916:	002a                	c.slli	zero,0xa
 918:	0600                	addi	s0,sp,768
 91a:	a02d                	j	944 <asynchronous_return+0x40>
 91c:	0002                	c.slli64	zero
 91e:	0200                	addi	s0,sp,256
 920:	692e                	flw	fs2,200(sp)
 922:	746e                	flw	fs0,248(sp)
 924:	0600                	addi	s0,sp,768
 926:	00316b2f          	0x316b2f
 92a:	0600                	addi	s0,sp,768
 92c:	9830                	0x9830
 92e:	000d                	c.nop	3
 930:	0500                	addi	s0,sp,640
 932:	fb31                	bnez	a4,886 <trap_entry+0x1e>
 934:	0032                	c.slli	zero,0xc
 936:	0500                	addi	s0,sp,640
 938:	f932                	fsw	fa2,176(sp)
 93a:	0032                	c.slli	zero,0xc
 93c:	0500                	addi	s0,sp,640
 93e:	0009d333          	srl	t1,s3,zero
 942:	0500                	addi	s0,sp,640
 944:	0434                	addi	a3,sp,520
 946:	05000007          	0x5000007
 94a:	5335                	li	t1,-19
 94c:	0021                	c.nop	8
 94e:	0500                	addi	s0,sp,640
 950:	8a36                	mv	s4,a3
 952:	000c                	0xc
 954:	0500                	addi	s0,sp,640
 956:	001d8a37          	lui	s4,0x1d8
 95a:	0500                	addi	s0,sp,640
 95c:	5f40                	lw	s0,60(a4)
 95e:	0019                	c.nop	6
 960:	0500                	addi	s0,sp,640
 962:	000c7a47          	fmsub.s	fs4,fs8,ft0,ft0
 966:	0500                	addi	s0,sp,640
 968:	00150a4f          	fnmadd.s	fs4,fa0,ft1,ft0,rne
 96c:	0500                	addi	s0,sp,640
 96e:	9a5a                	add	s4,s4,s6
 970:	0500002b          	0x500002b
 974:	2165                	jal	e1c <trap_handler+0x4c>
 976:	002a                	c.slli	zero,0xa
 978:	0500                	addi	s0,sp,640
 97a:	226e                	fld	ft4,216(sp)
 97c:	0024                	addi	s1,sp,8
 97e:	0500                	addi	s0,sp,640
 980:	5975                	li	s2,-3
 982:	05000027          	0x5000027
 986:	967e                	add	a2,a2,t6
 988:	0016                	c.slli	zero,0x5
 98a:	0500                	addi	s0,sp,640
 98c:	0185                	addi	gp,gp,1
 98e:	0afc                	addi	a5,sp,348
 990:	0000                	unimp
 992:	9005                	srli	s0,s0,0x21
 994:	a601                	j	c94 <main+0x1a4>
 996:	0002                	c.slli64	zero
 998:	0500                	addi	s0,sp,640
 99a:	0194                	addi	a3,sp,192
 99c:	085d                	addi	a6,a6,23
 99e:	0000                	unimp
 9a0:	9f05                	0x9f05
 9a2:	9701                	srai	a4,a4,0x20
 9a4:	0500000f          	fence	ow,unknown
 9a8:	01aa                	slli	gp,gp,0xa
 9aa:	1bb4                	addi	a3,sp,504
 9ac:	0000                	unimp
 9ae:	b305                	j	6ce <_start-0x132>
 9b0:	1001                	c.nop	-32
 9b2:	001c                	0x1c
 9b4:	0600                	addi	s0,sp,768
 9b6:	01b5                	addi	gp,gp,13
 9b8:	082a                	slli	a6,a6,0xa
 9ba:	0000                	unimp
 9bc:	b606                	fsd	ft1,296(sp)
 9be:	2801                	jal	9ce <ext_irq_handler+0x3e>
 9c0:	0008                	0x8
 9c2:	0600                	addi	s0,sp,768
 9c4:	2a8b01b7          	lui	gp,0x2a8b0
 9c8:	0000                	unimp
 9ca:	b806                	fsd	ft1,48(sp)
 9cc:	a001                	j	9cc <ext_irq_handler+0x3c>
 9ce:	0002                	c.slli64	zero
 9d0:	0200                	addi	s0,sp,256
 9d2:	01b9                	addi	gp,gp,14
 9d4:	6e69                	lui	t3,0x1a
 9d6:	0074                	addi	a3,sp,12
 9d8:	ba06                	fsd	ft1,304(sp)
 9da:	9801                	andi	s0,s0,-32
 9dc:	000d                	c.nop	3
 9de:	0600                	addi	s0,sp,768
 9e0:	316b01bf 04000000 	0x4000000316b01bf
 9e8:	0000                	unimp
 9ea:	0a05                	addi	s4,s4,1
 9ec:	0cd8                	addi	a4,sp,596
 9ee:	0000                	unimp
 9f0:	1505                	addi	a0,a0,-31
 9f2:	3029                	jal	1fc <_start-0x604>
 9f4:	0000                	unimp
 9f6:	1905                	addi	s2,s2,-31
 9f8:	0bee                	slli	s7,s7,0x1b
 9fa:	0000                	unimp
 9fc:	1b05                	addi	s6,s6,-31
 9fe:	2a0e                	fld	fs4,192(sp)
 a00:	0000                	unimp
 a02:	2105                	jal	e22 <trap_handler+0x52>
 a04:	000023e3          	0x23e3
 a08:	2505                	jal	1028 <plic_claim_interrupt+0x40>
 a0a:	000009db          	0x9db
 a0e:	2705                	jal	112e <apb_gpio_read_pin+0xe>
 a10:	1bfc                	addi	a5,sp,508
 a12:	0000                	unimp
 a14:	2d05                	jal	1044 <plic_complete_interrupt>
 a16:	24d5                	jal	cfa <main+0x20a>
 a18:	0000                	unimp
 a1a:	3105                	jal	63a <_start-0x1c6>
 a1c:	0b78                	addi	a4,sp,412
 a1e:	0000                	unimp
 a20:	3305                	jal	740 <_start-0xc0>
 a22:	14de                	slli	s1,s1,0x37
 a24:	0000                	unimp
 a26:	3905                	jal	656 <_start-0x1aa>
 a28:	000036cb          	fnmsub.s	fa3,ft0,ft0,ft0,rup
 a2c:	3d05                	jal	85c <_start+0x5c>
 a2e:	1186                	slli	gp,gp,0x21
 a30:	0000                	unimp
 a32:	3f05                	jal	962 <asynchronous_return+0x5e>
 a34:	12d5                	addi	t0,t0,-11
 a36:	0000                	unimp
 a38:	4405                	li	s0,1
 a3a:	1da9                	addi	s11,s11,-22
 a3c:	0000                	unimp
 a3e:	4905                	li	s2,1
 a40:	2d38                	fld	fa4,88(a0)
 a42:	0000                	unimp
 a44:	4e05                	li	t3,1
 a46:	1c66                	slli	s8,s8,0x39
 a48:	0000                	unimp
 a4a:	5305                	li	t1,-31
 a4c:	00002f73          	csrr	t5,ustatus
 a50:	0400                	addi	s0,sp,512
 a52:	0000                	unimp
 a54:	1705                	addi	a4,a4,-31
 a56:	000032cb          	fnmsub.s	ft5,ft0,ft0,ft0,rup
 a5a:	1d05                	addi	s10,s10,-31
 a5c:	1ae1                	addi	s5,s5,-8
 a5e:	0000                	unimp
 a60:	2305                	jal	f80 <plic_enable_interrupt+0x88>
 a62:	1be1                	addi	s7,s7,-8
 a64:	0000                	unimp
 a66:	2905                	jal	e96 <plic_init+0x2e>
 a68:	1905                	addi	s2,s2,-31
 a6a:	0000                	unimp
 a6c:	3505                	jal	88c <trap_entry+0x24>
 a6e:	00002b0f          	0x2b0f
 a72:	3f05                	jal	9a2 <ext_irq_handler+0x12>
 a74:	266c                	fld	fa1,200(a2)
 a76:	0000                	unimp
 a78:	4905                	li	s2,1
 a7a:	20e8                	fld	fa0,192(s1)
 a7c:	0000                	unimp
 a7e:	5305                	li	t1,-31
 a80:	1c7a                	slli	s8,s8,0x3e
 a82:	0000                	unimp
 a84:	8005                	srli	s0,s0,0x1
 a86:	0b01                	addi	s6,s6,0
 a88:	05000027          	0x5000027
 a8c:	0181                	addi	gp,gp,0
 a8e:	0a25                	addi	s4,s4,9
 a90:	0000                	unimp
 a92:	8205                	srli	a2,a2,0x1
 a94:	9401                	srai	s0,s0,0x20
 a96:	05000023          	sb	a6,64(zero) # 40 <_start-0x7c0>
 a9a:	0198                	addi	a4,sp,192
 a9c:	34fd                	jal	58a <_start-0x276>
 a9e:	0000                	unimp
 aa0:	9905                	andi	a0,a0,-31
 aa2:	5c01                	li	s8,-32
 aa4:	05000023          	sb	a6,64(zero) # 40 <_start-0x7c0>
 aa8:	019a                	slli	gp,gp,0x6
 aaa:	008a                	slli	ra,ra,0x2
 aac:	0000                	unimp
 aae:	a205                	j	bce <main+0xde>
 ab0:	ab01                	j	fc0 <plic_set_priority+0x24>
 ab2:	0012                	c.slli	zero,0x4
 ab4:	0500                	addi	s0,sp,640
 ab6:	1d2f01a3          	sb	s2,451(t5) # 1a1c3 <__stack_size+0x181c3>
 aba:	0000                	unimp
 abc:	a405                	j	cdc <main+0x1ec>
 abe:	3b01                	jal	7ce <_start-0x32>
 ac0:	0500001b          	0x500001b
 ac4:	01ae                	slli	gp,gp,0xb
 ac6:	119a                	slli	gp,gp,0x26
 ac8:	0000                	unimp
 aca:	af05                	j	11fa <init_apb_timer+0x6e>
 acc:	0501                	addi	a0,a0,0
 ace:	0014                	0x14
 ad0:	0500                	addi	s0,sp,640
 ad2:	01b0                	addi	a2,sp,200
 ad4:	000011d7          	0x11d7
 ad8:	b805                	j	308 <_start-0x4f8>
 ada:	bf01                	j	9ea <ext_irq_handler+0x5a>
 adc:	0015                	c.nop	5
 ade:	0500                	addi	s0,sp,640
 ae0:	01b9                	addi	gp,gp,14
 ae2:	00002f3b          	0x2f3b
 ae6:	ba05                	j	416 <_start-0x3ea>
 ae8:	ca01                	beqz	a2,af8 <main+0x8>
 aea:	0031                	c.nop	12
 aec:	0500                	addi	s0,sp,640
 aee:	01c4                	addi	s1,sp,196
 af0:	38c0                	fld	fs0,176(s1)
 af2:	0000                	unimp
 af4:	c505                	beqz	a0,b1c <main+0x2c>
 af6:	bb01                	j	806 <_start+0x6>
 af8:	002a                	c.slli	zero,0xa
 afa:	0500                	addi	s0,sp,640
 afc:	01c6                	slli	gp,gp,0x11
 afe:	0e72                	slli	t3,t3,0x1c
 b00:	0000                	unimp
 b02:	d405                	beqz	s0,a2a <timer0_itr_handler+0x3e>
 b04:	9901                	andi	a0,a0,-32
 b06:	001a                	c.slli	zero,0x6
 b08:	0500                	addi	s0,sp,640
 b0a:	01d5                	addi	gp,gp,21
 b0c:	1374                	addi	a3,sp,428
 b0e:	0000                	unimp
 b10:	d605                	beqz	a2,a38 <timer0_itr_handler+0x4c>
 b12:	5901                	li	s2,-32
 b14:	05000003          	lb	zero,80(zero) # 50 <_start-0x7b0>
 b18:	01e6                	slli	gp,gp,0x19
 b1a:	1479                	addi	s0,s0,-2
 b1c:	0000                	unimp
 b1e:	e705                	bnez	a4,b46 <main+0x56>
 b20:	f001                	bnez	s0,a20 <timer0_itr_handler+0x34>
 b22:	0016                	c.slli	zero,0x5
 b24:	0500                	addi	s0,sp,640
 b26:	01e8                	addi	a0,sp,204
 b28:	1ac4                	addi	s1,sp,372
 b2a:	0000                	unimp
 b2c:	f605                	bnez	a2,a54 <tube_scan_disp+0x18>
 b2e:	dd01                	beqz	a0,a46 <tube_scan_disp+0xa>
 b30:	0002                	c.slli64	zero
 b32:	0500                	addi	s0,sp,640
 b34:	173601f7          	0x173601f7
 b38:	0000                	unimp
 b3a:	f805                	bnez	s0,a6a <tube_scan_disp+0x2e>
 b3c:	3701                	jal	a3c <tube_scan_disp>
 b3e:	0500000b          	0x500000b
 b42:	0286                	slli	t0,t0,0x1
 b44:	3559                	jal	9ca <ext_irq_handler+0x3a>
 b46:	0000                	unimp
 b48:	8705                	srai	a4,a4,0x1
 b4a:	c602                	sw	zero,12(sp)
 b4c:	0035                	c.nop	13
 b4e:	0500                	addi	s0,sp,640
 b50:	0288                	addi	a0,sp,320
 b52:	2f88                	fld	fa0,24(a5)
 b54:	0000                	unimp
 b56:	9605                	srai	a2,a2,0x21
 b58:	5402                	lw	s0,32(sp)
 b5a:	0032                	c.slli	zero,0xc
 b5c:	0500                	addi	s0,sp,640
 b5e:	1e460297          	auipc	t0,0x1e460
 b62:	0000                	unimp
 b64:	9805                	andi	s0,s0,-31
 b66:	e702                	fsw	ft0,140(sp)
 b68:	002d                	c.nop	11
 b6a:	0500                	addi	s0,sp,640
 b6c:	02a6                	slli	t0,t0,0x9
 b6e:	0d9d                	addi	s11,s11,7
 b70:	0000                	unimp
 b72:	a705                	j	1292 <init_apb_timer+0x106>
 b74:	b102                	fsd	ft0,160(sp)
 b76:	0024                	addi	s1,sp,8
 b78:	0500                	addi	s0,sp,640
 b7a:	02a8                	addi	a0,sp,328
 b7c:	2ea0                	fld	fs0,88(a3)
 b7e:	0000                	unimp
 b80:	b605                	j	6a0 <_start-0x160>
 b82:	8202                	jr	tp
 b84:	0005                	c.nop	1
 b86:	0500                	addi	s0,sp,640
 b88:	2aeb02b7          	lui	t0,0x2aeb0
 b8c:	0000                	unimp
 b8e:	b805                	j	3be <_start-0x442>
 b90:	8b02                	jr	s6
 b92:	0031                	c.nop	12
 b94:	0500                	addi	s0,sp,640
 b96:	02c6                	slli	t0,t0,0x11
 b98:	000034af          	0x34af
 b9c:	c705                	beqz	a4,bc4 <main+0xd4>
 b9e:	df02                	sw	zero,188(sp)
 ba0:	0001                	nop
 ba2:	0500                	addi	s0,sp,640
 ba4:	11b902cf          	fnmadd.s	ft5,fs2,fs11,ft2,rne
 ba8:	0000                	unimp
 baa:	d705                	beqz	a4,ad2 <tube_scan_disp+0x96>
 bac:	5c02                	lw	s8,32(sp)
 bae:	002c                	addi	a1,sp,8
 bb0:	0500                	addi	s0,sp,640
 bb2:	02dd                	addi	t0,t0,23
 bb4:	00002173          	csrr	sp,ustatus
 bb8:	de05                	beqz	a2,af0 <main>
 bba:	f802                	fsw	ft0,48(sp)
 bbc:	0005                	c.nop	1
 bbe:	0500                	addi	s0,sp,640
 bc0:	02e2                	slli	t0,t0,0x18
 bc2:	2e60                	fld	fs0,216(a2)
 bc4:	0000                	unimp
 bc6:	e605                	bnez	a2,bee <main+0xfe>
 bc8:	ff02                	fsw	ft0,188(sp)
 bca:	0035                	c.nop	13
 bcc:	0500                	addi	s0,sp,640
 bce:	295602eb          	0x295602eb
 bd2:	0000                	unimp
 bd4:	f605                	bnez	a2,afc <main+0xc>
 bd6:	1402                	slli	s0,s0,0x20
 bd8:	001a                	c.slli	zero,0x6
 bda:	0500                	addi	s0,sp,640
 bdc:	0380                	addi	s0,sp,448
 bde:	2cb9                	jal	e3c <trap_handler+0x6c>
 be0:	0000                	unimp
 be2:	8505                	srai	a0,a0,0x1
 be4:	002aa303          	lw	t1,2(s5)
 be8:	0500                	addi	s0,sp,640
 bea:	038c                	addi	a1,sp,448
 bec:	37a6                	fld	fa5,104(sp)
 bee:	0000                	unimp
 bf0:	8d05                	sub	a0,a0,s1
 bf2:	001e2e03          	lw	t3,1(t3) # 1a001 <__stack_size+0x18001>
 bf6:	0500                	addi	s0,sp,640
 bf8:	0398                	addi	a4,sp,448
 bfa:	1300                	addi	s0,sp,416
 bfc:	0000                	unimp
 bfe:	9905                	andi	a0,a0,-31
 c00:	001ca303          	lw	t1,1(s9) # 21cf <__stack_size+0x1cf>
 c04:	0500                	addi	s0,sp,640
 c06:	03a4                	addi	s1,sp,456
 c08:	08fa                	slli	a7,a7,0x1e
 c0a:	0000                	unimp
 c0c:	a505                	j	122c <init_apb_timer+0xa0>
 c0e:	00240803          	lb	a6,2(s0)
 c12:	0500                	addi	s0,sp,640
 c14:	03b1                	addi	t2,t2,12
 c16:	00003283          	0x3283
 c1a:	b205                	j	53a <_start-0x2c6>
 c1c:	00033f03          	0x33f03
 c20:	0500                	addi	s0,sp,640
 c22:	03c1                	addi	t2,t2,16
 c24:	346e                	fld	fs0,248(sp)
 c26:	0000                	unimp
 c28:	c205                	beqz	a2,c48 <main+0x158>
 c2a:	001a2e03          	lw	t3,1(s4) # 1d8001 <__stack_size+0x1d6001>
 c2e:	0000                	unimp
 c30:	0004                	0x4
 c32:	0500                	addi	s0,sp,640
 c34:	d802                	sw	zero,48(sp)
 c36:	05000023          	sb	a6,64(zero) # 40 <_start-0x7c0>
 c3a:	cf04                	sw	s1,24(a4)
 c3c:	0005                	c.nop	1
 c3e:	0500                	addi	s0,sp,640
 c40:	4d05                	li	s10,1
 c42:	0019                	c.nop	6
 c44:	0500                	addi	s0,sp,640
 c46:	0010df07          	0x10df07
 c4a:	0500                	addi	s0,sp,640
 c4c:	0022780b          	0x22780b
 c50:	0000                	unimp
 c52:	0004                	0x4
 c54:	0500                	addi	s0,sp,640
 c56:	ef0d                	bnez	a4,c90 <main+0x1a0>
 c58:	05000033          	0x5000033
 c5c:	2d0e                	fld	fs10,192(sp)
 c5e:	0035                	c.nop	13
 c60:	0500                	addi	s0,sp,640
 c62:	0028370f          	0x28370f
 c66:	0500                	addi	s0,sp,640
 c68:	9810                	0x9810
 c6a:	0012                	c.slli	zero,0x4
 c6c:	0500                	addi	s0,sp,640
 c6e:	00136213          	ori	tp,t1,1
 c72:	0500                	addi	s0,sp,640
 c74:	9514                	0x9514
 c76:	0018                	0x18
 c78:	0500                	addi	s0,sp,640
 c7a:	8615                	srai	a2,a2,0x5
 c7c:	000d                	c.nop	3
 c7e:	0500                	addi	s0,sp,640
 c80:	e616                	fsw	ft5,12(sp)
 c82:	002c                	addi	a1,sp,8
 c84:	0500                	addi	s0,sp,640
 c86:	00306e17          	auipc	t3,0x306
 c8a:	0500                	addi	s0,sp,640
 c8c:	a818                	fsd	fa4,16(s0)
 c8e:	05000017          	auipc	zero,0x5000
 c92:	e619                	bnez	a2,ca0 <main+0x1b0>
 c94:	0005                	c.nop	1
 c96:	0500                	addi	s0,sp,640
 c98:	2d1a                	fld	fs10,384(sp)
 c9a:	05000003          	lb	zero,80(zero) # 50 <_start-0x7b0>
 c9e:	b01d                	j	4c4 <_start-0x33c>
 ca0:	0006                	c.slli	zero,0x1
 ca2:	0500                	addi	s0,sp,640
 ca4:	af1e                	fsd	ft7,408(sp)
 ca6:	000c                	0xc
 ca8:	0500                	addi	s0,sp,640
 caa:	b41f 0002 0500      	0x5000002b41f
 cb0:	0c22                	slli	s8,s8,0x8
 cb2:	0008                	0x8
 cb4:	0500                	addi	s0,sp,640
 cb6:	00107023          	0x107023
 cba:	0500                	addi	s0,sp,640
 cbc:	9c24                	0x9c24
 cbe:	0008                	0x8
 cc0:	0500                	addi	s0,sp,640
 cc2:	5925                	li	s2,-23
 cc4:	05000033          	0x5000033
 cc8:	1e26                	slli	t3,t3,0x29
 cca:	0500002f          	0x500002f
 cce:	000f412b          	0xf412b
 cd2:	0500                	addi	s0,sp,640
 cd4:	001ef457          	0x1ef457
 cd8:	0500                	addi	s0,sp,640
 cda:	3659                	jal	860 <_start+0x60>
 cdc:	0004                	0x4
 cde:	0500                	addi	s0,sp,640
 ce0:	0024fd5b          	0x24fd5b
 ce4:	0500                	addi	s0,sp,640
 ce6:	6a5e                	flw	fs4,212(sp)
 ce8:	001e                	c.slli	zero,0x7
 cea:	0500                	addi	s0,sp,640
 cec:	f261                	bnez	a2,cac <main+0x1bc>
 cee:	0031                	c.nop	12
 cf0:	0500                	addi	s0,sp,640
 cf2:	00210c63          	beq	sp,sp,d0a <main+0x21a>
 cf6:	0500                	addi	s0,sp,640
 cf8:	e865                	bnez	s0,de8 <trap_handler+0x18>
 cfa:	000c                	0xc
 cfc:	0000                	unimp
 cfe:	0004                	0x4
 d00:	e502                	fsw	ft0,136(sp)
 d02:	07000007          	0x7000007
 d06:	000000af          	0xaf
 d0a:	03010003          	lb	zero,48(sp)
 d0e:	0201                	addi	tp,tp,0
 d10:	0a05                	addi	s4,s4,1
 d12:	0cdd                	addi	s9,s9,23
 d14:	0000                	unimp
 d16:	05030c03          	lb	s8,80(t1) # 51e <_start-0x2e2>
 d1a:	d506                	sw	ra,168(sp)
 d1c:	0028                	addi	a0,sp,8
 d1e:	0300                	addi	s0,sp,384
 d20:	0408                	addi	a0,sp,512
 d22:	1605                	addi	a2,a2,-31
 d24:	0eee                	slli	t4,t4,0x1b
 d26:	0000                	unimp
 d28:	07051c03          	lh	s8,112(a0)
 d2c:	000007f7          	0x7f7
 d30:	0704                	addi	s1,sp,896
 d32:	0819                	addi	a6,a6,6
 d34:	0000                	unimp
 d36:	0704                	addi	s1,sp,896
 d38:	000008a7          	0x8a7
 d3c:	0304                	addi	s1,sp,384
 d3e:	060d                	addi	a2,a2,3
 d40:	0008f807          	0x8f807
 d44:	0400                	addi	s0,sp,512
 d46:	07070e03          	lb	t3,112(a4)
 d4a:	000009e7          	jalr	s3,zero # 0 <_start-0x800>
 d4e:	0704                	addi	s1,sp,896
 d50:	0a51                	addi	s4,s4,20
 d52:	0000                	unimp
 d54:	0304                	addi	s1,sp,384
 d56:	30070803          	lb	a6,768(a4)
 d5a:	000c                	0xc
 d5c:	0400                	addi	s0,sp,512
 d5e:	0004                	0x4
 d60:	0004                	0x4
 d62:	5102                	lw	sp,32(sp)
 d64:	000a                	c.slli	zero,0x2
 d66:	0700                	addi	s0,sp,896
 d68:	000000af          	0xaf
 d6c:	03010003          	lb	zero,48(sp)
 d70:	0401                	addi	s0,s0,0
 d72:	0a05                	addi	s4,s4,1
 d74:	0cdd                	addi	s9,s9,23
 d76:	0000                	unimp
 d78:	05020c03          	lb	s8,80(tp) # 50 <_start-0x7b0>
 d7c:	d506                	sw	ra,168(sp)
 d7e:	0028                	addi	a0,sp,8
 d80:	0300                	addi	s0,sp,384
 d82:	0508                	addi	a0,sp,640
 d84:	1605                	addi	a2,a2,-31
 d86:	0eee                	slli	t4,t4,0x1b
 d88:	0000                	unimp
 d8a:	07061c03          	lh	s8,112(a2) # 2070 <__stack_size+0x70>
 d8e:	000007f7          	0x7f7
 d92:	0704                	addi	s1,sp,896
 d94:	0819                	addi	a6,a6,6
 d96:	0000                	unimp
 d98:	0704                	addi	s1,sp,896
 d9a:	000008a7          	0x8a7
 d9e:	0304                	addi	s1,sp,384
 da0:	070d                	addi	a4,a4,3
 da2:	0008f807          	0x8f807
 da6:	0400                	addi	s0,sp,512
 da8:	07030e03          	lb	t3,112(t1)
 dac:	000009e7          	jalr	s3,zero # 0 <_start-0x800>
 db0:	0704                	addi	s1,sp,896
 db2:	0a51                	addi	s4,s4,20
 db4:	0000                	unimp
 db6:	0504                	addi	s1,sp,640
 db8:	f906                	fsw	ft1,176(sp)
 dba:	0039                	c.nop	14
 dbc:	0500                	addi	s0,sp,640
 dbe:	003a2207          	flw	ft4,3(s4)
 dc2:	0500                	addi	s0,sp,640
 dc4:	c808                	sw	a0,16(s0)
 dc6:	0039                	c.nop	14
 dc8:	0400                	addi	s0,sp,512
 dca:	0400                	addi	s0,sp,512
 dcc:	0200                	addi	s0,sp,256
 dce:	0ce8                	addi	a0,sp,604
 dd0:	0000                	unimp
 dd2:	0000af07          	flw	ft10,0(ra)
 dd6:	0300                	addi	s0,sp,384
 dd8:	0100                	addi	s0,sp,128
 dda:	05050103          	lb	sp,80(a0)
 dde:	dd0a                	sw	sp,184(sp)
 de0:	000c                	0xc
 de2:	0300                	addi	s0,sp,384
 de4:	020c                	addi	a1,sp,256
 de6:	0605                	addi	a2,a2,1
 de8:	28d5                	jal	edc <plic_set_threshold+0x44>
 dea:	0000                	unimp
 dec:	05060803          	lb	a6,80(a2)
 df0:	ee16                	fsw	ft5,28(sp)
 df2:	000e                	c.slli	zero,0x3
 df4:	0300                	addi	s0,sp,384
 df6:	071c                	addi	a5,sp,896
 df8:	0007f707          	0x7f707
 dfc:	0400                	addi	s0,sp,512
 dfe:	00081907          	0x81907
 e02:	0400                	addi	s0,sp,512
 e04:	0008a707          	flw	fa4,0(a7) # 4000 <__stack_size+0x2000>
 e08:	0400                	addi	s0,sp,512
 e0a:	07080d03          	lb	s10,112(a6) # 32313070 <__freertos_irq_stack_top+0x2230b070>
 e0e:	08f8                	addi	a4,sp,92
 e10:	0000                	unimp
 e12:	0304                	addi	s1,sp,384
 e14:	030e                	slli	t1,t1,0x3
 e16:	0009e707          	0x9e707
 e1a:	0400                	addi	s0,sp,512
 e1c:	000a5107          	0xa5107
 e20:	0400                	addi	s0,sp,512
 e22:	05040303          	lb	t1,80(s0)
 e26:	330d                	jal	b48 <main+0x58>
 e28:	0020                	addi	s0,sp,8
 e2a:	0400                	addi	s0,sp,512
 e2c:	07090403          	lb	s0,112(s2)
 e30:	0c30                	addi	a2,sp,536
 e32:	0000                	unimp
 e34:	0504                	addi	s1,sp,640
 e36:	0008                	0x8
 e38:	003c                	addi	a5,sp,8
 e3a:	0500                	addi	s0,sp,640
 e3c:	2b09                	jal	134e <apb_timer_enable_itr+0x3e>
 e3e:	0500003b          	0x500003b
 e42:	003ada0b          	0x3ada0b
 e46:	0500                	addi	s0,sp,640
 e48:	640c                	flw	fa1,8(s0)
 e4a:	0500003b          	0x500003b
 e4e:	a90e                	fsd	ft3,144(sp)
 e50:	0500003b          	0x500003b
 e54:	003a880f          	0x3a880f
 e58:	0500                	addi	s0,sp,640
 e5a:	cf10                	sw	a2,24(a4)
 e5c:	0500003b          	0x500003b
 e60:	f411                	bnez	s0,d6c <main+0x27c>
 e62:	003a                	c.slli	zero,0xe
 e64:	0400                	addi	s0,sp,512
 e66:	0400                	addi	s0,sp,512
 e68:	0200                	addi	s0,sp,256
 e6a:	11ad                	addi	gp,gp,-21
 e6c:	0000                	unimp
 e6e:	0000af07          	flw	ft10,0(ra)
 e72:	0300                	addi	s0,sp,384
 e74:	0100                	addi	s0,sp,128
 e76:	03040903          	lb	s2,48(s0)
 e7a:	0508                	addi	a0,sp,640
 e7c:	0a05                	addi	s4,s4,1
 e7e:	0cdd                	addi	s9,s9,23
 e80:	0000                	unimp
 e82:	05020c03          	lb	s8,80(tp) # 50 <_start-0x7b0>
 e86:	d506                	sw	ra,168(sp)
 e88:	0028                	addi	a0,sp,8
 e8a:	0300                	addi	s0,sp,384
 e8c:	0608                	addi	a0,sp,768
 e8e:	1605                	addi	a2,a2,-31
 e90:	0eee                	slli	t4,t4,0x1b
 e92:	0000                	unimp
 e94:	07071c03          	lh	s8,112(a4)
 e98:	000007f7          	0x7f7
 e9c:	0704                	addi	s1,sp,896
 e9e:	0819                	addi	a6,a6,6
 ea0:	0000                	unimp
 ea2:	0704                	addi	s1,sp,896
 ea4:	000008a7          	0x8a7
 ea8:	0304                	addi	s1,sp,384
 eaa:	080d                	addi	a6,a6,3
 eac:	0008f807          	0x8f807
 eb0:	0400                	addi	s0,sp,512
 eb2:	07030e03          	lb	t3,112(t1)
 eb6:	000009e7          	jalr	s3,zero # 0 <_start-0x800>
 eba:	0704                	addi	s1,sp,896
 ebc:	0a51                	addi	s4,s4,20
 ebe:	0000                	unimp
 ec0:	0504                	addi	s1,sp,640
 ec2:	2c0d                	jal	10f4 <apb_gpio_write_pin+0x1c>
 ec4:	0400002b          	0x400002b
 ec8:	0004                	0x4
 eca:	0004                	0x4
 ecc:	7f02                	flw	ft10,32(sp)
 ece:	0015                	c.nop	5
 ed0:	0700                	addi	s0,sp,896
 ed2:	000000af          	0xaf
 ed6:	03010003          	lb	zero,48(sp)
 eda:	0409                	addi	s0,s0,2
 edc:	05050803          	lb	a6,80(a0)
 ee0:	dd0a                	sw	sp,184(sp)
 ee2:	000c                	0xc
 ee4:	0300                	addi	s0,sp,384
 ee6:	020c                	addi	a1,sp,256
 ee8:	0605                	addi	a2,a2,1
 eea:	28d5                	jal	fde <plic_set_priority+0x42>
 eec:	0000                	unimp
 eee:	05060803          	lb	a6,80(a2)
 ef2:	ee16                	fsw	ft5,28(sp)
 ef4:	000e                	c.slli	zero,0x3
 ef6:	0300                	addi	s0,sp,384
 ef8:	071c                	addi	a5,sp,896
 efa:	0007f707          	0x7f707
 efe:	0400                	addi	s0,sp,512
 f00:	00081907          	0x81907
 f04:	0400                	addi	s0,sp,512
 f06:	0008a707          	flw	fa4,0(a7)
 f0a:	0400                	addi	s0,sp,512
 f0c:	07080d03          	lb	s10,112(a6)
 f10:	08f8                	addi	a4,sp,92
 f12:	0000                	unimp
 f14:	0304                	addi	s1,sp,384
 f16:	030e                	slli	t1,t1,0x3
 f18:	0009e707          	0x9e707
 f1c:	0400                	addi	s0,sp,512
 f1e:	000a5107          	0xa5107
 f22:	0400                	addi	s0,sp,512
 f24:	00000007          	0x7
 f28:	0400                	addi	s0,sp,512
 f2a:	0e05                	addi	t3,t3,1
 f2c:	3dac                	fld	fa1,120(a1)
 f2e:	0000                	unimp
 f30:	0f05                	addi	t5,t5,1
 f32:	3d9f 0000 0004      	0x400003d9f

Disassembly of section .comment:

00000000 <.comment>:
   0:	3a434347          	fmsub.d	ft6,ft6,ft4,ft7,rmm
   4:	2820                	fld	fs0,80(s0)
   6:	20554e47          	fmsub.s	ft8,fa0,ft5,ft4,rmm
   a:	434d                	li	t1,19
   c:	2055                	jal	b0 <_start-0x750>
   e:	6345                	lui	t1,0x11
  10:	696c                	flw	fa1,84(a0)
  12:	7370                	flw	fa2,100(a4)
  14:	2065                	jal	bc <_start-0x744>
  16:	4952                	lw	s2,20(sp)
  18:	562d4353          	0x562d4353
  1c:	4520                	lw	s0,72(a0)
  1e:	626d                	lui	tp,0x1b
  20:	6465                	lui	s0,0x19
  22:	6564                	flw	fs1,76(a0)
  24:	2064                	fld	fs1,192(s0)
  26:	2c434347          	0x2c434347
  2a:	3620                	fld	fs0,104(a2)
  2c:	2d34                	fld	fa3,88(a0)
  2e:	6962                	flw	fs2,24(sp)
  30:	2974                	fld	fa3,208(a0)
  32:	3820                	fld	fs0,112(s0)
  34:	322e                	fld	ft4,232(sp)
  36:	302e                	fld	ft0,232(sp)
	...

Disassembly of section .debug_frame:

00000000 <.debug_frame>:
   0:	000c                	0xc
   2:	0000                	unimp
   4:	ffff                	0xffff
   6:	ffff                	0xffff
   8:	0001                	nop
   a:	7c01                	lui	s8,0xfffe0
   c:	0d01                	addi	s10,s10,0
   e:	0002                	c.slli64	zero
  10:	0020                	addi	s0,sp,8
  12:	0000                	unimp
  14:	0000                	unimp
  16:	0000                	unimp
  18:	0990                	addi	a2,sp,208
  1a:	0000                	unimp
  1c:	005c                	addi	a5,sp,4
  1e:	0000                	unimp
  20:	0e44                	addi	s1,sp,788
  22:	4820                	lw	s0,80(s0)
  24:	0181                	addi	gp,gp,0
  26:	0288                	addi	a0,sp,320
  28:	0c44                	addi	s1,sp,532
  2a:	0008                	0x8
  2c:	4002                	0x4002
  2e:	44c1                	li	s1,16
  30:	44c8                	lw	a0,12(s1)
  32:	020d                	addi	tp,tp,3
  34:	0020                	addi	s0,sp,8
  36:	0000                	unimp
  38:	0000                	unimp
  3a:	0000                	unimp
  3c:	09ec                	addi	a1,sp,220
  3e:	0000                	unimp
  40:	0050                	addi	a2,sp,4
  42:	0000                	unimp
  44:	0e44                	addi	s1,sp,788
  46:	4820                	lw	s0,80(s0)
  48:	0181                	addi	gp,gp,0
  4a:	0288                	addi	a0,sp,320
  4c:	0c44                	addi	s1,sp,532
  4e:	0008                	0x8
  50:	3402                	fld	fs0,32(sp)
  52:	44c1                	li	s1,16
  54:	44c8                	lw	a0,12(s1)
  56:	020d                	addi	tp,tp,3
  58:	0020                	addi	s0,sp,8
  5a:	0000                	unimp
  5c:	0000                	unimp
  5e:	0000                	unimp
  60:	0a3c                	addi	a5,sp,280
  62:	0000                	unimp
  64:	00b4                	addi	a3,sp,72
  66:	0000                	unimp
  68:	0e44                	addi	s1,sp,788
  6a:	4810                	lw	a2,16(s0)
  6c:	0181                	addi	gp,gp,0
  6e:	0288                	addi	a0,sp,320
  70:	0c44                	addi	s1,sp,532
  72:	0008                	0x8
  74:	9802                	jalr	a6
  76:	44c1                	li	s1,16
  78:	44c8                	lw	a0,12(s1)
  7a:	020d                	addi	tp,tp,3
  7c:	0018                	0x18
  7e:	0000                	unimp
  80:	0000                	unimp
  82:	0000                	unimp
  84:	0af0                	addi	a2,sp,348
  86:	0000                	unimp
  88:	02ac                	addi	a1,sp,328
  8a:	0000                	unimp
  8c:	0e44                	addi	s1,sp,788
  8e:	4840                	lw	s0,20(s0)
  90:	0181                	addi	gp,gp,0
  92:	0288                	addi	a0,sp,320
  94:	0c44                	addi	s1,sp,532
  96:	0008                	0x8
  98:	000c                	0xc
  9a:	0000                	unimp
  9c:	ffff                	0xffff
  9e:	ffff                	0xffff
  a0:	0001                	nop
  a2:	7c01                	lui	s8,0xfffe0
  a4:	0d01                	addi	s10,s10,0
  a6:	0002                	c.slli64	zero
  a8:	001c                	0x1c
  aa:	0000                	unimp
  ac:	0098                	addi	a4,sp,64
  ae:	0000                	unimp
  b0:	0d9c                	addi	a5,sp,720
  b2:	0000                	unimp
  b4:	0034                	addi	a3,sp,8
  b6:	0000                	unimp
  b8:	0e44                	addi	s1,sp,788
  ba:	4410                	lw	a2,8(s0)
  bc:	0188                	addi	a0,sp,192
  be:	0c44                	addi	s1,sp,532
  c0:	0008                	0x8
  c2:	c860                	sw	s0,84(s0)
  c4:	0d44                	addi	s1,sp,660
  c6:	0002                	c.slli64	zero
  c8:	000c                	0xc
  ca:	0000                	unimp
  cc:	ffff                	0xffff
  ce:	ffff                	0xffff
  d0:	0001                	nop
  d2:	7c01                	lui	s8,0xfffe0
  d4:	0d01                	addi	s10,s10,0
  d6:	0002                	c.slli64	zero
  d8:	0020                	addi	s0,sp,8
  da:	0000                	unimp
  dc:	00c8                	addi	a0,sp,68
  de:	0000                	unimp
  e0:	0dd0                	addi	a2,sp,724
  e2:	0000                	unimp
  e4:	0080                	addi	s0,sp,64
  e6:	0000                	unimp
  e8:	0e44                	addi	s1,sp,788
  ea:	4820                	lw	s0,80(s0)
  ec:	0181                	addi	gp,gp,0
  ee:	0288                	addi	a0,sp,320
  f0:	0c44                	addi	s1,sp,532
  f2:	0008                	0x8
  f4:	6402                	flw	fs0,0(sp)
  f6:	44c1                	li	s1,16
  f8:	44c8                	lw	a0,12(s1)
  fa:	020d                	addi	tp,tp,3
  fc:	0018                	0x18
  fe:	0000                	unimp
 100:	00c8                	addi	a0,sp,68
 102:	0000                	unimp
 104:	0e50                	addi	a2,sp,788
 106:	0000                	unimp
 108:	0018                	0x18
 10a:	0000                	unimp
 10c:	0e44                	addi	s1,sp,788
 10e:	4420                	lw	s0,72(s0)
 110:	0188                	addi	a0,sp,192
 112:	0c44                	addi	s1,sp,532
 114:	0008                	0x8
 116:	0000                	unimp
 118:	000c                	0xc
 11a:	0000                	unimp
 11c:	ffff                	0xffff
 11e:	ffff                	0xffff
 120:	0001                	nop
 122:	7c01                	lui	s8,0xfffe0
 124:	0d01                	addi	s10,s10,0
 126:	0002                	c.slli64	zero
 128:	001c                	0x1c
 12a:	0000                	unimp
 12c:	0118                	addi	a4,sp,128
 12e:	0000                	unimp
 130:	0e68                	addi	a0,sp,796
 132:	0000                	unimp
 134:	0030                	addi	a2,sp,8
 136:	0000                	unimp
 138:	0e44                	addi	s1,sp,788
 13a:	4420                	lw	s0,72(s0)
 13c:	0188                	addi	a0,sp,192
 13e:	0c44                	addi	s1,sp,532
 140:	0008                	0x8
 142:	c85c                	sw	a5,20(s0)
 144:	0d44                	addi	s1,sp,660
 146:	0002                	c.slli64	zero
 148:	001c                	0x1c
 14a:	0000                	unimp
 14c:	0118                	addi	a4,sp,128
 14e:	0000                	unimp
 150:	0e98                	addi	a4,sp,848
 152:	0000                	unimp
 154:	0060                	addi	s0,sp,12
 156:	0000                	unimp
 158:	0e44                	addi	s1,sp,788
 15a:	4430                	lw	a2,72(s0)
 15c:	0188                	addi	a0,sp,192
 15e:	0c44                	addi	s1,sp,532
 160:	0008                	0x8
 162:	4c02                	lw	s8,0(sp)
 164:	44c8                	lw	a0,12(s1)
 166:	020d                	addi	tp,tp,3
 168:	001c                	0x1c
 16a:	0000                	unimp
 16c:	0118                	addi	a4,sp,128
 16e:	0000                	unimp
 170:	0ef8                	addi	a4,sp,860
 172:	0000                	unimp
 174:	00a4                	addi	s1,sp,72
 176:	0000                	unimp
 178:	0e44                	addi	s1,sp,788
 17a:	4430                	lw	a2,72(s0)
 17c:	0188                	addi	a0,sp,192
 17e:	0c44                	addi	s1,sp,532
 180:	0008                	0x8
 182:	9002                	ebreak
 184:	44c8                	lw	a0,12(s1)
 186:	020d                	addi	tp,tp,3
 188:	001c                	0x1c
 18a:	0000                	unimp
 18c:	0118                	addi	a4,sp,128
	...
 196:	0000                	unimp
 198:	0e44                	addi	s1,sp,788
 19a:	4430                	lw	a2,72(s0)
 19c:	0188                	addi	a0,sp,192
 19e:	0c44                	addi	s1,sp,532
 1a0:	0008                	0x8
 1a2:	0002                	c.slli64	zero
 1a4:	44c8                	lw	a0,12(s1)
 1a6:	020d                	addi	tp,tp,3
 1a8:	001c                	0x1c
 1aa:	0000                	unimp
 1ac:	0118                	addi	a4,sp,128
 1ae:	0000                	unimp
 1b0:	0f9c                	addi	a5,sp,976
 1b2:	0000                	unimp
 1b4:	004c                	addi	a1,sp,4
 1b6:	0000                	unimp
 1b8:	0e44                	addi	s1,sp,788
 1ba:	4430                	lw	a2,72(s0)
 1bc:	0188                	addi	a0,sp,192
 1be:	0c44                	addi	s1,sp,532
 1c0:	0008                	0x8
 1c2:	c878                	sw	a4,84(s0)
 1c4:	0d44                	addi	s1,sp,660
 1c6:	0002                	c.slli64	zero
 1c8:	001c                	0x1c
 1ca:	0000                	unimp
 1cc:	0118                	addi	a4,sp,128
 1ce:	0000                	unimp
 1d0:	0fe8                	addi	a0,sp,988
 1d2:	0000                	unimp
 1d4:	005c                	addi	a5,sp,4
 1d6:	0000                	unimp
 1d8:	0e44                	addi	s1,sp,788
 1da:	4430                	lw	a2,72(s0)
 1dc:	0188                	addi	a0,sp,192
 1de:	0c44                	addi	s1,sp,532
 1e0:	0008                	0x8
 1e2:	4802                	lw	a6,0(sp)
 1e4:	44c8                	lw	a0,12(s1)
 1e6:	020d                	addi	tp,tp,3
 1e8:	001c                	0x1c
 1ea:	0000                	unimp
 1ec:	0118                	addi	a4,sp,128
 1ee:	0000                	unimp
 1f0:	1044                	addi	s1,sp,36
 1f2:	0000                	unimp
 1f4:	0064                	addi	s1,sp,12
 1f6:	0000                	unimp
 1f8:	0e44                	addi	s1,sp,788
 1fa:	4430                	lw	a2,72(s0)
 1fc:	0188                	addi	a0,sp,192
 1fe:	0c44                	addi	s1,sp,532
 200:	0008                	0x8
 202:	5002                	0x5002
 204:	44c8                	lw	a0,12(s1)
 206:	020d                	addi	tp,tp,3
 208:	000c                	0xc
 20a:	0000                	unimp
 20c:	ffff                	0xffff
 20e:	ffff                	0xffff
 210:	0001                	nop
 212:	7c01                	lui	s8,0xfffe0
 214:	0d01                	addi	s10,s10,0
 216:	0002                	c.slli64	zero
 218:	001c                	0x1c
 21a:	0000                	unimp
 21c:	0208                	addi	a0,sp,256
 21e:	0000                	unimp
 220:	10a8                	addi	a0,sp,104
 222:	0000                	unimp
 224:	0030                	addi	a2,sp,8
 226:	0000                	unimp
 228:	0e44                	addi	s1,sp,788
 22a:	4420                	lw	s0,72(s0)
 22c:	0188                	addi	a0,sp,192
 22e:	0c44                	addi	s1,sp,532
 230:	0008                	0x8
 232:	c85c                	sw	a5,20(s0)
 234:	0d44                	addi	s1,sp,660
 236:	0002                	c.slli64	zero
 238:	001c                	0x1c
 23a:	0000                	unimp
 23c:	0208                	addi	a0,sp,256
 23e:	0000                	unimp
 240:	10d8                	addi	a4,sp,100
 242:	0000                	unimp
 244:	0048                	addi	a0,sp,4
 246:	0000                	unimp
 248:	0e44                	addi	s1,sp,788
 24a:	4420                	lw	s0,72(s0)
 24c:	0188                	addi	a0,sp,192
 24e:	0c44                	addi	s1,sp,532
 250:	0008                	0x8
 252:	c874                	sw	a3,84(s0)
 254:	0d44                	addi	s1,sp,660
 256:	0002                	c.slli64	zero
 258:	001c                	0x1c
 25a:	0000                	unimp
 25c:	0208                	addi	a0,sp,256
 25e:	0000                	unimp
 260:	1120                	addi	s0,sp,168
 262:	0000                	unimp
 264:	002c                	addi	a1,sp,8
 266:	0000                	unimp
 268:	0e44                	addi	s1,sp,788
 26a:	4420                	lw	s0,72(s0)
 26c:	0188                	addi	a0,sp,192
 26e:	0c44                	addi	s1,sp,532
 270:	0008                	0x8
 272:	c858                	sw	a4,20(s0)
 274:	0d44                	addi	s1,sp,660
 276:	0002                	c.slli64	zero
 278:	001c                	0x1c
 27a:	0000                	unimp
 27c:	0208                	addi	a0,sp,256
 27e:	0000                	unimp
 280:	114c                	addi	a1,sp,164
 282:	0000                	unimp
 284:	0040                	addi	s0,sp,4
 286:	0000                	unimp
 288:	0e44                	addi	s1,sp,788
 28a:	4420                	lw	s0,72(s0)
 28c:	0188                	addi	a0,sp,192
 28e:	0c44                	addi	s1,sp,532
 290:	0008                	0x8
 292:	c86c                	sw	a1,84(s0)
 294:	0d44                	addi	s1,sp,660
 296:	0002                	c.slli64	zero
 298:	001c                	0x1c
 29a:	0000                	unimp
 29c:	0208                	addi	a0,sp,256
	...
 2a6:	0000                	unimp
 2a8:	0e44                	addi	s1,sp,788
 2aa:	4420                	lw	s0,72(s0)
 2ac:	0188                	addi	a0,sp,192
 2ae:	0c44                	addi	s1,sp,532
 2b0:	0008                	0x8
 2b2:	c870                	sw	a2,84(s0)
 2b4:	0d44                	addi	s1,sp,660
 2b6:	0002                	c.slli64	zero
 2b8:	001c                	0x1c
 2ba:	0000                	unimp
 2bc:	0208                	addi	a0,sp,256
	...
 2c6:	0000                	unimp
 2c8:	0e44                	addi	s1,sp,788
 2ca:	4420                	lw	s0,72(s0)
 2cc:	0188                	addi	a0,sp,192
 2ce:	0c44                	addi	s1,sp,532
 2d0:	0008                	0x8
 2d2:	c858                	sw	a4,20(s0)
 2d4:	0d44                	addi	s1,sp,660
 2d6:	0002                	c.slli64	zero
 2d8:	001c                	0x1c
 2da:	0000                	unimp
 2dc:	0208                	addi	a0,sp,256
	...
 2e6:	0000                	unimp
 2e8:	0e44                	addi	s1,sp,788
 2ea:	4420                	lw	s0,72(s0)
 2ec:	0188                	addi	a0,sp,192
 2ee:	0c44                	addi	s1,sp,532
 2f0:	0008                	0x8
 2f2:	c858                	sw	a4,20(s0)
 2f4:	0d44                	addi	s1,sp,660
 2f6:	0002                	c.slli64	zero
 2f8:	001c                	0x1c
 2fa:	0000                	unimp
 2fc:	0208                	addi	a0,sp,256
	...
 306:	0000                	unimp
 308:	0e44                	addi	s1,sp,788
 30a:	4420                	lw	s0,72(s0)
 30c:	0188                	addi	a0,sp,192
 30e:	0c44                	addi	s1,sp,532
 310:	0008                	0x8
 312:	c85c                	sw	a5,20(s0)
 314:	0d44                	addi	s1,sp,660
 316:	0002                	c.slli64	zero
 318:	000c                	0xc
 31a:	0000                	unimp
 31c:	ffff                	0xffff
 31e:	ffff                	0xffff
 320:	0001                	nop
 322:	7c01                	lui	s8,0xfffe0
 324:	0d01                	addi	s10,s10,0
 326:	0002                	c.slli64	zero
 328:	0020                	addi	s0,sp,8
 32a:	0000                	unimp
 32c:	0318                	addi	a4,sp,384
 32e:	0000                	unimp
 330:	118c                	addi	a1,sp,224
 332:	0000                	unimp
 334:	0184                	addi	s1,sp,192
 336:	0000                	unimp
 338:	0e44                	addi	s1,sp,788
 33a:	4430                	lw	a2,72(s0)
 33c:	0188                	addi	a0,sp,192
 33e:	0c44                	addi	s1,sp,532
 340:	0008                	0x8
 342:	c8017003          	0xc8017003
 346:	0d44                	addi	s1,sp,660
 348:	0002                	c.slli64	zero
 34a:	0000                	unimp
 34c:	001c                	0x1c
 34e:	0000                	unimp
 350:	0318                	addi	a4,sp,384
 352:	0000                	unimp
 354:	1310                	addi	a2,sp,416
 356:	0000                	unimp
 358:	0040                	addi	s0,sp,4
 35a:	0000                	unimp
 35c:	0e44                	addi	s1,sp,788
 35e:	4420                	lw	s0,72(s0)
 360:	0188                	addi	a0,sp,192
 362:	0c44                	addi	s1,sp,532
 364:	0008                	0x8
 366:	c86c                	sw	a1,84(s0)
 368:	0d44                	addi	s1,sp,660
 36a:	0002                	c.slli64	zero
 36c:	001c                	0x1c
 36e:	0000                	unimp
 370:	0318                	addi	a4,sp,384
	...
 37a:	0000                	unimp
 37c:	0e44                	addi	s1,sp,788
 37e:	4420                	lw	s0,72(s0)
 380:	0188                	addi	a0,sp,192
 382:	0c44                	addi	s1,sp,532
 384:	0008                	0x8
 386:	c858                	sw	a4,20(s0)
 388:	0d44                	addi	s1,sp,660
 38a:	0002                	c.slli64	zero
 38c:	001c                	0x1c
 38e:	0000                	unimp
 390:	0318                	addi	a4,sp,384
 392:	0000                	unimp
 394:	1350                	addi	a2,sp,420
 396:	0000                	unimp
 398:	0034                	addi	a3,sp,8
 39a:	0000                	unimp
 39c:	0e44                	addi	s1,sp,788
 39e:	4420                	lw	s0,72(s0)
 3a0:	0188                	addi	a0,sp,192
 3a2:	0c44                	addi	s1,sp,532
 3a4:	0008                	0x8
 3a6:	c860                	sw	s0,84(s0)
 3a8:	0d44                	addi	s1,sp,660
 3aa:	0002                	c.slli64	zero
 3ac:	001c                	0x1c
 3ae:	0000                	unimp
 3b0:	0318                	addi	a4,sp,384
 3b2:	0000                	unimp
 3b4:	1384                	addi	s1,sp,480
 3b6:	0000                	unimp
 3b8:	002c                	addi	a1,sp,8
 3ba:	0000                	unimp
 3bc:	0e44                	addi	s1,sp,788
 3be:	4420                	lw	s0,72(s0)
 3c0:	0188                	addi	a0,sp,192
 3c2:	0c44                	addi	s1,sp,532
 3c4:	0008                	0x8
 3c6:	c858                	sw	a4,20(s0)
 3c8:	0d44                	addi	s1,sp,660
 3ca:	0002                	c.slli64	zero
 3cc:	001c                	0x1c
 3ce:	0000                	unimp
 3d0:	0318                	addi	a4,sp,384
	...
 3da:	0000                	unimp
 3dc:	0e44                	addi	s1,sp,788
 3de:	4420                	lw	s0,72(s0)
 3e0:	0188                	addi	a0,sp,192
 3e2:	0c44                	addi	s1,sp,532
 3e4:	0008                	0x8
 3e6:	c868                	sw	a0,84(s0)
 3e8:	0d44                	addi	s1,sp,660
 3ea:	0002                	c.slli64	zero
 3ec:	001c                	0x1c
 3ee:	0000                	unimp
 3f0:	0318                	addi	a4,sp,384
	...
 3fa:	0000                	unimp
 3fc:	0e44                	addi	s1,sp,788
 3fe:	4420                	lw	s0,72(s0)
 400:	0188                	addi	a0,sp,192
 402:	0c44                	addi	s1,sp,532
 404:	0008                	0x8
 406:	c868                	sw	a0,84(s0)
 408:	0d44                	addi	s1,sp,660
 40a:	0002                	c.slli64	zero
 40c:	001c                	0x1c
 40e:	0000                	unimp
 410:	0318                	addi	a4,sp,384
	...
 41a:	0000                	unimp
 41c:	0e44                	addi	s1,sp,788
 41e:	4420                	lw	s0,72(s0)
 420:	0188                	addi	a0,sp,192
 422:	0c44                	addi	s1,sp,532
 424:	0008                	0x8
 426:	c860                	sw	s0,84(s0)
 428:	0d44                	addi	s1,sp,660
 42a:	0002                	c.slli64	zero
 42c:	001c                	0x1c
 42e:	0000                	unimp
 430:	0318                	addi	a4,sp,384
	...
 43a:	0000                	unimp
 43c:	0e44                	addi	s1,sp,788
 43e:	4420                	lw	s0,72(s0)
 440:	0188                	addi	a0,sp,192
 442:	0c44                	addi	s1,sp,532
 444:	0008                	0x8
 446:	c86c                	sw	a1,84(s0)
 448:	0d44                	addi	s1,sp,660
 44a:	0002                	c.slli64	zero
 44c:	001c                	0x1c
 44e:	0000                	unimp
 450:	0318                	addi	a4,sp,384
	...
 45a:	0000                	unimp
 45c:	0e44                	addi	s1,sp,788
 45e:	4420                	lw	s0,72(s0)
 460:	0188                	addi	a0,sp,192
 462:	0c44                	addi	s1,sp,532
 464:	0008                	0x8
 466:	c86c                	sw	a1,84(s0)
 468:	0d44                	addi	s1,sp,660
 46a:	0002                	c.slli64	zero
 46c:	001c                	0x1c
 46e:	0000                	unimp
 470:	0318                	addi	a4,sp,384
	...
 47a:	0000                	unimp
 47c:	0e44                	addi	s1,sp,788
 47e:	4420                	lw	s0,72(s0)
 480:	0188                	addi	a0,sp,192
 482:	0c44                	addi	s1,sp,532
 484:	0008                	0x8
 486:	c860                	sw	s0,84(s0)
 488:	0d44                	addi	s1,sp,660
 48a:	0002                	c.slli64	zero
 48c:	001c                	0x1c
 48e:	0000                	unimp
 490:	0318                	addi	a4,sp,384
	...
 49a:	0000                	unimp
 49c:	0e44                	addi	s1,sp,788
 49e:	4420                	lw	s0,72(s0)
 4a0:	0188                	addi	a0,sp,192
 4a2:	0c44                	addi	s1,sp,532
 4a4:	0008                	0x8
 4a6:	0002                	c.slli64	zero
 4a8:	44c8                	lw	a0,12(s1)
 4aa:	020d                	addi	tp,tp,3
 4ac:	001c                	0x1c
 4ae:	0000                	unimp
 4b0:	0318                	addi	a4,sp,384
	...
 4ba:	0000                	unimp
 4bc:	0e44                	addi	s1,sp,788
 4be:	4420                	lw	s0,72(s0)
 4c0:	0188                	addi	a0,sp,192
 4c2:	0c44                	addi	s1,sp,532
 4c4:	0008                	0x8
 4c6:	0002                	c.slli64	zero
 4c8:	44c8                	lw	a0,12(s1)
 4ca:	020d                	addi	tp,tp,3
 4cc:	001c                	0x1c
 4ce:	0000                	unimp
 4d0:	0318                	addi	a4,sp,384
	...
 4da:	0000                	unimp
 4dc:	0e44                	addi	s1,sp,788
 4de:	4420                	lw	s0,72(s0)
 4e0:	0188                	addi	a0,sp,192
 4e2:	0c44                	addi	s1,sp,532
 4e4:	0008                	0x8
 4e6:	c854                	sw	a3,20(s0)
 4e8:	0d44                	addi	s1,sp,660
 4ea:	0002                	c.slli64	zero
 4ec:	001c                	0x1c
 4ee:	0000                	unimp
 4f0:	0318                	addi	a4,sp,384
	...
 4fa:	0000                	unimp
 4fc:	0e44                	addi	s1,sp,788
 4fe:	4420                	lw	s0,72(s0)
 500:	0188                	addi	a0,sp,192
 502:	0c44                	addi	s1,sp,532
 504:	0008                	0x8
 506:	c854                	sw	a3,20(s0)
 508:	0d44                	addi	s1,sp,660
 50a:	0002                	c.slli64	zero
 50c:	001c                	0x1c
 50e:	0000                	unimp
 510:	0318                	addi	a4,sp,384
	...
 51a:	0000                	unimp
 51c:	0e44                	addi	s1,sp,788
 51e:	4420                	lw	s0,72(s0)
 520:	0188                	addi	a0,sp,192
 522:	0c44                	addi	s1,sp,532
 524:	0008                	0x8
 526:	c858                	sw	a4,20(s0)
 528:	0d44                	addi	s1,sp,660
 52a:	0002                	c.slli64	zero
 52c:	001c                	0x1c
 52e:	0000                	unimp
 530:	0318                	addi	a4,sp,384
	...
 53a:	0000                	unimp
 53c:	0e44                	addi	s1,sp,788
 53e:	4420                	lw	s0,72(s0)
 540:	0188                	addi	a0,sp,192
 542:	0c44                	addi	s1,sp,532
 544:	0008                	0x8
 546:	0002                	c.slli64	zero
 548:	44c8                	lw	a0,12(s1)
 54a:	020d                	addi	tp,tp,3
