
tube_scan:     file format elf32-littleriscv


Disassembly of section .init:

00000800 <_start>:
 800:	10000197          	auipc	gp,0x10000
 804:	01818193          	addi	gp,gp,24 # 10000818 <__global_pointer$>
 808:	10007117          	auipc	sp,0x10007
 80c:	7f810113          	addi	sp,sp,2040 # 10008000 <__freertos_irq_stack_top>
 810:	00001517          	auipc	a0,0x1
 814:	ba050513          	addi	a0,a0,-1120 # 13b0 <_data_lma>
 818:	0ffff597          	auipc	a1,0xffff
 81c:	7e858593          	addi	a1,a1,2024 # 10000000 <_data>
 820:	0ffff617          	auipc	a2,0xffff
 824:	7f860613          	addi	a2,a2,2040 # 10000018 <__bss_start>
 828:	00c5fc63          	bgeu	a1,a2,840 <_start+0x40>
 82c:	00052283          	lw	t0,0(a0)
 830:	0055a023          	sw	t0,0(a1)
 834:	00450513          	addi	a0,a0,4
 838:	00458593          	addi	a1,a1,4
 83c:	fec5e8e3          	bltu	a1,a2,82c <_start+0x2c>
 840:	0ffff517          	auipc	a0,0xffff
 844:	7d850513          	addi	a0,a0,2008 # 10000018 <__bss_start>
 848:	83018593          	addi	a1,gp,-2000 # 10000048 <_end>
 84c:	00b57863          	bgeu	a0,a1,85c <_start+0x5c>
 850:	00052023          	sw	zero,0(a0)
 854:	00450513          	addi	a0,a0,4
 858:	feb56ce3          	bltu	a0,a1,850 <_start+0x50>
 85c:	540000ef          	jal	ra,d9c <_init>
 860:	290000ef          	jal	ra,af0 <main>

00000864 <loop>:
 864:	0000006f          	j	864 <loop>

Disassembly of section .text:

00000868 <trap_entry>:
     868:	f8010113          	addi	sp,sp,-128
     86c:	00112223          	sw	ra,4(sp)
     870:	00212423          	sw	sp,8(sp)
     874:	00312623          	sw	gp,12(sp)
     878:	00412823          	sw	tp,16(sp)
     87c:	00512a23          	sw	t0,20(sp)
     880:	00612c23          	sw	t1,24(sp)
     884:	00712e23          	sw	t2,28(sp)
     888:	02812023          	sw	s0,32(sp)
     88c:	02912223          	sw	s1,36(sp)
     890:	02a12423          	sw	a0,40(sp)
     894:	02b12623          	sw	a1,44(sp)
     898:	02c12823          	sw	a2,48(sp)
     89c:	02d12a23          	sw	a3,52(sp)
     8a0:	02e12c23          	sw	a4,56(sp)
     8a4:	02f12e23          	sw	a5,60(sp)
     8a8:	05012023          	sw	a6,64(sp)
     8ac:	05112223          	sw	a7,68(sp)
     8b0:	05212423          	sw	s2,72(sp)
     8b4:	05312623          	sw	s3,76(sp)
     8b8:	05412823          	sw	s4,80(sp)
     8bc:	05512a23          	sw	s5,84(sp)
     8c0:	05612c23          	sw	s6,88(sp)
     8c4:	05712e23          	sw	s7,92(sp)
     8c8:	07812023          	sw	s8,96(sp)
     8cc:	07912223          	sw	s9,100(sp)
     8d0:	07a12423          	sw	s10,104(sp)
     8d4:	07b12623          	sw	s11,108(sp)
     8d8:	07c12823          	sw	t3,112(sp)
     8dc:	07d12a23          	sw	t4,116(sp)
     8e0:	07e12c23          	sw	t5,120(sp)
     8e4:	07f12e23          	sw	t6,124(sp)
     8e8:	34202573          	csrr	a0,mcause
     8ec:	341025f3          	csrr	a1,mepc

000008f0 <test_if_asynchronous>:
     8f0:	01f55613          	srli	a2,a0,0x1f
     8f4:	00060663          	beqz	a2,900 <handle_synchronous>
     8f8:	4d8000ef          	jal	ra,dd0 <trap_handler>
     8fc:	0080006f          	j	904 <asynchronous_return>

00000900 <handle_synchronous>:
     900:	550000ef          	jal	ra,e50 <serr_handler>

00000904 <asynchronous_return>:
     904:	00412083          	lw	ra,4(sp)
     908:	00812103          	lw	sp,8(sp)
     90c:	00c12183          	lw	gp,12(sp)
     910:	01012203          	lw	tp,16(sp)
     914:	01412283          	lw	t0,20(sp)
     918:	01812303          	lw	t1,24(sp)
     91c:	01c12383          	lw	t2,28(sp)
     920:	02012403          	lw	s0,32(sp)
     924:	02412483          	lw	s1,36(sp)
     928:	02812503          	lw	a0,40(sp)
     92c:	02c12583          	lw	a1,44(sp)
     930:	03012603          	lw	a2,48(sp)
     934:	03412683          	lw	a3,52(sp)
     938:	03812703          	lw	a4,56(sp)
     93c:	03c12783          	lw	a5,60(sp)
     940:	04012803          	lw	a6,64(sp)
     944:	04412883          	lw	a7,68(sp)
     948:	04812903          	lw	s2,72(sp)
     94c:	04c12983          	lw	s3,76(sp)
     950:	05012a03          	lw	s4,80(sp)
     954:	05412a83          	lw	s5,84(sp)
     958:	05812b03          	lw	s6,88(sp)
     95c:	05c12b83          	lw	s7,92(sp)
     960:	06012c03          	lw	s8,96(sp)
     964:	06412c83          	lw	s9,100(sp)
     968:	06812d03          	lw	s10,104(sp)
     96c:	06c12d83          	lw	s11,108(sp)
     970:	07012e03          	lw	t3,112(sp)
     974:	07412e83          	lw	t4,116(sp)
     978:	07812f03          	lw	t5,120(sp)
     97c:	07c12f83          	lw	t6,124(sp)
     980:	08010113          	addi	sp,sp,128
     984:	30200073          	mret
     988:	0000006f          	j	988 <asynchronous_return+0x84>
     98c:	0000006f          	j	98c <asynchronous_return+0x88>

00000990 <ext_irq_handler>:
     990:	fe010113          	addi	sp,sp,-32
     994:	00112e23          	sw	ra,28(sp)
     998:	00812c23          	sw	s0,24(sp)
     99c:	02010413          	addi	s0,sp,32
     9a0:	100007b7          	lui	a5,0x10000
     9a4:	02078513          	addi	a0,a5,32 # 10000020 <plic>
     9a8:	640000ef          	jal	ra,fe8 <plic_claim_interrupt>
     9ac:	fea42623          	sw	a0,-20(s0)
     9b0:	fec42703          	lw	a4,-20(s0)
     9b4:	00200793          	li	a5,2
     9b8:	00f70463          	beq	a4,a5,9c0 <ext_irq_handler+0x30>
     9bc:	00c0006f          	j	9c8 <ext_irq_handler+0x38>
     9c0:	02c000ef          	jal	ra,9ec <timer0_itr_handler>
     9c4:	00000013          	nop
     9c8:	fec42583          	lw	a1,-20(s0)
     9cc:	100007b7          	lui	a5,0x10000
     9d0:	02078513          	addi	a0,a5,32 # 10000020 <plic>
     9d4:	670000ef          	jal	ra,1044 <plic_complete_interrupt>
     9d8:	00000013          	nop
     9dc:	01c12083          	lw	ra,28(sp)
     9e0:	01812403          	lw	s0,24(sp)
     9e4:	02010113          	addi	sp,sp,32
     9e8:	00008067          	ret

000009ec <timer0_itr_handler>:
     9ec:	fe010113          	addi	sp,sp,-32
     9f0:	00112e23          	sw	ra,28(sp)
     9f4:	00812c23          	sw	s0,24(sp)
     9f8:	02010413          	addi	s0,sp,32
     9fc:	81c18513          	addi	a0,gp,-2020 # 10000034 <timer0>
     a00:	151000ef          	jal	ra,1350 <apb_timer_get_itr_status>
     a04:	00050793          	mv	a5,a0
     a08:	fef407a3          	sb	a5,-17(s0)
     a0c:	fef44783          	lbu	a5,-17(s0)
     a10:	0017f793          	andi	a5,a5,1
     a14:	00078663          	beqz	a5,a20 <timer0_itr_handler+0x34>
     a18:	00100713          	li	a4,1
     a1c:	80e18c23          	sb	a4,-2024(gp) # 10000030 <timer0_period_elapsed>
     a20:	81c18513          	addi	a0,gp,-2020 # 10000034 <timer0>
     a24:	161000ef          	jal	ra,1384 <apb_timer_clear_itr_flag>
     a28:	00000013          	nop
     a2c:	01c12083          	lw	ra,28(sp)
     a30:	01812403          	lw	s0,24(sp)
     a34:	02010113          	addi	sp,sp,32
     a38:	00008067          	ret

00000a3c <tube_scan_disp>:
     a3c:	ff010113          	addi	sp,sp,-16
     a40:	00112623          	sw	ra,12(sp)
     a44:	00812423          	sw	s0,8(sp)
     a48:	01010413          	addi	s0,sp,16
     a4c:	8141c783          	lbu	a5,-2028(gp) # 1000002c <tube_dig_sel>
     a50:	00078713          	mv	a4,a5
     a54:	40000793          	li	a5,1024
     a58:	00e797b3          	sll	a5,a5,a4
     a5c:	fff7c793          	not	a5,a5
     a60:	00078613          	mv	a2,a5
     a64:	000047b7          	lui	a5,0x4
     a68:	c0078593          	addi	a1,a5,-1024 # 3c00 <__stack_size+0x1c00>
     a6c:	100007b7          	lui	a5,0x10000
     a70:	01878513          	addi	a0,a5,24 # 10000018 <__bss_start>
     a74:	664000ef          	jal	ra,10d8 <apb_gpio_write_pin>
     a78:	8141c783          	lbu	a5,-2028(gp) # 1000002c <tube_dig_sel>
     a7c:	00078713          	mv	a4,a5
     a80:	81018793          	addi	a5,gp,-2032 # 10000028 <tube_disp_num>
     a84:	00f707b3          	add	a5,a4,a5
     a88:	0007c783          	lbu	a5,0(a5)
     a8c:	00078713          	mv	a4,a5
     a90:	100007b7          	lui	a5,0x10000
     a94:	00c78793          	addi	a5,a5,12 # 1000000c <tube_seg_code>
     a98:	00f707b3          	add	a5,a4,a5
     a9c:	0007c783          	lbu	a5,0(a5)
     aa0:	00e79793          	slli	a5,a5,0xe
     aa4:	00078613          	mv	a2,a5
     aa8:	003fc5b7          	lui	a1,0x3fc
     aac:	100007b7          	lui	a5,0x10000
     ab0:	01878513          	addi	a0,a5,24 # 10000018 <__bss_start>
     ab4:	624000ef          	jal	ra,10d8 <apb_gpio_write_pin>
     ab8:	8141c703          	lbu	a4,-2028(gp) # 1000002c <tube_dig_sel>
     abc:	00300793          	li	a5,3
     ac0:	00f71663          	bne	a4,a5,acc <tube_scan_disp+0x90>
     ac4:	80018a23          	sb	zero,-2028(gp) # 1000002c <tube_dig_sel>
     ac8:	0140006f          	j	adc <tube_scan_disp+0xa0>
     acc:	8141c783          	lbu	a5,-2028(gp) # 1000002c <tube_dig_sel>
     ad0:	00178793          	addi	a5,a5,1
     ad4:	0ff7f713          	andi	a4,a5,255
     ad8:	80e18a23          	sb	a4,-2028(gp) # 1000002c <tube_dig_sel>
     adc:	00000013          	nop
     ae0:	00c12083          	lw	ra,12(sp)
     ae4:	00812403          	lw	s0,8(sp)
     ae8:	01010113          	addi	sp,sp,16
     aec:	00008067          	ret

00000af0 <main>:
     af0:	fc010113          	addi	sp,sp,-64
     af4:	02112e23          	sw	ra,60(sp)
     af8:	02812c23          	sw	s0,56(sp)
     afc:	04010413          	addi	s0,sp,64
     b00:	000017b7          	lui	a5,0x1
     b04:	80078793          	addi	a5,a5,-2048 # 800 <_start>
     b08:	30479073          	csrw	mie,a5
     b0c:	f00005b7          	lui	a1,0xf0000
     b10:	100007b7          	lui	a5,0x10000
     b14:	02078513          	addi	a0,a5,32 # 10000020 <plic>
     b18:	350000ef          	jal	ra,e68 <plic_init>
     b1c:	00000593          	li	a1,0
     b20:	100007b7          	lui	a5,0x10000
     b24:	02078513          	addi	a0,a5,32 # 10000020 <plic>
     b28:	370000ef          	jal	ra,e98 <plic_set_threshold>
     b2c:	00100613          	li	a2,1
     b30:	00200593          	li	a1,2
     b34:	100007b7          	lui	a5,0x10000
     b38:	02078513          	addi	a0,a5,32 # 10000020 <plic>
     b3c:	460000ef          	jal	ra,f9c <plic_set_priority>
     b40:	00200593          	li	a1,2
     b44:	100007b7          	lui	a5,0x10000
     b48:	02078513          	addi	a0,a5,32 # 10000020 <plic>
     b4c:	3ac000ef          	jal	ra,ef8 <plic_enable_interrupt>
     b50:	400005b7          	lui	a1,0x40000
     b54:	100007b7          	lui	a5,0x10000
     b58:	01878513          	addi	a0,a5,24 # 10000018 <__bss_start>
     b5c:	54c000ef          	jal	ra,10a8 <apb_gpio_init>
     b60:	30000593          	li	a1,768
     b64:	100007b7          	lui	a5,0x10000
     b68:	01878513          	addi	a0,a5,24 # 10000018 <__bss_start>
     b6c:	5e0000ef          	jal	ra,114c <apb_gpio_set_direction>
     b70:	04000793          	li	a5,64
     b74:	fcf42823          	sw	a5,-48(s0)
     b78:	7cf00793          	li	a5,1999
     b7c:	fcf42a23          	sw	a5,-44(s0)
     b80:	fc0406a3          	sb	zero,-51(s0)
     b84:	fc040623          	sb	zero,-52(s0)
     b88:	fc042c23          	sw	zero,-40(s0)
     b8c:	fc042e23          	sw	zero,-36(s0)
     b90:	fe042023          	sw	zero,-32(s0)
     b94:	fe042223          	sw	zero,-28(s0)
     b98:	fe040423          	sb	zero,-24(s0)
     b9c:	fe0404a3          	sb	zero,-23(s0)
     ba0:	fe040523          	sb	zero,-22(s0)
     ba4:	fe0405a3          	sb	zero,-21(s0)
     ba8:	fe040623          	sb	zero,-20(s0)
     bac:	fe0406a3          	sb	zero,-19(s0)
     bb0:	fe040723          	sb	zero,-18(s0)
     bb4:	fe0407a3          	sb	zero,-17(s0)
     bb8:	fcc40793          	addi	a5,s0,-52
     bbc:	00078613          	mv	a2,a5
     bc0:	400025b7          	lui	a1,0x40002
     bc4:	81c18513          	addi	a0,gp,-2020 # 10000034 <timer0>
     bc8:	5c4000ef          	jal	ra,118c <init_apb_timer>
     bcc:	00100593          	li	a1,1
     bd0:	81c18513          	addi	a0,gp,-2020 # 10000034 <timer0>
     bd4:	73c000ef          	jal	ra,1310 <apb_timer_enable_itr>
     bd8:	81c1a783          	lw	a5,-2020(gp) # 10000034 <timer0>
     bdc:	7cf00713          	li	a4,1999
     be0:	00e7a423          	sw	a4,8(a5)
     be4:	81c18793          	addi	a5,gp,-2020 # 10000034 <timer0>
     be8:	00c7c783          	lbu	a5,12(a5)
     bec:	00879713          	slli	a4,a5,0x8
     bf0:	81c1a783          	lw	a5,-2020(gp) # 10000034 <timer0>
     bf4:	00176713          	ori	a4,a4,1
     bf8:	00e7a623          	sw	a4,12(a5)
     bfc:	8181c783          	lbu	a5,-2024(gp) # 10000030 <timer0_period_elapsed>
     c00:	fe078ee3          	beqz	a5,bfc <main+0x10c>
     c04:	100007b7          	lui	a5,0x10000
     c08:	01878513          	addi	a0,a5,24 # 10000018 <__bss_start>
     c0c:	514000ef          	jal	ra,1120 <apb_gpio_read_pin>
     c10:	00050793          	mv	a5,a0
     c14:	1007f793          	andi	a5,a5,256
     c18:	00078863          	beqz	a5,c28 <main+0x138>
     c1c:	00100713          	li	a4,1
     c20:	80e186a3          	sb	a4,-2035(gp) # 10000025 <flow_led_style_sel>
     c24:	0080006f          	j	c2c <main+0x13c>
     c28:	800186a3          	sb	zero,-2035(gp) # 10000025 <flow_led_style_sel>
     c2c:	e11ff0ef          	jal	ra,a3c <tube_scan_disp>
     c30:	80e1d783          	lhu	a5,-2034(gp) # 10000026 <flow_led_div_cnt>
     c34:	00178793          	addi	a5,a5,1
     c38:	01079713          	slli	a4,a5,0x10
     c3c:	01075713          	srli	a4,a4,0x10
     c40:	80e19723          	sh	a4,-2034(gp) # 10000026 <flow_led_div_cnt>
     c44:	80e1d703          	lhu	a4,-2034(gp) # 10000026 <flow_led_div_cnt>
     c48:	1f400793          	li	a5,500
     c4c:	14f71463          	bne	a4,a5,d94 <main+0x2a4>
     c50:	100007b7          	lui	a5,0x10000
     c54:	01878513          	addi	a0,a5,24 # 10000018 <__bss_start>
     c58:	4c8000ef          	jal	ra,1120 <apb_gpio_read_pin>
     c5c:	00050793          	mv	a5,a0
     c60:	2007f793          	andi	a5,a5,512
     c64:	00078c63          	beqz	a5,c7c <main+0x18c>
     c68:	8161d783          	lhu	a5,-2026(gp) # 1000002e <now_sec>
     c6c:	00178793          	addi	a5,a5,1
     c70:	01079713          	slli	a4,a5,0x10
     c74:	01075713          	srli	a4,a4,0x10
     c78:	80e19b23          	sh	a4,-2026(gp) # 1000002e <now_sec>
     c7c:	8161d703          	lhu	a4,-2026(gp) # 1000002e <now_sec>
     c80:	00a00793          	li	a5,10
     c84:	02f777b3          	remu	a5,a4,a5
     c88:	01079793          	slli	a5,a5,0x10
     c8c:	0107d793          	srli	a5,a5,0x10
     c90:	0ff7f713          	andi	a4,a5,255
     c94:	80e18823          	sb	a4,-2032(gp) # 10000028 <tube_disp_num>
     c98:	8161d703          	lhu	a4,-2026(gp) # 1000002e <now_sec>
     c9c:	00a00793          	li	a5,10
     ca0:	02f757b3          	divu	a5,a4,a5
     ca4:	01079713          	slli	a4,a5,0x10
     ca8:	01075713          	srli	a4,a4,0x10
     cac:	00a00793          	li	a5,10
     cb0:	02f777b3          	remu	a5,a4,a5
     cb4:	01079793          	slli	a5,a5,0x10
     cb8:	0107d793          	srli	a5,a5,0x10
     cbc:	0ff7f713          	andi	a4,a5,255
     cc0:	81018793          	addi	a5,gp,-2032 # 10000028 <tube_disp_num>
     cc4:	00e780a3          	sb	a4,1(a5)
     cc8:	8161d703          	lhu	a4,-2026(gp) # 1000002e <now_sec>
     ccc:	06400793          	li	a5,100
     cd0:	02f757b3          	divu	a5,a4,a5
     cd4:	01079713          	slli	a4,a5,0x10
     cd8:	01075713          	srli	a4,a4,0x10
     cdc:	00a00793          	li	a5,10
     ce0:	02f777b3          	remu	a5,a4,a5
     ce4:	01079793          	slli	a5,a5,0x10
     ce8:	0107d793          	srli	a5,a5,0x10
     cec:	0ff7f713          	andi	a4,a5,255
     cf0:	81018793          	addi	a5,gp,-2032 # 10000028 <tube_disp_num>
     cf4:	00e78123          	sb	a4,2(a5)
     cf8:	8161d703          	lhu	a4,-2026(gp) # 1000002e <now_sec>
     cfc:	3e800793          	li	a5,1000
     d00:	02f757b3          	divu	a5,a4,a5
     d04:	01079713          	slli	a4,a5,0x10
     d08:	01075713          	srli	a4,a4,0x10
     d0c:	00a00793          	li	a5,10
     d10:	02f777b3          	remu	a5,a4,a5
     d14:	01079793          	slli	a5,a5,0x10
     d18:	0107d793          	srli	a5,a5,0x10
     d1c:	0ff7f713          	andi	a4,a5,255
     d20:	81018793          	addi	a5,gp,-2032 # 10000028 <tube_disp_num>
     d24:	00e781a3          	sb	a4,3(a5)
     d28:	80d1c783          	lbu	a5,-2035(gp) # 10000025 <flow_led_style_sel>
     d2c:	00078c63          	beqz	a5,d44 <main+0x254>
     d30:	80c1c783          	lbu	a5,-2036(gp) # 10000024 <flow_led_id>
     d34:	00078713          	mv	a4,a5
     d38:	00800793          	li	a5,8
     d3c:	40e787b3          	sub	a5,a5,a4
     d40:	0080006f          	j	d48 <main+0x258>
     d44:	80c1c783          	lbu	a5,-2036(gp) # 10000024 <flow_led_id>
     d48:	10000737          	lui	a4,0x10000
     d4c:	00070713          	mv	a4,a4
     d50:	00e787b3          	add	a5,a5,a4
     d54:	0007c783          	lbu	a5,0(a5)
     d58:	00078613          	mv	a2,a5
     d5c:	0ff00593          	li	a1,255
     d60:	100007b7          	lui	a5,0x10000
     d64:	01878513          	addi	a0,a5,24 # 10000018 <__bss_start>
     d68:	370000ef          	jal	ra,10d8 <apb_gpio_write_pin>
     d6c:	80c1c703          	lbu	a4,-2036(gp) # 10000024 <flow_led_id>
     d70:	00800793          	li	a5,8
     d74:	00f71663          	bne	a4,a5,d80 <main+0x290>
     d78:	80018623          	sb	zero,-2036(gp) # 10000024 <flow_led_id>
     d7c:	0140006f          	j	d90 <main+0x2a0>
     d80:	80c1c783          	lbu	a5,-2036(gp) # 10000024 <flow_led_id>
     d84:	00178793          	addi	a5,a5,1
     d88:	0ff7f713          	andi	a4,a5,255
     d8c:	80e18623          	sb	a4,-2036(gp) # 10000024 <flow_led_id>
     d90:	80019723          	sh	zero,-2034(gp) # 10000026 <flow_led_div_cnt>
     d94:	80018c23          	sb	zero,-2024(gp) # 10000030 <timer0_period_elapsed>
     d98:	e65ff06f          	j	bfc <main+0x10c>

00000d9c <_init>:
     d9c:	ff010113          	addi	sp,sp,-16
     da0:	00812623          	sw	s0,12(sp)
     da4:	01010413          	addi	s0,sp,16
     da8:	000017b7          	lui	a5,0x1
     dac:	86878793          	addi	a5,a5,-1944 # 868 <trap_entry>
     db0:	30579073          	csrw	mtvec,a5
     db4:	000027b7          	lui	a5,0x2
     db8:	88878793          	addi	a5,a5,-1912 # 1888 <_data_lma+0x4d8>
     dbc:	30079073          	csrw	mstatus,a5
     dc0:	00000013          	nop
     dc4:	00c12403          	lw	s0,12(sp)
     dc8:	01010113          	addi	sp,sp,16
     dcc:	00008067          	ret

00000dd0 <trap_handler>:
     dd0:	fe010113          	addi	sp,sp,-32
     dd4:	00112e23          	sw	ra,28(sp)
     dd8:	00812c23          	sw	s0,24(sp)
     ddc:	02010413          	addi	s0,sp,32
     de0:	fea42623          	sw	a0,-20(s0)
     de4:	feb42423          	sw	a1,-24(s0)
     de8:	fec42703          	lw	a4,-20(s0)
     dec:	800007b7          	lui	a5,0x80000
     df0:	00778793          	addi	a5,a5,7 # 80000007 <__freertos_irq_stack_top+0x6fff8007>
     df4:	02f70863          	beq	a4,a5,e24 <trap_handler+0x54>
     df8:	fec42703          	lw	a4,-20(s0)
     dfc:	800007b7          	lui	a5,0x80000
     e00:	00b78793          	addi	a5,a5,11 # 8000000b <__freertos_irq_stack_top+0x6fff800b>
     e04:	02f70663          	beq	a4,a5,e30 <trap_handler+0x60>
     e08:	fec42703          	lw	a4,-20(s0)
     e0c:	800007b7          	lui	a5,0x80000
     e10:	00378793          	addi	a5,a5,3 # 80000003 <__freertos_irq_stack_top+0x6fff8003>
     e14:	02f71263          	bne	a4,a5,e38 <trap_handler+0x68>
     e18:	00000097          	auipc	ra,0x0
     e1c:	000000e7          	jalr	zero # 0 <_start-0x800>
     e20:	01c0006f          	j	e3c <trap_handler+0x6c>
     e24:	00000097          	auipc	ra,0x0
     e28:	000000e7          	jalr	zero # 0 <_start-0x800>
     e2c:	0100006f          	j	e3c <trap_handler+0x6c>
     e30:	b61ff0ef          	jal	ra,990 <ext_irq_handler>
     e34:	0080006f          	j	e3c <trap_handler+0x6c>
     e38:	00000013          	nop
     e3c:	00000013          	nop
     e40:	01c12083          	lw	ra,28(sp)
     e44:	01812403          	lw	s0,24(sp)
     e48:	02010113          	addi	sp,sp,32
     e4c:	00008067          	ret

00000e50 <serr_handler>:
     e50:	fe010113          	addi	sp,sp,-32
     e54:	00812e23          	sw	s0,28(sp)
     e58:	02010413          	addi	s0,sp,32
     e5c:	fea42623          	sw	a0,-20(s0)
     e60:	feb42423          	sw	a1,-24(s0)
     e64:	0000006f          	j	e64 <serr_handler+0x14>

00000e68 <plic_init>:
     e68:	fe010113          	addi	sp,sp,-32
     e6c:	00812e23          	sw	s0,28(sp)
     e70:	02010413          	addi	s0,sp,32
     e74:	fea42623          	sw	a0,-20(s0)
     e78:	feb42423          	sw	a1,-24(s0)
     e7c:	fec42783          	lw	a5,-20(s0)
     e80:	fe842703          	lw	a4,-24(s0)
     e84:	00e7a023          	sw	a4,0(a5)
     e88:	00000013          	nop
     e8c:	01c12403          	lw	s0,28(sp)
     e90:	02010113          	addi	sp,sp,32
     e94:	00008067          	ret

00000e98 <plic_set_threshold>:
     e98:	fd010113          	addi	sp,sp,-48
     e9c:	02812623          	sw	s0,44(sp)
     ea0:	03010413          	addi	s0,sp,48
     ea4:	fca42e23          	sw	a0,-36(s0)
     ea8:	fcb42c23          	sw	a1,-40(s0)
     eac:	f14027f3          	csrr	a5,mhartid
     eb0:	fef42623          	sw	a5,-20(s0)
     eb4:	fec42783          	lw	a5,-20(s0)
     eb8:	fef42423          	sw	a5,-24(s0)
     ebc:	fdc42783          	lw	a5,-36(s0)
     ec0:	0007a703          	lw	a4,0(a5)
     ec4:	fe842783          	lw	a5,-24(s0)
     ec8:	00c79793          	slli	a5,a5,0xc
     ecc:	00f70733          	add	a4,a4,a5
     ed0:	002007b7          	lui	a5,0x200
     ed4:	00f707b3          	add	a5,a4,a5
     ed8:	fef42223          	sw	a5,-28(s0)
     edc:	fe442783          	lw	a5,-28(s0)
     ee0:	fd842703          	lw	a4,-40(s0)
     ee4:	00e7a023          	sw	a4,0(a5) # 200000 <__stack_size+0x1fe000>
     ee8:	00000013          	nop
     eec:	02c12403          	lw	s0,44(sp)
     ef0:	03010113          	addi	sp,sp,48
     ef4:	00008067          	ret

00000ef8 <plic_enable_interrupt>:
     ef8:	fd010113          	addi	sp,sp,-48
     efc:	02812623          	sw	s0,44(sp)
     f00:	03010413          	addi	s0,sp,48
     f04:	fca42e23          	sw	a0,-36(s0)
     f08:	fcb42c23          	sw	a1,-40(s0)
     f0c:	f14027f3          	csrr	a5,mhartid
     f10:	fef42623          	sw	a5,-20(s0)
     f14:	fec42783          	lw	a5,-20(s0)
     f18:	fef42423          	sw	a5,-24(s0)
     f1c:	fdc42783          	lw	a5,-36(s0)
     f20:	0007a703          	lw	a4,0(a5)
     f24:	fe842783          	lw	a5,-24(s0)
     f28:	00779793          	slli	a5,a5,0x7
     f2c:	00f70733          	add	a4,a4,a5
     f30:	fd842783          	lw	a5,-40(s0)
     f34:	0037d793          	srli	a5,a5,0x3
     f38:	00f70733          	add	a4,a4,a5
     f3c:	000027b7          	lui	a5,0x2
     f40:	00f707b3          	add	a5,a4,a5
     f44:	fef42223          	sw	a5,-28(s0)
     f48:	fe442783          	lw	a5,-28(s0)
     f4c:	0007c783          	lbu	a5,0(a5) # 2000 <__stack_size>
     f50:	fef401a3          	sb	a5,-29(s0)
     f54:	fd842783          	lw	a5,-40(s0)
     f58:	0077f793          	andi	a5,a5,7
     f5c:	00100713          	li	a4,1
     f60:	00f717b3          	sll	a5,a4,a5
     f64:	01879713          	slli	a4,a5,0x18
     f68:	41875713          	srai	a4,a4,0x18
     f6c:	fe340783          	lb	a5,-29(s0)
     f70:	00f767b3          	or	a5,a4,a5
     f74:	01879793          	slli	a5,a5,0x18
     f78:	4187d793          	srai	a5,a5,0x18
     f7c:	fef401a3          	sb	a5,-29(s0)
     f80:	fe442783          	lw	a5,-28(s0)
     f84:	fe344703          	lbu	a4,-29(s0)
     f88:	00e78023          	sb	a4,0(a5)
     f8c:	00000013          	nop
     f90:	02c12403          	lw	s0,44(sp)
     f94:	03010113          	addi	sp,sp,48
     f98:	00008067          	ret

00000f9c <plic_set_priority>:
     f9c:	fd010113          	addi	sp,sp,-48
     fa0:	02812623          	sw	s0,44(sp)
     fa4:	03010413          	addi	s0,sp,48
     fa8:	fca42e23          	sw	a0,-36(s0)
     fac:	fcb42c23          	sw	a1,-40(s0)
     fb0:	fcc42a23          	sw	a2,-44(s0)
     fb4:	fdc42783          	lw	a5,-36(s0)
     fb8:	0007a703          	lw	a4,0(a5)
     fbc:	fd842783          	lw	a5,-40(s0)
     fc0:	00279793          	slli	a5,a5,0x2
     fc4:	00f707b3          	add	a5,a4,a5
     fc8:	fef42623          	sw	a5,-20(s0)
     fcc:	fec42783          	lw	a5,-20(s0)
     fd0:	fd442703          	lw	a4,-44(s0)
     fd4:	00e7a023          	sw	a4,0(a5)
     fd8:	00000013          	nop
     fdc:	02c12403          	lw	s0,44(sp)
     fe0:	03010113          	addi	sp,sp,48
     fe4:	00008067          	ret

00000fe8 <plic_claim_interrupt>:
     fe8:	fd010113          	addi	sp,sp,-48
     fec:	02812623          	sw	s0,44(sp)
     ff0:	03010413          	addi	s0,sp,48
     ff4:	fca42e23          	sw	a0,-36(s0)
     ff8:	f14027f3          	csrr	a5,mhartid
     ffc:	fef42623          	sw	a5,-20(s0)
    1000:	fec42783          	lw	a5,-20(s0)
    1004:	fef42423          	sw	a5,-24(s0)
    1008:	fdc42783          	lw	a5,-36(s0)
    100c:	0007a703          	lw	a4,0(a5)
    1010:	fe842783          	lw	a5,-24(s0)
    1014:	00c79793          	slli	a5,a5,0xc
    1018:	00f70733          	add	a4,a4,a5
    101c:	002007b7          	lui	a5,0x200
    1020:	00478793          	addi	a5,a5,4 # 200004 <__stack_size+0x1fe004>
    1024:	00f707b3          	add	a5,a4,a5
    1028:	fef42223          	sw	a5,-28(s0)
    102c:	fe442783          	lw	a5,-28(s0)
    1030:	0007a783          	lw	a5,0(a5)
    1034:	00078513          	mv	a0,a5
    1038:	02c12403          	lw	s0,44(sp)
    103c:	03010113          	addi	sp,sp,48
    1040:	00008067          	ret

00001044 <plic_complete_interrupt>:
    1044:	fd010113          	addi	sp,sp,-48
    1048:	02812623          	sw	s0,44(sp)
    104c:	03010413          	addi	s0,sp,48
    1050:	fca42e23          	sw	a0,-36(s0)
    1054:	fcb42c23          	sw	a1,-40(s0)
    1058:	f14027f3          	csrr	a5,mhartid
    105c:	fef42623          	sw	a5,-20(s0)
    1060:	fec42783          	lw	a5,-20(s0)
    1064:	fef42423          	sw	a5,-24(s0)
    1068:	fdc42783          	lw	a5,-36(s0)
    106c:	0007a703          	lw	a4,0(a5)
    1070:	fe842783          	lw	a5,-24(s0)
    1074:	00c79793          	slli	a5,a5,0xc
    1078:	00f70733          	add	a4,a4,a5
    107c:	002007b7          	lui	a5,0x200
    1080:	00478793          	addi	a5,a5,4 # 200004 <__stack_size+0x1fe004>
    1084:	00f707b3          	add	a5,a4,a5
    1088:	fef42223          	sw	a5,-28(s0)
    108c:	fe442783          	lw	a5,-28(s0)
    1090:	fd842703          	lw	a4,-40(s0)
    1094:	00e7a023          	sw	a4,0(a5)
    1098:	00000013          	nop
    109c:	02c12403          	lw	s0,44(sp)
    10a0:	03010113          	addi	sp,sp,48
    10a4:	00008067          	ret

000010a8 <apb_gpio_init>:
    10a8:	fe010113          	addi	sp,sp,-32
    10ac:	00812e23          	sw	s0,28(sp)
    10b0:	02010413          	addi	s0,sp,32
    10b4:	fea42623          	sw	a0,-20(s0)
    10b8:	feb42423          	sw	a1,-24(s0)
    10bc:	fe842703          	lw	a4,-24(s0)
    10c0:	fec42783          	lw	a5,-20(s0)
    10c4:	00e7a023          	sw	a4,0(a5)
    10c8:	00000013          	nop
    10cc:	01c12403          	lw	s0,28(sp)
    10d0:	02010113          	addi	sp,sp,32
    10d4:	00008067          	ret

000010d8 <apb_gpio_write_pin>:
    10d8:	fe010113          	addi	sp,sp,-32
    10dc:	00812e23          	sw	s0,28(sp)
    10e0:	02010413          	addi	s0,sp,32
    10e4:	fea42623          	sw	a0,-20(s0)
    10e8:	feb42423          	sw	a1,-24(s0)
    10ec:	fec42223          	sw	a2,-28(s0)
    10f0:	fec42783          	lw	a5,-20(s0)
    10f4:	0007a783          	lw	a5,0(a5)
    10f8:	fe842703          	lw	a4,-24(s0)
    10fc:	00e7a223          	sw	a4,4(a5)
    1100:	fec42783          	lw	a5,-20(s0)
    1104:	0007a783          	lw	a5,0(a5)
    1108:	fe442703          	lw	a4,-28(s0)
    110c:	00e7a023          	sw	a4,0(a5)
    1110:	00000013          	nop
    1114:	01c12403          	lw	s0,28(sp)
    1118:	02010113          	addi	sp,sp,32
    111c:	00008067          	ret

00001120 <apb_gpio_read_pin>:
    1120:	fe010113          	addi	sp,sp,-32
    1124:	00812e23          	sw	s0,28(sp)
    1128:	02010413          	addi	s0,sp,32
    112c:	fea42623          	sw	a0,-20(s0)
    1130:	fec42783          	lw	a5,-20(s0)
    1134:	0007a783          	lw	a5,0(a5)
    1138:	00c7a783          	lw	a5,12(a5)
    113c:	00078513          	mv	a0,a5
    1140:	01c12403          	lw	s0,28(sp)
    1144:	02010113          	addi	sp,sp,32
    1148:	00008067          	ret

0000114c <apb_gpio_set_direction>:
    114c:	fe010113          	addi	sp,sp,-32
    1150:	00812e23          	sw	s0,28(sp)
    1154:	02010413          	addi	s0,sp,32
    1158:	fea42623          	sw	a0,-20(s0)
    115c:	feb42423          	sw	a1,-24(s0)
    1160:	fec42783          	lw	a5,-20(s0)
    1164:	fe842703          	lw	a4,-24(s0)
    1168:	00e7a223          	sw	a4,4(a5)
    116c:	fec42783          	lw	a5,-20(s0)
    1170:	0007a783          	lw	a5,0(a5)
    1174:	fe842703          	lw	a4,-24(s0)
    1178:	00e7a423          	sw	a4,8(a5)
    117c:	00000013          	nop
    1180:	01c12403          	lw	s0,28(sp)
    1184:	02010113          	addi	sp,sp,32
    1188:	00008067          	ret

0000118c <init_apb_timer>:
    118c:	fd010113          	addi	sp,sp,-48
    1190:	02812623          	sw	s0,44(sp)
    1194:	03010413          	addi	s0,sp,48
    1198:	fca42e23          	sw	a0,-36(s0)
    119c:	fcb42c23          	sw	a1,-40(s0)
    11a0:	fcc42a23          	sw	a2,-44(s0)
    11a4:	fd842703          	lw	a4,-40(s0)
    11a8:	fdc42783          	lw	a5,-36(s0)
    11ac:	00e7a023          	sw	a4,0(a5)
    11b0:	fd442783          	lw	a5,-44(s0)
    11b4:	0047a703          	lw	a4,4(a5)
    11b8:	fdc42783          	lw	a5,-36(s0)
    11bc:	00e7a223          	sw	a4,4(a5)
    11c0:	fd442783          	lw	a5,-44(s0)
    11c4:	0087a703          	lw	a4,8(a5)
    11c8:	fdc42783          	lw	a5,-36(s0)
    11cc:	00e7a423          	sw	a4,8(a5)
    11d0:	fd442783          	lw	a5,-44(s0)
    11d4:	0007c703          	lbu	a4,0(a5)
    11d8:	fdc42783          	lw	a5,-36(s0)
    11dc:	00e78623          	sb	a4,12(a5)
    11e0:	fd442783          	lw	a5,-44(s0)
    11e4:	0017c703          	lbu	a4,1(a5)
    11e8:	fdc42783          	lw	a5,-36(s0)
    11ec:	00e786a3          	sb	a4,13(a5)
    11f0:	fdc42783          	lw	a5,-36(s0)
    11f4:	0007a783          	lw	a5,0(a5)
    11f8:	fd442703          	lw	a4,-44(s0)
    11fc:	00472703          	lw	a4,4(a4) # 10000004 <_data+0x4>
    1200:	00e7a023          	sw	a4,0(a5)
    1204:	fdc42783          	lw	a5,-36(s0)
    1208:	0007a783          	lw	a5,0(a5)
    120c:	fd442703          	lw	a4,-44(s0)
    1210:	00872703          	lw	a4,8(a4)
    1214:	00e7a223          	sw	a4,4(a5)
    1218:	fdc42783          	lw	a5,-36(s0)
    121c:	0007a783          	lw	a5,0(a5)
    1220:	fd442703          	lw	a4,-44(s0)
    1224:	00472703          	lw	a4,4(a4)
    1228:	00e7a423          	sw	a4,8(a5)
    122c:	fd442783          	lw	a5,-44(s0)
    1230:	0007c783          	lbu	a5,0(a5)
    1234:	00078713          	mv	a4,a5
    1238:	fdc42783          	lw	a5,-36(s0)
    123c:	0007a783          	lw	a5,0(a5)
    1240:	00871713          	slli	a4,a4,0x8
    1244:	00e7a623          	sw	a4,12(a5)
    1248:	fe0407a3          	sb	zero,-17(s0)
    124c:	0a80006f          	j	12f4 <init_apb_timer+0x168>
    1250:	fd442783          	lw	a5,-44(s0)
    1254:	0007c783          	lbu	a5,0(a5)
    1258:	00078713          	mv	a4,a5
    125c:	fef44783          	lbu	a5,-17(s0)
    1260:	40f757b3          	sra	a5,a4,a5
    1264:	0017f793          	andi	a5,a5,1
    1268:	04079863          	bnez	a5,12b8 <init_apb_timer+0x12c>
    126c:	fef44783          	lbu	a5,-17(s0)
    1270:	fd442703          	lw	a4,-44(s0)
    1274:	00f707b3          	add	a5,a4,a5
    1278:	0207c783          	lbu	a5,32(a5)
    127c:	00078613          	mv	a2,a5
    1280:	fef44783          	lbu	a5,-17(s0)
    1284:	fd442703          	lw	a4,-44(s0)
    1288:	00f707b3          	add	a5,a4,a5
    128c:	01c7c783          	lbu	a5,28(a5)
    1290:	00879713          	slli	a4,a5,0x8
    1294:	fdc42783          	lw	a5,-36(s0)
    1298:	0007a683          	lw	a3,0(a5)
    129c:	fef44783          	lbu	a5,-17(s0)
    12a0:	00e66733          	or	a4,a2,a4
    12a4:	00278793          	addi	a5,a5,2
    12a8:	00379793          	slli	a5,a5,0x3
    12ac:	00f687b3          	add	a5,a3,a5
    12b0:	00e7a623          	sw	a4,12(a5)
    12b4:	0340006f          	j	12e8 <init_apb_timer+0x15c>
    12b8:	fef44783          	lbu	a5,-17(s0)
    12bc:	fdc42703          	lw	a4,-36(s0)
    12c0:	00072683          	lw	a3,0(a4)
    12c4:	fef44603          	lbu	a2,-17(s0)
    12c8:	fd442703          	lw	a4,-44(s0)
    12cc:	00279793          	slli	a5,a5,0x2
    12d0:	00f707b3          	add	a5,a4,a5
    12d4:	00c7a703          	lw	a4,12(a5)
    12d8:	00260793          	addi	a5,a2,2
    12dc:	00379793          	slli	a5,a5,0x3
    12e0:	00f687b3          	add	a5,a3,a5
    12e4:	00e7a423          	sw	a4,8(a5)
    12e8:	fef44783          	lbu	a5,-17(s0)
    12ec:	00178793          	addi	a5,a5,1
    12f0:	fef407a3          	sb	a5,-17(s0)
    12f4:	fef44703          	lbu	a4,-17(s0)
    12f8:	00300793          	li	a5,3
    12fc:	f4e7fae3          	bgeu	a5,a4,1250 <init_apb_timer+0xc4>
    1300:	00000013          	nop
    1304:	02c12403          	lw	s0,44(sp)
    1308:	03010113          	addi	sp,sp,48
    130c:	00008067          	ret

00001310 <apb_timer_enable_itr>:
    1310:	fe010113          	addi	sp,sp,-32
    1314:	00812e23          	sw	s0,28(sp)
    1318:	02010413          	addi	s0,sp,32
    131c:	fea42623          	sw	a0,-20(s0)
    1320:	00058793          	mv	a5,a1
    1324:	fef405a3          	sb	a5,-21(s0)
    1328:	feb44783          	lbu	a5,-21(s0)
    132c:	00879713          	slli	a4,a5,0x8
    1330:	fec42783          	lw	a5,-20(s0)
    1334:	0007a783          	lw	a5,0(a5)
    1338:	00176713          	ori	a4,a4,1
    133c:	00e7a823          	sw	a4,16(a5)
    1340:	00000013          	nop
    1344:	01c12403          	lw	s0,28(sp)
    1348:	02010113          	addi	sp,sp,32
    134c:	00008067          	ret

00001350 <apb_timer_get_itr_status>:
    1350:	fe010113          	addi	sp,sp,-32
    1354:	00812e23          	sw	s0,28(sp)
    1358:	02010413          	addi	s0,sp,32
    135c:	fea42623          	sw	a0,-20(s0)
    1360:	fec42783          	lw	a5,-20(s0)
    1364:	0007a783          	lw	a5,0(a5)
    1368:	0147a783          	lw	a5,20(a5)
    136c:	0087d793          	srli	a5,a5,0x8
    1370:	0ff7f793          	andi	a5,a5,255
    1374:	00078513          	mv	a0,a5
    1378:	01c12403          	lw	s0,28(sp)
    137c:	02010113          	addi	sp,sp,32
    1380:	00008067          	ret

00001384 <apb_timer_clear_itr_flag>:
    1384:	fe010113          	addi	sp,sp,-32
    1388:	00812e23          	sw	s0,28(sp)
    138c:	02010413          	addi	s0,sp,32
    1390:	fea42623          	sw	a0,-20(s0)
    1394:	fec42783          	lw	a5,-20(s0)
    1398:	0007a783          	lw	a5,0(a5)
    139c:	0007aa23          	sw	zero,20(a5)
    13a0:	00000013          	nop
    13a4:	01c12403          	lw	s0,28(sp)
    13a8:	02010113          	addi	sp,sp,32
    13ac:	00008067          	ret
