
uart_rx_tx:     file format elf32-littleriscv


Disassembly of section .init:

00000800 <_start>:
 800:	10000197          	auipc	gp,0x10000
 804:	0b818193          	addi	gp,gp,184 # 100008b8 <__global_pointer$>
 808:	10007117          	auipc	sp,0x10007
 80c:	7f810113          	addi	sp,sp,2040 # 10008000 <__freertos_irq_stack_top>
 810:	00001517          	auipc	a0,0x1
 814:	fa450513          	addi	a0,a0,-92 # 17b4 <_data_lma>
 818:	0ffff597          	auipc	a1,0xffff
 81c:	7e858593          	addi	a1,a1,2024 # 10000000 <_data>
 820:	80818613          	addi	a2,gp,-2040 # 100000c0 <__bss_start>
 824:	00c5fc63          	bgeu	a1,a2,83c <_start+0x3c>
 828:	00052283          	lw	t0,0(a0)
 82c:	0055a023          	sw	t0,0(a1)
 830:	00450513          	addi	a0,a0,4
 834:	00458593          	addi	a1,a1,4
 838:	fec5e8e3          	bltu	a1,a2,828 <_start+0x28>
 83c:	80818513          	addi	a0,gp,-2040 # 100000c0 <__bss_start>
 840:	92818593          	addi	a1,gp,-1752 # 100001e0 <_end>
 844:	00b57863          	bgeu	a0,a1,854 <_start+0x54>
 848:	00052023          	sw	zero,0(a0)
 84c:	00450513          	addi	a0,a0,4
 850:	feb56ce3          	bltu	a0,a1,848 <_start+0x48>
 854:	3d4000ef          	jal	ra,c28 <_init>
 858:	258000ef          	jal	ra,ab0 <main>

0000085c <loop>:
 85c:	0000006f          	j	85c <loop>

Disassembly of section .text:

00000860 <trap_entry>:
     860:	f8010113          	addi	sp,sp,-128
     864:	00112223          	sw	ra,4(sp)
     868:	00212423          	sw	sp,8(sp)
     86c:	00312623          	sw	gp,12(sp)
     870:	00412823          	sw	tp,16(sp)
     874:	00512a23          	sw	t0,20(sp)
     878:	00612c23          	sw	t1,24(sp)
     87c:	00712e23          	sw	t2,28(sp)
     880:	02812023          	sw	s0,32(sp)
     884:	02912223          	sw	s1,36(sp)
     888:	02a12423          	sw	a0,40(sp)
     88c:	02b12623          	sw	a1,44(sp)
     890:	02c12823          	sw	a2,48(sp)
     894:	02d12a23          	sw	a3,52(sp)
     898:	02e12c23          	sw	a4,56(sp)
     89c:	02f12e23          	sw	a5,60(sp)
     8a0:	05012023          	sw	a6,64(sp)
     8a4:	05112223          	sw	a7,68(sp)
     8a8:	05212423          	sw	s2,72(sp)
     8ac:	05312623          	sw	s3,76(sp)
     8b0:	05412823          	sw	s4,80(sp)
     8b4:	05512a23          	sw	s5,84(sp)
     8b8:	05612c23          	sw	s6,88(sp)
     8bc:	05712e23          	sw	s7,92(sp)
     8c0:	07812023          	sw	s8,96(sp)
     8c4:	07912223          	sw	s9,100(sp)
     8c8:	07a12423          	sw	s10,104(sp)
     8cc:	07b12623          	sw	s11,108(sp)
     8d0:	07c12823          	sw	t3,112(sp)
     8d4:	07d12a23          	sw	t4,116(sp)
     8d8:	07e12c23          	sw	t5,120(sp)
     8dc:	07f12e23          	sw	t6,124(sp)
     8e0:	34202573          	csrr	a0,mcause
     8e4:	341025f3          	csrr	a1,mepc

000008e8 <test_if_asynchronous>:
     8e8:	01f55613          	srli	a2,a0,0x1f
     8ec:	00060663          	beqz	a2,8f8 <handle_synchronous>
     8f0:	36c000ef          	jal	ra,c5c <trap_handler>
     8f4:	0080006f          	j	8fc <asynchronous_return>

000008f8 <handle_synchronous>:
     8f8:	3e4000ef          	jal	ra,cdc <serr_handler>

000008fc <asynchronous_return>:
     8fc:	00412083          	lw	ra,4(sp)
     900:	00812103          	lw	sp,8(sp)
     904:	00c12183          	lw	gp,12(sp)
     908:	01012203          	lw	tp,16(sp)
     90c:	01412283          	lw	t0,20(sp)
     910:	01812303          	lw	t1,24(sp)
     914:	01c12383          	lw	t2,28(sp)
     918:	02012403          	lw	s0,32(sp)
     91c:	02412483          	lw	s1,36(sp)
     920:	02812503          	lw	a0,40(sp)
     924:	02c12583          	lw	a1,44(sp)
     928:	03012603          	lw	a2,48(sp)
     92c:	03412683          	lw	a3,52(sp)
     930:	03812703          	lw	a4,56(sp)
     934:	03c12783          	lw	a5,60(sp)
     938:	04012803          	lw	a6,64(sp)
     93c:	04412883          	lw	a7,68(sp)
     940:	04812903          	lw	s2,72(sp)
     944:	04c12983          	lw	s3,76(sp)
     948:	05012a03          	lw	s4,80(sp)
     94c:	05412a83          	lw	s5,84(sp)
     950:	05812b03          	lw	s6,88(sp)
     954:	05c12b83          	lw	s7,92(sp)
     958:	06012c03          	lw	s8,96(sp)
     95c:	06412c83          	lw	s9,100(sp)
     960:	06812d03          	lw	s10,104(sp)
     964:	06c12d83          	lw	s11,108(sp)
     968:	07012e03          	lw	t3,112(sp)
     96c:	07412e83          	lw	t4,116(sp)
     970:	07812f03          	lw	t5,120(sp)
     974:	07c12f83          	lw	t6,124(sp)
     978:	08010113          	addi	sp,sp,128
     97c:	30200073          	mret
     980:	0000006f          	j	980 <asynchronous_return+0x84>
     984:	0000006f          	j	984 <asynchronous_return+0x88>

00000988 <ext_irq_handler>:
     988:	fe010113          	addi	sp,sp,-32
     98c:	00112e23          	sw	ra,28(sp)
     990:	00812c23          	sw	s0,24(sp)
     994:	02010413          	addi	s0,sp,32
     998:	81818513          	addi	a0,gp,-2024 # 100000d0 <plic>
     99c:	4d8000ef          	jal	ra,e74 <plic_claim_interrupt>
     9a0:	fea42623          	sw	a0,-20(s0)
     9a4:	fec42703          	lw	a4,-20(s0)
     9a8:	00200793          	li	a5,2
     9ac:	00f70c63          	beq	a4,a5,9c4 <ext_irq_handler+0x3c>
     9b0:	fec42703          	lw	a4,-20(s0)
     9b4:	00300793          	li	a5,3
     9b8:	00f71a63          	bne	a4,a5,9cc <ext_irq_handler+0x44>
     9bc:	034000ef          	jal	ra,9f0 <uart0_itr_handler>
     9c0:	0100006f          	j	9d0 <ext_irq_handler+0x48>
     9c4:	00000013          	nop
     9c8:	0080006f          	j	9d0 <ext_irq_handler+0x48>
     9cc:	00000013          	nop
     9d0:	fec42583          	lw	a1,-20(s0)
     9d4:	81818513          	addi	a0,gp,-2024 # 100000d0 <plic>
     9d8:	4f8000ef          	jal	ra,ed0 <plic_complete_interrupt>
     9dc:	00000013          	nop
     9e0:	01c12083          	lw	ra,28(sp)
     9e4:	01812403          	lw	s0,24(sp)
     9e8:	02010113          	addi	sp,sp,32
     9ec:	00008067          	ret

000009f0 <uart0_itr_handler>:
     9f0:	fe010113          	addi	sp,sp,-32
     9f4:	00112e23          	sw	ra,28(sp)
     9f8:	00812c23          	sw	s0,24(sp)
     9fc:	02010413          	addi	s0,sp,32
     a00:	0400006f          	j	a40 <uart0_itr_handler+0x50>
     a04:	81c1d703          	lhu	a4,-2020(gp) # 100000d4 <uart_rx_n>
     a08:	0ff00793          	li	a5,255
     a0c:	02e7e063          	bltu	a5,a4,a2c <uart0_itr_handler+0x3c>
     a10:	81c1d783          	lhu	a5,-2020(gp) # 100000d4 <uart_rx_n>
     a14:	00078693          	mv	a3,a5
     a18:	fef44703          	lbu	a4,-17(s0)
     a1c:	100007b7          	lui	a5,0x10000
     a20:	0dc78793          	addi	a5,a5,220 # 100000dc <uart_rx_buf>
     a24:	00f687b3          	add	a5,a3,a5
     a28:	00e78023          	sb	a4,0(a5)
     a2c:	81c1d783          	lhu	a5,-2020(gp) # 100000d4 <uart_rx_n>
     a30:	00178793          	addi	a5,a5,1
     a34:	01079713          	slli	a4,a5,0x10
     a38:	01075713          	srli	a4,a4,0x10
     a3c:	80e19e23          	sh	a4,-2020(gp) # 100000d4 <uart_rx_n>
     a40:	fef40793          	addi	a5,s0,-17
     a44:	00078593          	mv	a1,a5
     a48:	81018513          	addi	a0,gp,-2032 # 100000c8 <uart0>
     a4c:	638000ef          	jal	ra,1084 <apb_uart_rev_byte>
     a50:	00050793          	mv	a5,a0
     a54:	fa0788e3          	beqz	a5,a04 <uart0_itr_handler+0x14>
     a58:	81018513          	addi	a0,gp,-2032 # 100000c8 <uart0>
     a5c:	780000ef          	jal	ra,11dc <apb_uart_clear_itr_flag>
     a60:	00000013          	nop
     a64:	01c12083          	lw	ra,28(sp)
     a68:	01812403          	lw	s0,24(sp)
     a6c:	02010113          	addi	sp,sp,32
     a70:	00008067          	ret

00000a74 <uart_putc>:
     a74:	fe010113          	addi	sp,sp,-32
     a78:	00112e23          	sw	ra,28(sp)
     a7c:	00812c23          	sw	s0,24(sp)
     a80:	02010413          	addi	s0,sp,32
     a84:	00050793          	mv	a5,a0
     a88:	fef407a3          	sb	a5,-17(s0)
     a8c:	fef44783          	lbu	a5,-17(s0)
     a90:	00078593          	mv	a1,a5
     a94:	81018513          	addi	a0,gp,-2032 # 100000c8 <uart0>
     a98:	544000ef          	jal	ra,fdc <apb_uart_send_byte>
     a9c:	00000013          	nop
     aa0:	01c12083          	lw	ra,28(sp)
     aa4:	01812403          	lw	s0,24(sp)
     aa8:	02010113          	addi	sp,sp,32
     aac:	00008067          	ret

00000ab0 <main>:
     ab0:	fe010113          	addi	sp,sp,-32
     ab4:	00112e23          	sw	ra,28(sp)
     ab8:	00812c23          	sw	s0,24(sp)
     abc:	02010413          	addi	s0,sp,32
     ac0:	000017b7          	lui	a5,0x1
     ac4:	80078793          	addi	a5,a5,-2048 # 800 <_start>
     ac8:	30479073          	csrw	mie,a5
     acc:	f00005b7          	lui	a1,0xf0000
     ad0:	81818513          	addi	a0,gp,-2024 # 100000d0 <plic>
     ad4:	220000ef          	jal	ra,cf4 <plic_init>
     ad8:	00000593          	li	a1,0
     adc:	81818513          	addi	a0,gp,-2024 # 100000d0 <plic>
     ae0:	244000ef          	jal	ra,d24 <plic_set_threshold>
     ae4:	00100613          	li	a2,1
     ae8:	00300593          	li	a1,3
     aec:	81818513          	addi	a0,gp,-2024 # 100000d0 <plic>
     af0:	338000ef          	jal	ra,e28 <plic_set_priority>
     af4:	00300593          	li	a1,3
     af8:	81818513          	addi	a0,gp,-2024 # 100000d0 <plic>
     afc:	288000ef          	jal	ra,d84 <plic_enable_interrupt>
     b00:	400005b7          	lui	a1,0x40000
     b04:	100007b7          	lui	a5,0x10000
     b08:	0c078513          	addi	a0,a5,192 # 100000c0 <__bss_start>
     b0c:	428000ef          	jal	ra,f34 <apb_gpio_init>
     b10:	f0000593          	li	a1,-256
     b14:	100007b7          	lui	a5,0x10000
     b18:	0c078513          	addi	a0,a5,192 # 100000c0 <__bss_start>
     b1c:	448000ef          	jal	ra,f64 <apb_gpio_set_direction>
     b20:	400035b7          	lui	a1,0x40003
     b24:	81018513          	addi	a0,gp,-2032 # 100000c8 <uart0>
     b28:	47c000ef          	jal	ra,fa4 <apb_uart_init>
     b2c:	100007b7          	lui	a5,0x10000
     b30:	0b87a703          	lw	a4,184(a5) # 100000b8 <_data+0xb8>
     b34:	fee42223          	sw	a4,-28(s0)
     b38:	0b878793          	addi	a5,a5,184
     b3c:	0047a783          	lw	a5,4(a5)
     b40:	fef42423          	sw	a5,-24(s0)
     b44:	fe440793          	addi	a5,s0,-28
     b48:	00078613          	mv	a2,a5
     b4c:	00800593          	li	a1,8
     b50:	81018513          	addi	a0,gp,-2032 # 100000c8 <uart0>
     b54:	5d8000ef          	jal	ra,112c <apb_uart_enable_itr>
     b58:	00001737          	lui	a4,0x1
     b5c:	a7470713          	addi	a4,a4,-1420 # a74 <uart_putc>
     b60:	92e1a223          	sw	a4,-1756(gp) # 100001dc <xfunc_out>
     b64:	100007b7          	lui	a5,0x10000
     b68:	00078513          	mv	a0,a5
     b6c:	3e9000ef          	jal	ra,1754 <xprintf>
     b70:	100007b7          	lui	a5,0x10000
     b74:	02478513          	addi	a0,a5,36 # 10000024 <_data+0x24>
     b78:	3dd000ef          	jal	ra,1754 <xprintf>
     b7c:	00000013          	nop
     b80:	81c1d783          	lhu	a5,-2020(gp) # 100000d4 <uart_rx_n>
     b84:	fe078ee3          	beqz	a5,b80 <main+0xd0>
     b88:	81c1d783          	lhu	a5,-2020(gp) # 100000d4 <uart_rx_n>
     b8c:	00078593          	mv	a1,a5
     b90:	100007b7          	lui	a5,0x10000
     b94:	03078513          	addi	a0,a5,48 # 10000030 <_data+0x30>
     b98:	3bd000ef          	jal	ra,1754 <xprintf>
     b9c:	fe041723          	sh	zero,-18(s0)
     ba0:	0300006f          	j	bd0 <main+0x120>
     ba4:	fee45703          	lhu	a4,-18(s0)
     ba8:	100007b7          	lui	a5,0x10000
     bac:	0dc78793          	addi	a5,a5,220 # 100000dc <uart_rx_buf>
     bb0:	00f707b3          	add	a5,a4,a5
     bb4:	0007c783          	lbu	a5,0(a5)
     bb8:	00078593          	mv	a1,a5
     bbc:	81018513          	addi	a0,gp,-2032 # 100000c8 <uart0>
     bc0:	41c000ef          	jal	ra,fdc <apb_uart_send_byte>
     bc4:	fee45783          	lhu	a5,-18(s0)
     bc8:	00178793          	addi	a5,a5,1
     bcc:	fef41723          	sh	a5,-18(s0)
     bd0:	81c1d783          	lhu	a5,-2020(gp) # 100000d4 <uart_rx_n>
     bd4:	fee45703          	lhu	a4,-18(s0)
     bd8:	fcf766e3          	bltu	a4,a5,ba4 <main+0xf4>
     bdc:	02000593          	li	a1,32
     be0:	81018513          	addi	a0,gp,-2032 # 100000c8 <uart0>
     be4:	3f8000ef          	jal	ra,fdc <apb_uart_send_byte>
     be8:	81c1d703          	lhu	a4,-2020(gp) # 100000d4 <uart_rx_n>
     bec:	00100793          	li	a5,1
     bf0:	02f71263          	bne	a4,a5,c14 <main+0x164>
     bf4:	100007b7          	lui	a5,0x10000
     bf8:	0dc7c703          	lbu	a4,220(a5) # 100000dc <uart_rx_buf>
     bfc:	03200793          	li	a5,50
     c00:	00f71a63          	bne	a4,a5,c14 <main+0x164>
     c04:	100007b7          	lui	a5,0x10000
     c08:	04878513          	addi	a0,a5,72 # 10000048 <_data+0x48>
     c0c:	349000ef          	jal	ra,1754 <xprintf>
     c10:	0100006f          	j	c20 <main+0x170>
     c14:	100007b7          	lui	a5,0x10000
     c18:	05078513          	addi	a0,a5,80 # 10000050 <_data+0x50>
     c1c:	339000ef          	jal	ra,1754 <xprintf>
     c20:	80019e23          	sh	zero,-2020(gp) # 100000d4 <uart_rx_n>
     c24:	f4dff06f          	j	b70 <main+0xc0>

00000c28 <_init>:
     c28:	ff010113          	addi	sp,sp,-16
     c2c:	00812623          	sw	s0,12(sp)
     c30:	01010413          	addi	s0,sp,16
     c34:	000017b7          	lui	a5,0x1
     c38:	86078793          	addi	a5,a5,-1952 # 860 <trap_entry>
     c3c:	30579073          	csrw	mtvec,a5
     c40:	000027b7          	lui	a5,0x2
     c44:	88878793          	addi	a5,a5,-1912 # 1888 <_data_lma+0xd4>
     c48:	30079073          	csrw	mstatus,a5
     c4c:	00000013          	nop
     c50:	00c12403          	lw	s0,12(sp)
     c54:	01010113          	addi	sp,sp,16
     c58:	00008067          	ret

00000c5c <trap_handler>:
     c5c:	fe010113          	addi	sp,sp,-32
     c60:	00112e23          	sw	ra,28(sp)
     c64:	00812c23          	sw	s0,24(sp)
     c68:	02010413          	addi	s0,sp,32
     c6c:	fea42623          	sw	a0,-20(s0)
     c70:	feb42423          	sw	a1,-24(s0)
     c74:	fec42703          	lw	a4,-20(s0)
     c78:	800007b7          	lui	a5,0x80000
     c7c:	00778793          	addi	a5,a5,7 # 80000007 <__freertos_irq_stack_top+0x6fff8007>
     c80:	02f70863          	beq	a4,a5,cb0 <trap_handler+0x54>
     c84:	fec42703          	lw	a4,-20(s0)
     c88:	800007b7          	lui	a5,0x80000
     c8c:	00b78793          	addi	a5,a5,11 # 8000000b <__freertos_irq_stack_top+0x6fff800b>
     c90:	02f70663          	beq	a4,a5,cbc <trap_handler+0x60>
     c94:	fec42703          	lw	a4,-20(s0)
     c98:	800007b7          	lui	a5,0x80000
     c9c:	00378793          	addi	a5,a5,3 # 80000003 <__freertos_irq_stack_top+0x6fff8003>
     ca0:	02f71263          	bne	a4,a5,cc4 <trap_handler+0x68>
     ca4:	00000097          	auipc	ra,0x0
     ca8:	000000e7          	jalr	zero # 0 <_start-0x800>
     cac:	01c0006f          	j	cc8 <trap_handler+0x6c>
     cb0:	00000097          	auipc	ra,0x0
     cb4:	000000e7          	jalr	zero # 0 <_start-0x800>
     cb8:	0100006f          	j	cc8 <trap_handler+0x6c>
     cbc:	ccdff0ef          	jal	ra,988 <ext_irq_handler>
     cc0:	0080006f          	j	cc8 <trap_handler+0x6c>
     cc4:	00000013          	nop
     cc8:	00000013          	nop
     ccc:	01c12083          	lw	ra,28(sp)
     cd0:	01812403          	lw	s0,24(sp)
     cd4:	02010113          	addi	sp,sp,32
     cd8:	00008067          	ret

00000cdc <serr_handler>:
     cdc:	fe010113          	addi	sp,sp,-32
     ce0:	00812e23          	sw	s0,28(sp)
     ce4:	02010413          	addi	s0,sp,32
     ce8:	fea42623          	sw	a0,-20(s0)
     cec:	feb42423          	sw	a1,-24(s0)
     cf0:	0000006f          	j	cf0 <serr_handler+0x14>

00000cf4 <plic_init>:
     cf4:	fe010113          	addi	sp,sp,-32
     cf8:	00812e23          	sw	s0,28(sp)
     cfc:	02010413          	addi	s0,sp,32
     d00:	fea42623          	sw	a0,-20(s0)
     d04:	feb42423          	sw	a1,-24(s0)
     d08:	fec42783          	lw	a5,-20(s0)
     d0c:	fe842703          	lw	a4,-24(s0)
     d10:	00e7a023          	sw	a4,0(a5)
     d14:	00000013          	nop
     d18:	01c12403          	lw	s0,28(sp)
     d1c:	02010113          	addi	sp,sp,32
     d20:	00008067          	ret

00000d24 <plic_set_threshold>:
     d24:	fd010113          	addi	sp,sp,-48
     d28:	02812623          	sw	s0,44(sp)
     d2c:	03010413          	addi	s0,sp,48
     d30:	fca42e23          	sw	a0,-36(s0)
     d34:	fcb42c23          	sw	a1,-40(s0)
     d38:	f14027f3          	csrr	a5,mhartid
     d3c:	fef42623          	sw	a5,-20(s0)
     d40:	fec42783          	lw	a5,-20(s0)
     d44:	fef42423          	sw	a5,-24(s0)
     d48:	fdc42783          	lw	a5,-36(s0)
     d4c:	0007a703          	lw	a4,0(a5)
     d50:	fe842783          	lw	a5,-24(s0)
     d54:	00c79793          	slli	a5,a5,0xc
     d58:	00f70733          	add	a4,a4,a5
     d5c:	002007b7          	lui	a5,0x200
     d60:	00f707b3          	add	a5,a4,a5
     d64:	fef42223          	sw	a5,-28(s0)
     d68:	fe442783          	lw	a5,-28(s0)
     d6c:	fd842703          	lw	a4,-40(s0)
     d70:	00e7a023          	sw	a4,0(a5) # 200000 <__stack_size+0x1fe000>
     d74:	00000013          	nop
     d78:	02c12403          	lw	s0,44(sp)
     d7c:	03010113          	addi	sp,sp,48
     d80:	00008067          	ret

00000d84 <plic_enable_interrupt>:
     d84:	fd010113          	addi	sp,sp,-48
     d88:	02812623          	sw	s0,44(sp)
     d8c:	03010413          	addi	s0,sp,48
     d90:	fca42e23          	sw	a0,-36(s0)
     d94:	fcb42c23          	sw	a1,-40(s0)
     d98:	f14027f3          	csrr	a5,mhartid
     d9c:	fef42623          	sw	a5,-20(s0)
     da0:	fec42783          	lw	a5,-20(s0)
     da4:	fef42423          	sw	a5,-24(s0)
     da8:	fdc42783          	lw	a5,-36(s0)
     dac:	0007a703          	lw	a4,0(a5)
     db0:	fe842783          	lw	a5,-24(s0)
     db4:	00779793          	slli	a5,a5,0x7
     db8:	00f70733          	add	a4,a4,a5
     dbc:	fd842783          	lw	a5,-40(s0)
     dc0:	0037d793          	srli	a5,a5,0x3
     dc4:	00f70733          	add	a4,a4,a5
     dc8:	000027b7          	lui	a5,0x2
     dcc:	00f707b3          	add	a5,a4,a5
     dd0:	fef42223          	sw	a5,-28(s0)
     dd4:	fe442783          	lw	a5,-28(s0)
     dd8:	0007c783          	lbu	a5,0(a5) # 2000 <__stack_size>
     ddc:	fef401a3          	sb	a5,-29(s0)
     de0:	fd842783          	lw	a5,-40(s0)
     de4:	0077f793          	andi	a5,a5,7
     de8:	00100713          	li	a4,1
     dec:	00f717b3          	sll	a5,a4,a5
     df0:	01879713          	slli	a4,a5,0x18
     df4:	41875713          	srai	a4,a4,0x18
     df8:	fe340783          	lb	a5,-29(s0)
     dfc:	00f767b3          	or	a5,a4,a5
     e00:	01879793          	slli	a5,a5,0x18
     e04:	4187d793          	srai	a5,a5,0x18
     e08:	fef401a3          	sb	a5,-29(s0)
     e0c:	fe442783          	lw	a5,-28(s0)
     e10:	fe344703          	lbu	a4,-29(s0)
     e14:	00e78023          	sb	a4,0(a5)
     e18:	00000013          	nop
     e1c:	02c12403          	lw	s0,44(sp)
     e20:	03010113          	addi	sp,sp,48
     e24:	00008067          	ret

00000e28 <plic_set_priority>:
     e28:	fd010113          	addi	sp,sp,-48
     e2c:	02812623          	sw	s0,44(sp)
     e30:	03010413          	addi	s0,sp,48
     e34:	fca42e23          	sw	a0,-36(s0)
     e38:	fcb42c23          	sw	a1,-40(s0)
     e3c:	fcc42a23          	sw	a2,-44(s0)
     e40:	fdc42783          	lw	a5,-36(s0)
     e44:	0007a703          	lw	a4,0(a5)
     e48:	fd842783          	lw	a5,-40(s0)
     e4c:	00279793          	slli	a5,a5,0x2
     e50:	00f707b3          	add	a5,a4,a5
     e54:	fef42623          	sw	a5,-20(s0)
     e58:	fec42783          	lw	a5,-20(s0)
     e5c:	fd442703          	lw	a4,-44(s0)
     e60:	00e7a023          	sw	a4,0(a5)
     e64:	00000013          	nop
     e68:	02c12403          	lw	s0,44(sp)
     e6c:	03010113          	addi	sp,sp,48
     e70:	00008067          	ret

00000e74 <plic_claim_interrupt>:
     e74:	fd010113          	addi	sp,sp,-48
     e78:	02812623          	sw	s0,44(sp)
     e7c:	03010413          	addi	s0,sp,48
     e80:	fca42e23          	sw	a0,-36(s0)
     e84:	f14027f3          	csrr	a5,mhartid
     e88:	fef42623          	sw	a5,-20(s0)
     e8c:	fec42783          	lw	a5,-20(s0)
     e90:	fef42423          	sw	a5,-24(s0)
     e94:	fdc42783          	lw	a5,-36(s0)
     e98:	0007a703          	lw	a4,0(a5)
     e9c:	fe842783          	lw	a5,-24(s0)
     ea0:	00c79793          	slli	a5,a5,0xc
     ea4:	00f70733          	add	a4,a4,a5
     ea8:	002007b7          	lui	a5,0x200
     eac:	00478793          	addi	a5,a5,4 # 200004 <__stack_size+0x1fe004>
     eb0:	00f707b3          	add	a5,a4,a5
     eb4:	fef42223          	sw	a5,-28(s0)
     eb8:	fe442783          	lw	a5,-28(s0)
     ebc:	0007a783          	lw	a5,0(a5)
     ec0:	00078513          	mv	a0,a5
     ec4:	02c12403          	lw	s0,44(sp)
     ec8:	03010113          	addi	sp,sp,48
     ecc:	00008067          	ret

00000ed0 <plic_complete_interrupt>:
     ed0:	fd010113          	addi	sp,sp,-48
     ed4:	02812623          	sw	s0,44(sp)
     ed8:	03010413          	addi	s0,sp,48
     edc:	fca42e23          	sw	a0,-36(s0)
     ee0:	fcb42c23          	sw	a1,-40(s0)
     ee4:	f14027f3          	csrr	a5,mhartid
     ee8:	fef42623          	sw	a5,-20(s0)
     eec:	fec42783          	lw	a5,-20(s0)
     ef0:	fef42423          	sw	a5,-24(s0)
     ef4:	fdc42783          	lw	a5,-36(s0)
     ef8:	0007a703          	lw	a4,0(a5)
     efc:	fe842783          	lw	a5,-24(s0)
     f00:	00c79793          	slli	a5,a5,0xc
     f04:	00f70733          	add	a4,a4,a5
     f08:	002007b7          	lui	a5,0x200
     f0c:	00478793          	addi	a5,a5,4 # 200004 <__stack_size+0x1fe004>
     f10:	00f707b3          	add	a5,a4,a5
     f14:	fef42223          	sw	a5,-28(s0)
     f18:	fe442783          	lw	a5,-28(s0)
     f1c:	fd842703          	lw	a4,-40(s0)
     f20:	00e7a023          	sw	a4,0(a5)
     f24:	00000013          	nop
     f28:	02c12403          	lw	s0,44(sp)
     f2c:	03010113          	addi	sp,sp,48
     f30:	00008067          	ret

00000f34 <apb_gpio_init>:
     f34:	fe010113          	addi	sp,sp,-32
     f38:	00812e23          	sw	s0,28(sp)
     f3c:	02010413          	addi	s0,sp,32
     f40:	fea42623          	sw	a0,-20(s0)
     f44:	feb42423          	sw	a1,-24(s0)
     f48:	fe842703          	lw	a4,-24(s0)
     f4c:	fec42783          	lw	a5,-20(s0)
     f50:	00e7a023          	sw	a4,0(a5)
     f54:	00000013          	nop
     f58:	01c12403          	lw	s0,28(sp)
     f5c:	02010113          	addi	sp,sp,32
     f60:	00008067          	ret

00000f64 <apb_gpio_set_direction>:
     f64:	fe010113          	addi	sp,sp,-32
     f68:	00812e23          	sw	s0,28(sp)
     f6c:	02010413          	addi	s0,sp,32
     f70:	fea42623          	sw	a0,-20(s0)
     f74:	feb42423          	sw	a1,-24(s0)
     f78:	fec42783          	lw	a5,-20(s0)
     f7c:	fe842703          	lw	a4,-24(s0)
     f80:	00e7a223          	sw	a4,4(a5)
     f84:	fec42783          	lw	a5,-20(s0)
     f88:	0007a783          	lw	a5,0(a5)
     f8c:	fe842703          	lw	a4,-24(s0)
     f90:	00e7a423          	sw	a4,8(a5)
     f94:	00000013          	nop
     f98:	01c12403          	lw	s0,28(sp)
     f9c:	02010113          	addi	sp,sp,32
     fa0:	00008067          	ret

00000fa4 <apb_uart_init>:
     fa4:	fe010113          	addi	sp,sp,-32
     fa8:	00812e23          	sw	s0,28(sp)
     fac:	02010413          	addi	s0,sp,32
     fb0:	fea42623          	sw	a0,-20(s0)
     fb4:	feb42423          	sw	a1,-24(s0)
     fb8:	fe842703          	lw	a4,-24(s0)
     fbc:	fec42783          	lw	a5,-20(s0)
     fc0:	00e7a023          	sw	a4,0(a5)
     fc4:	fec42783          	lw	a5,-20(s0)
     fc8:	00078223          	sb	zero,4(a5)
     fcc:	00000013          	nop
     fd0:	01c12403          	lw	s0,28(sp)
     fd4:	02010113          	addi	sp,sp,32
     fd8:	00008067          	ret

00000fdc <apb_uart_send_byte>:
     fdc:	fd010113          	addi	sp,sp,-48
     fe0:	02812623          	sw	s0,44(sp)
     fe4:	03010413          	addi	s0,sp,48
     fe8:	fca42e23          	sw	a0,-36(s0)
     fec:	00058793          	mv	a5,a1
     ff0:	fcf40da3          	sb	a5,-37(s0)
     ff4:	fdc42783          	lw	a5,-36(s0)
     ff8:	0007a783          	lw	a5,0(a5)
     ffc:	0007a783          	lw	a5,0(a5)
    1000:	fef42623          	sw	a5,-20(s0)
    1004:	fec42783          	lw	a5,-20(s0)
    1008:	0017f793          	andi	a5,a5,1
    100c:	00078663          	beqz	a5,1018 <apb_uart_send_byte+0x3c>
    1010:	fff00793          	li	a5,-1
    1014:	0600006f          	j	1074 <apb_uart_send_byte+0x98>
    1018:	fdc42783          	lw	a5,-36(s0)
    101c:	0007a783          	lw	a5,0(a5)
    1020:	fef42423          	sw	a5,-24(s0)
    1024:	fec42783          	lw	a5,-20(s0)
    1028:	c037f793          	andi	a5,a5,-1021
    102c:	fef42623          	sw	a5,-20(s0)
    1030:	fdb44783          	lbu	a5,-37(s0)
    1034:	00279793          	slli	a5,a5,0x2
    1038:	fec42703          	lw	a4,-20(s0)
    103c:	00f767b3          	or	a5,a4,a5
    1040:	fef42623          	sw	a5,-20(s0)
    1044:	fe842783          	lw	a5,-24(s0)
    1048:	fec42703          	lw	a4,-20(s0)
    104c:	00e7a023          	sw	a4,0(a5)
    1050:	fec42783          	lw	a5,-20(s0)
    1054:	0027e713          	ori	a4,a5,2
    1058:	fe842783          	lw	a5,-24(s0)
    105c:	00e7a023          	sw	a4,0(a5)
    1060:	fec42783          	lw	a5,-20(s0)
    1064:	ffd7f713          	andi	a4,a5,-3
    1068:	fe842783          	lw	a5,-24(s0)
    106c:	00e7a023          	sw	a4,0(a5)
    1070:	00000793          	li	a5,0
    1074:	00078513          	mv	a0,a5
    1078:	02c12403          	lw	s0,44(sp)
    107c:	03010113          	addi	sp,sp,48
    1080:	00008067          	ret

00001084 <apb_uart_rev_byte>:
    1084:	fd010113          	addi	sp,sp,-48
    1088:	02812623          	sw	s0,44(sp)
    108c:	03010413          	addi	s0,sp,48
    1090:	fca42e23          	sw	a0,-36(s0)
    1094:	fcb42c23          	sw	a1,-40(s0)
    1098:	fdc42783          	lw	a5,-36(s0)
    109c:	0007a783          	lw	a5,0(a5)
    10a0:	0007a783          	lw	a5,0(a5)
    10a4:	fef42623          	sw	a5,-20(s0)
    10a8:	fec42783          	lw	a5,-20(s0)
    10ac:	4007f793          	andi	a5,a5,1024
    10b0:	00078663          	beqz	a5,10bc <apb_uart_rev_byte+0x38>
    10b4:	fff00793          	li	a5,-1
    10b8:	0640006f          	j	111c <apb_uart_rev_byte+0x98>
    10bc:	fdc42783          	lw	a5,-36(s0)
    10c0:	0007a783          	lw	a5,0(a5)
    10c4:	fef42423          	sw	a5,-24(s0)
    10c8:	fec42703          	lw	a4,-20(s0)
    10cc:	000017b7          	lui	a5,0x1
    10d0:	80078793          	addi	a5,a5,-2048 # 800 <_start>
    10d4:	00f76733          	or	a4,a4,a5
    10d8:	fe842783          	lw	a5,-24(s0)
    10dc:	00e7a023          	sw	a4,0(a5)
    10e0:	fec42703          	lw	a4,-20(s0)
    10e4:	fffff7b7          	lui	a5,0xfffff
    10e8:	7ff78793          	addi	a5,a5,2047 # fffff7ff <__freertos_irq_stack_top+0xefff77ff>
    10ec:	00f77733          	and	a4,a4,a5
    10f0:	fe842783          	lw	a5,-24(s0)
    10f4:	00e7a023          	sw	a4,0(a5)
    10f8:	fe842783          	lw	a5,-24(s0)
    10fc:	0007a783          	lw	a5,0(a5)
    1100:	fef42623          	sw	a5,-20(s0)
    1104:	fec42783          	lw	a5,-20(s0)
    1108:	00c7d793          	srli	a5,a5,0xc
    110c:	0ff7f713          	andi	a4,a5,255
    1110:	fd842783          	lw	a5,-40(s0)
    1114:	00e78023          	sb	a4,0(a5)
    1118:	00000793          	li	a5,0
    111c:	00078513          	mv	a0,a5
    1120:	02c12403          	lw	s0,44(sp)
    1124:	03010113          	addi	sp,sp,48
    1128:	00008067          	ret

0000112c <apb_uart_enable_itr>:
    112c:	fe010113          	addi	sp,sp,-32
    1130:	00812e23          	sw	s0,28(sp)
    1134:	02010413          	addi	s0,sp,32
    1138:	fea42623          	sw	a0,-20(s0)
    113c:	00058793          	mv	a5,a1
    1140:	fec42223          	sw	a2,-28(s0)
    1144:	fef405a3          	sb	a5,-21(s0)
    1148:	feb44783          	lbu	a5,-21(s0)
    114c:	00179793          	slli	a5,a5,0x1
    1150:	0017e713          	ori	a4,a5,1
    1154:	fec42783          	lw	a5,-20(s0)
    1158:	0007a783          	lw	a5,0(a5)
    115c:	00e7a223          	sw	a4,4(a5)
    1160:	fec42783          	lw	a5,-20(s0)
    1164:	feb44703          	lbu	a4,-21(s0)
    1168:	00e78223          	sb	a4,4(a5)
    116c:	fe442783          	lw	a5,-28(s0)
    1170:	0007d783          	lhu	a5,0(a5)
    1174:	fff78793          	addi	a5,a5,-1
    1178:	00078693          	mv	a3,a5
    117c:	fe442783          	lw	a5,-28(s0)
    1180:	0027d783          	lhu	a5,2(a5)
    1184:	ffe78793          	addi	a5,a5,-2
    1188:	01079713          	slli	a4,a5,0x10
    118c:	fec42783          	lw	a5,-20(s0)
    1190:	0007a783          	lw	a5,0(a5)
    1194:	00e6e733          	or	a4,a3,a4
    1198:	00e7a423          	sw	a4,8(a5)
    119c:	fe442783          	lw	a5,-28(s0)
    11a0:	0047d783          	lhu	a5,4(a5)
    11a4:	fff78793          	addi	a5,a5,-1
    11a8:	00078693          	mv	a3,a5
    11ac:	fe442783          	lw	a5,-28(s0)
    11b0:	0067d783          	lhu	a5,6(a5)
    11b4:	ffe78793          	addi	a5,a5,-2
    11b8:	01079713          	slli	a4,a5,0x10
    11bc:	fec42783          	lw	a5,-20(s0)
    11c0:	0007a783          	lw	a5,0(a5)
    11c4:	00e6e733          	or	a4,a3,a4
    11c8:	00e7a623          	sw	a4,12(a5)
    11cc:	00000013          	nop
    11d0:	01c12403          	lw	s0,28(sp)
    11d4:	02010113          	addi	sp,sp,32
    11d8:	00008067          	ret

000011dc <apb_uart_clear_itr_flag>:
    11dc:	fe010113          	addi	sp,sp,-32
    11e0:	00812e23          	sw	s0,28(sp)
    11e4:	02010413          	addi	s0,sp,32
    11e8:	fea42623          	sw	a0,-20(s0)
    11ec:	fec42783          	lw	a5,-20(s0)
    11f0:	0047c783          	lbu	a5,4(a5)
    11f4:	00179793          	slli	a5,a5,0x1
    11f8:	0017e713          	ori	a4,a5,1
    11fc:	fec42783          	lw	a5,-20(s0)
    1200:	0007a783          	lw	a5,0(a5)
    1204:	00e7a223          	sw	a4,4(a5)
    1208:	00000013          	nop
    120c:	01c12403          	lw	s0,28(sp)
    1210:	02010113          	addi	sp,sp,32
    1214:	00008067          	ret

00001218 <xputc>:
    1218:	fe010113          	addi	sp,sp,-32
    121c:	00112e23          	sw	ra,28(sp)
    1220:	00812c23          	sw	s0,24(sp)
    1224:	02010413          	addi	s0,sp,32
    1228:	00050793          	mv	a5,a0
    122c:	fef407a3          	sb	a5,-17(s0)
    1230:	8201a783          	lw	a5,-2016(gp) # 100000d8 <outptr>
    1234:	00078e63          	beqz	a5,1250 <xputc+0x38>
    1238:	8201a783          	lw	a5,-2016(gp) # 100000d8 <outptr>
    123c:	00178693          	addi	a3,a5,1
    1240:	82d1a023          	sw	a3,-2016(gp) # 100000d8 <outptr>
    1244:	fef44703          	lbu	a4,-17(s0)
    1248:	00e78023          	sb	a4,0(a5)
    124c:	01c0006f          	j	1268 <xputc+0x50>
    1250:	9241a783          	lw	a5,-1756(gp) # 100001dc <xfunc_out>
    1254:	00078a63          	beqz	a5,1268 <xputc+0x50>
    1258:	9241a703          	lw	a4,-1756(gp) # 100001dc <xfunc_out>
    125c:	fef44783          	lbu	a5,-17(s0)
    1260:	00078513          	mv	a0,a5
    1264:	000700e7          	jalr	a4
    1268:	01c12083          	lw	ra,28(sp)
    126c:	01812403          	lw	s0,24(sp)
    1270:	02010113          	addi	sp,sp,32
    1274:	00008067          	ret

00001278 <xputs>:
    1278:	fe010113          	addi	sp,sp,-32
    127c:	00112e23          	sw	ra,28(sp)
    1280:	00812c23          	sw	s0,24(sp)
    1284:	02010413          	addi	s0,sp,32
    1288:	fea42623          	sw	a0,-20(s0)
    128c:	01c0006f          	j	12a8 <xputs+0x30>
    1290:	fec42783          	lw	a5,-20(s0)
    1294:	00178713          	addi	a4,a5,1
    1298:	fee42623          	sw	a4,-20(s0)
    129c:	0007c783          	lbu	a5,0(a5)
    12a0:	00078513          	mv	a0,a5
    12a4:	f75ff0ef          	jal	ra,1218 <xputc>
    12a8:	fec42783          	lw	a5,-20(s0)
    12ac:	0007c783          	lbu	a5,0(a5)
    12b0:	fe0790e3          	bnez	a5,1290 <xputs+0x18>
    12b4:	00000013          	nop
    12b8:	01c12083          	lw	ra,28(sp)
    12bc:	01812403          	lw	s0,24(sp)
    12c0:	02010113          	addi	sp,sp,32
    12c4:	00008067          	ret

000012c8 <xvprintf>:
    12c8:	fb010113          	addi	sp,sp,-80
    12cc:	04112623          	sw	ra,76(sp)
    12d0:	04812423          	sw	s0,72(sp)
    12d4:	05010413          	addi	s0,sp,80
    12d8:	faa42e23          	sw	a0,-68(s0)
    12dc:	fab42c23          	sw	a1,-72(s0)
    12e0:	fbc42783          	lw	a5,-68(s0)
    12e4:	00178713          	addi	a4,a5,1
    12e8:	fae42e23          	sw	a4,-68(s0)
    12ec:	0007c783          	lbu	a5,0(a5)
    12f0:	fcf40ba3          	sb	a5,-41(s0)
    12f4:	fd744783          	lbu	a5,-41(s0)
    12f8:	42078e63          	beqz	a5,1734 <xvprintf+0x46c>
    12fc:	fd744703          	lbu	a4,-41(s0)
    1300:	02500793          	li	a5,37
    1304:	00f70a63          	beq	a4,a5,1318 <xvprintf+0x50>
    1308:	fd744783          	lbu	a5,-41(s0)
    130c:	00078513          	mv	a0,a5
    1310:	f09ff0ef          	jal	ra,1218 <xputc>
    1314:	41c0006f          	j	1730 <xvprintf+0x468>
    1318:	fc042e23          	sw	zero,-36(s0)
    131c:	fbc42783          	lw	a5,-68(s0)
    1320:	00178713          	addi	a4,a5,1
    1324:	fae42e23          	sw	a4,-68(s0)
    1328:	0007c783          	lbu	a5,0(a5)
    132c:	fcf40ba3          	sb	a5,-41(s0)
    1330:	fd744703          	lbu	a4,-41(s0)
    1334:	03000793          	li	a5,48
    1338:	02f71263          	bne	a4,a5,135c <xvprintf+0x94>
    133c:	00100793          	li	a5,1
    1340:	fcf42e23          	sw	a5,-36(s0)
    1344:	fbc42783          	lw	a5,-68(s0)
    1348:	00178713          	addi	a4,a5,1
    134c:	fae42e23          	sw	a4,-68(s0)
    1350:	0007c783          	lbu	a5,0(a5)
    1354:	fcf40ba3          	sb	a5,-41(s0)
    1358:	02c0006f          	j	1384 <xvprintf+0xbc>
    135c:	fd744703          	lbu	a4,-41(s0)
    1360:	02d00793          	li	a5,45
    1364:	02f71063          	bne	a4,a5,1384 <xvprintf+0xbc>
    1368:	00200793          	li	a5,2
    136c:	fcf42e23          	sw	a5,-36(s0)
    1370:	fbc42783          	lw	a5,-68(s0)
    1374:	00178713          	addi	a4,a5,1
    1378:	fae42e23          	sw	a4,-68(s0)
    137c:	0007c783          	lbu	a5,0(a5)
    1380:	fcf40ba3          	sb	a5,-41(s0)
    1384:	fe042023          	sw	zero,-32(s0)
    1388:	0400006f          	j	13c8 <xvprintf+0x100>
    138c:	fe042703          	lw	a4,-32(s0)
    1390:	00070793          	mv	a5,a4
    1394:	00279793          	slli	a5,a5,0x2
    1398:	00e787b3          	add	a5,a5,a4
    139c:	00179793          	slli	a5,a5,0x1
    13a0:	00078713          	mv	a4,a5
    13a4:	fd744783          	lbu	a5,-41(s0)
    13a8:	00f707b3          	add	a5,a4,a5
    13ac:	fd078793          	addi	a5,a5,-48
    13b0:	fef42023          	sw	a5,-32(s0)
    13b4:	fbc42783          	lw	a5,-68(s0)
    13b8:	00178713          	addi	a4,a5,1
    13bc:	fae42e23          	sw	a4,-68(s0)
    13c0:	0007c783          	lbu	a5,0(a5)
    13c4:	fcf40ba3          	sb	a5,-41(s0)
    13c8:	fd744703          	lbu	a4,-41(s0)
    13cc:	02f00793          	li	a5,47
    13d0:	00e7f863          	bgeu	a5,a4,13e0 <xvprintf+0x118>
    13d4:	fd744703          	lbu	a4,-41(s0)
    13d8:	03900793          	li	a5,57
    13dc:	fae7f8e3          	bgeu	a5,a4,138c <xvprintf+0xc4>
    13e0:	fd744703          	lbu	a4,-41(s0)
    13e4:	06c00793          	li	a5,108
    13e8:	00f70863          	beq	a4,a5,13f8 <xvprintf+0x130>
    13ec:	fd744703          	lbu	a4,-41(s0)
    13f0:	04c00793          	li	a5,76
    13f4:	02f71263          	bne	a4,a5,1418 <xvprintf+0x150>
    13f8:	fdc42783          	lw	a5,-36(s0)
    13fc:	0047e793          	ori	a5,a5,4
    1400:	fcf42e23          	sw	a5,-36(s0)
    1404:	fbc42783          	lw	a5,-68(s0)
    1408:	00178713          	addi	a4,a5,1
    140c:	fae42e23          	sw	a4,-68(s0)
    1410:	0007c783          	lbu	a5,0(a5)
    1414:	fcf40ba3          	sb	a5,-41(s0)
    1418:	fd744783          	lbu	a5,-41(s0)
    141c:	32078063          	beqz	a5,173c <xvprintf+0x474>
    1420:	fd744783          	lbu	a5,-41(s0)
    1424:	fcf40b23          	sb	a5,-42(s0)
    1428:	fd644703          	lbu	a4,-42(s0)
    142c:	06000793          	li	a5,96
    1430:	00e7f863          	bgeu	a5,a4,1440 <xvprintf+0x178>
    1434:	fd644783          	lbu	a5,-42(s0)
    1438:	fe078793          	addi	a5,a5,-32
    143c:	fcf40b23          	sb	a5,-42(s0)
    1440:	fd644783          	lbu	a5,-42(s0)
    1444:	fbe78793          	addi	a5,a5,-66
    1448:	01600713          	li	a4,22
    144c:	10f76063          	bltu	a4,a5,154c <xvprintf+0x284>
    1450:	00279713          	slli	a4,a5,0x2
    1454:	100007b7          	lui	a5,0x10000
    1458:	05878793          	addi	a5,a5,88 # 10000058 <_data+0x58>
    145c:	00f707b3          	add	a5,a4,a5
    1460:	0007a783          	lw	a5,0(a5)
    1464:	00078067          	jr	a5
    1468:	fb842783          	lw	a5,-72(s0)
    146c:	00478713          	addi	a4,a5,4
    1470:	fae42c23          	sw	a4,-72(s0)
    1474:	0007a783          	lw	a5,0(a5)
    1478:	fcf42823          	sw	a5,-48(s0)
    147c:	fe042223          	sw	zero,-28(s0)
    1480:	0100006f          	j	1490 <xvprintf+0x1c8>
    1484:	fe442783          	lw	a5,-28(s0)
    1488:	00178793          	addi	a5,a5,1
    148c:	fef42223          	sw	a5,-28(s0)
    1490:	fd042703          	lw	a4,-48(s0)
    1494:	fe442783          	lw	a5,-28(s0)
    1498:	00f707b3          	add	a5,a4,a5
    149c:	0007c783          	lbu	a5,0(a5)
    14a0:	fe0792e3          	bnez	a5,1484 <xvprintf+0x1bc>
    14a4:	00c0006f          	j	14b0 <xvprintf+0x1e8>
    14a8:	02000513          	li	a0,32
    14ac:	d6dff0ef          	jal	ra,1218 <xputc>
    14b0:	fdc42783          	lw	a5,-36(s0)
    14b4:	0027f793          	andi	a5,a5,2
    14b8:	00079c63          	bnez	a5,14d0 <xvprintf+0x208>
    14bc:	fe442783          	lw	a5,-28(s0)
    14c0:	00178713          	addi	a4,a5,1
    14c4:	fee42223          	sw	a4,-28(s0)
    14c8:	fe042703          	lw	a4,-32(s0)
    14cc:	fce7eee3          	bltu	a5,a4,14a8 <xvprintf+0x1e0>
    14d0:	fd042503          	lw	a0,-48(s0)
    14d4:	da5ff0ef          	jal	ra,1278 <xputs>
    14d8:	00c0006f          	j	14e4 <xvprintf+0x21c>
    14dc:	02000513          	li	a0,32
    14e0:	d39ff0ef          	jal	ra,1218 <xputc>
    14e4:	fe442783          	lw	a5,-28(s0)
    14e8:	00178713          	addi	a4,a5,1
    14ec:	fee42223          	sw	a4,-28(s0)
    14f0:	fe042703          	lw	a4,-32(s0)
    14f4:	fee7e4e3          	bltu	a5,a4,14dc <xvprintf+0x214>
    14f8:	2380006f          	j	1730 <xvprintf+0x468>
    14fc:	fb842783          	lw	a5,-72(s0)
    1500:	00478713          	addi	a4,a5,4
    1504:	fae42c23          	sw	a4,-72(s0)
    1508:	0007a783          	lw	a5,0(a5)
    150c:	0ff7f793          	andi	a5,a5,255
    1510:	00078513          	mv	a0,a5
    1514:	d05ff0ef          	jal	ra,1218 <xputc>
    1518:	2180006f          	j	1730 <xvprintf+0x468>
    151c:	00200793          	li	a5,2
    1520:	fef42623          	sw	a5,-20(s0)
    1524:	0380006f          	j	155c <xvprintf+0x294>
    1528:	00800793          	li	a5,8
    152c:	fef42623          	sw	a5,-20(s0)
    1530:	02c0006f          	j	155c <xvprintf+0x294>
    1534:	00a00793          	li	a5,10
    1538:	fef42623          	sw	a5,-20(s0)
    153c:	0200006f          	j	155c <xvprintf+0x294>
    1540:	01000793          	li	a5,16
    1544:	fef42623          	sw	a5,-20(s0)
    1548:	0140006f          	j	155c <xvprintf+0x294>
    154c:	fd744783          	lbu	a5,-41(s0)
    1550:	00078513          	mv	a0,a5
    1554:	cc5ff0ef          	jal	ra,1218 <xputc>
    1558:	1d80006f          	j	1730 <xvprintf+0x468>
    155c:	fdc42783          	lw	a5,-36(s0)
    1560:	0047f793          	andi	a5,a5,4
    1564:	00078c63          	beqz	a5,157c <xvprintf+0x2b4>
    1568:	fb842783          	lw	a5,-72(s0)
    156c:	00478713          	addi	a4,a5,4
    1570:	fae42c23          	sw	a4,-72(s0)
    1574:	0007a783          	lw	a5,0(a5)
    1578:	0340006f          	j	15ac <xvprintf+0x2e4>
    157c:	fd644703          	lbu	a4,-42(s0)
    1580:	04400793          	li	a5,68
    1584:	00f71c63          	bne	a4,a5,159c <xvprintf+0x2d4>
    1588:	fb842783          	lw	a5,-72(s0)
    158c:	00478713          	addi	a4,a5,4
    1590:	fae42c23          	sw	a4,-72(s0)
    1594:	0007a783          	lw	a5,0(a5)
    1598:	0140006f          	j	15ac <xvprintf+0x2e4>
    159c:	fb842783          	lw	a5,-72(s0)
    15a0:	00478713          	addi	a4,a5,4
    15a4:	fae42c23          	sw	a4,-72(s0)
    15a8:	0007a783          	lw	a5,0(a5)
    15ac:	fcf42c23          	sw	a5,-40(s0)
    15b0:	fd644703          	lbu	a4,-42(s0)
    15b4:	04400793          	li	a5,68
    15b8:	02f71263          	bne	a4,a5,15dc <xvprintf+0x314>
    15bc:	fd842783          	lw	a5,-40(s0)
    15c0:	0007de63          	bgez	a5,15dc <xvprintf+0x314>
    15c4:	fd842783          	lw	a5,-40(s0)
    15c8:	40f007b3          	neg	a5,a5
    15cc:	fcf42c23          	sw	a5,-40(s0)
    15d0:	fdc42783          	lw	a5,-36(s0)
    15d4:	0087e793          	ori	a5,a5,8
    15d8:	fcf42e23          	sw	a5,-36(s0)
    15dc:	fe042423          	sw	zero,-24(s0)
    15e0:	fd842703          	lw	a4,-40(s0)
    15e4:	fec42783          	lw	a5,-20(s0)
    15e8:	02f777b3          	remu	a5,a4,a5
    15ec:	fcf40b23          	sb	a5,-42(s0)
    15f0:	fd842703          	lw	a4,-40(s0)
    15f4:	fec42783          	lw	a5,-20(s0)
    15f8:	02f757b3          	divu	a5,a4,a5
    15fc:	fcf42c23          	sw	a5,-40(s0)
    1600:	fd644703          	lbu	a4,-42(s0)
    1604:	00900793          	li	a5,9
    1608:	02e7f463          	bgeu	a5,a4,1630 <xvprintf+0x368>
    160c:	fd744703          	lbu	a4,-41(s0)
    1610:	07800793          	li	a5,120
    1614:	00f71663          	bne	a4,a5,1620 <xvprintf+0x358>
    1618:	02700793          	li	a5,39
    161c:	0080006f          	j	1624 <xvprintf+0x35c>
    1620:	00700793          	li	a5,7
    1624:	fd644703          	lbu	a4,-42(s0)
    1628:	00e787b3          	add	a5,a5,a4
    162c:	fcf40b23          	sb	a5,-42(s0)
    1630:	fe842783          	lw	a5,-24(s0)
    1634:	00178713          	addi	a4,a5,1
    1638:	fee42423          	sw	a4,-24(s0)
    163c:	fd644703          	lbu	a4,-42(s0)
    1640:	03070713          	addi	a4,a4,48
    1644:	0ff77713          	andi	a4,a4,255
    1648:	ff040693          	addi	a3,s0,-16
    164c:	00f687b3          	add	a5,a3,a5
    1650:	fce78823          	sb	a4,-48(a5)
    1654:	fd842783          	lw	a5,-40(s0)
    1658:	00078863          	beqz	a5,1668 <xvprintf+0x3a0>
    165c:	fe842703          	lw	a4,-24(s0)
    1660:	00f00793          	li	a5,15
    1664:	f6e7fee3          	bgeu	a5,a4,15e0 <xvprintf+0x318>
    1668:	fdc42783          	lw	a5,-36(s0)
    166c:	0087f793          	andi	a5,a5,8
    1670:	02078063          	beqz	a5,1690 <xvprintf+0x3c8>
    1674:	fe842783          	lw	a5,-24(s0)
    1678:	00178713          	addi	a4,a5,1
    167c:	fee42423          	sw	a4,-24(s0)
    1680:	ff040713          	addi	a4,s0,-16
    1684:	00f707b3          	add	a5,a4,a5
    1688:	02d00713          	li	a4,45
    168c:	fce78823          	sb	a4,-48(a5)
    1690:	fe842783          	lw	a5,-24(s0)
    1694:	fef42223          	sw	a5,-28(s0)
    1698:	fdc42783          	lw	a5,-36(s0)
    169c:	0017f793          	andi	a5,a5,1
    16a0:	00078663          	beqz	a5,16ac <xvprintf+0x3e4>
    16a4:	03000793          	li	a5,48
    16a8:	0080006f          	j	16b0 <xvprintf+0x3e8>
    16ac:	02000793          	li	a5,32
    16b0:	fcf40b23          	sb	a5,-42(s0)
    16b4:	0100006f          	j	16c4 <xvprintf+0x3fc>
    16b8:	fd644783          	lbu	a5,-42(s0)
    16bc:	00078513          	mv	a0,a5
    16c0:	b59ff0ef          	jal	ra,1218 <xputc>
    16c4:	fdc42783          	lw	a5,-36(s0)
    16c8:	0027f793          	andi	a5,a5,2
    16cc:	00079c63          	bnez	a5,16e4 <xvprintf+0x41c>
    16d0:	fe442783          	lw	a5,-28(s0)
    16d4:	00178713          	addi	a4,a5,1
    16d8:	fee42223          	sw	a4,-28(s0)
    16dc:	fe042703          	lw	a4,-32(s0)
    16e0:	fce7ece3          	bltu	a5,a4,16b8 <xvprintf+0x3f0>
    16e4:	fe842783          	lw	a5,-24(s0)
    16e8:	fff78793          	addi	a5,a5,-1
    16ec:	fef42423          	sw	a5,-24(s0)
    16f0:	fe842783          	lw	a5,-24(s0)
    16f4:	ff040713          	addi	a4,s0,-16
    16f8:	00f707b3          	add	a5,a4,a5
    16fc:	fd07c783          	lbu	a5,-48(a5)
    1700:	00078513          	mv	a0,a5
    1704:	b15ff0ef          	jal	ra,1218 <xputc>
    1708:	fe842783          	lw	a5,-24(s0)
    170c:	fc079ce3          	bnez	a5,16e4 <xvprintf+0x41c>
    1710:	00c0006f          	j	171c <xvprintf+0x454>
    1714:	02000513          	li	a0,32
    1718:	b01ff0ef          	jal	ra,1218 <xputc>
    171c:	fe442783          	lw	a5,-28(s0)
    1720:	00178713          	addi	a4,a5,1
    1724:	fee42223          	sw	a4,-28(s0)
    1728:	fe042703          	lw	a4,-32(s0)
    172c:	fee7e4e3          	bltu	a5,a4,1714 <xvprintf+0x44c>
    1730:	bb1ff06f          	j	12e0 <xvprintf+0x18>
    1734:	00000013          	nop
    1738:	0080006f          	j	1740 <xvprintf+0x478>
    173c:	00000013          	nop
    1740:	00000013          	nop
    1744:	04c12083          	lw	ra,76(sp)
    1748:	04812403          	lw	s0,72(sp)
    174c:	05010113          	addi	sp,sp,80
    1750:	00008067          	ret

00001754 <xprintf>:
    1754:	fb010113          	addi	sp,sp,-80
    1758:	02112623          	sw	ra,44(sp)
    175c:	02812423          	sw	s0,40(sp)
    1760:	03010413          	addi	s0,sp,48
    1764:	fca42e23          	sw	a0,-36(s0)
    1768:	00b42223          	sw	a1,4(s0)
    176c:	00c42423          	sw	a2,8(s0)
    1770:	00d42623          	sw	a3,12(s0)
    1774:	00e42823          	sw	a4,16(s0)
    1778:	00f42a23          	sw	a5,20(s0)
    177c:	01042c23          	sw	a6,24(s0)
    1780:	01142e23          	sw	a7,28(s0)
    1784:	02040793          	addi	a5,s0,32
    1788:	fe478793          	addi	a5,a5,-28
    178c:	fef42623          	sw	a5,-20(s0)
    1790:	fec42783          	lw	a5,-20(s0)
    1794:	00078593          	mv	a1,a5
    1798:	fdc42503          	lw	a0,-36(s0)
    179c:	b2dff0ef          	jal	ra,12c8 <xvprintf>
    17a0:	00000013          	nop
    17a4:	02c12083          	lw	ra,44(sp)
    17a8:	02812403          	lw	s0,40(sp)
    17ac:	05010113          	addi	sp,sp,80
    17b0:	00008067          	ret
